
/home/pi/pico/Pico-RGB-Matrix-P3-64x32-Demo/build/Pico-RGB-Matrix-P3-64x32-Demo/Pico-RGB-Matrix-P3-64x32-Demo.elf:     file format elf32-littlearm

Sections:
Idx Name          Size      VMA       LMA       File off  Algn
  0 .boot2        00000100  10000000  10000000  00001000  2**0
                  CONTENTS, ALLOC, LOAD, READONLY, CODE
  1 .text         00007f70  10000100  10000100  00001100  2**3
                  CONTENTS, ALLOC, LOAD, READONLY, CODE
  2 .rodata       00000dcc  10008070  10008070  00009070  2**2
                  CONTENTS, ALLOC, LOAD, READONLY, DATA
  3 .binary_info  0000002c  10008e3c  10008e3c  00009e3c  2**2
                  CONTENTS, ALLOC, LOAD, DATA
  4 .ram_vector_table 000000c0  20000000  20000000  0000a65c  2**2
                  CONTENTS
  5 .data         0000059c  200000c0  10008e68  0000a0c0  2**4
                  CONTENTS, ALLOC, LOAD, CODE
  6 .uninitialized_data 00000000  2000065c  2000065c  0000a71c  2**0
                  CONTENTS
  7 .scratch_x    00000000  20040000  20040000  0000a71c  2**0
                  CONTENTS
  8 .scratch_y    00000000  20041000  20041000  0000a71c  2**0
                  CONTENTS
  9 .bss          00001320  20000660  20000660  0000a660  2**3
                  ALLOC
 10 .heap         00000800  20001980  20001980  0000a71c  2**2
                  CONTENTS, READONLY
 11 .stack_dummy  00000800  20041000  20041000  0000af20  2**5
                  CONTENTS, READONLY
 12 .ARM.attributes 00000028  00000000  00000000  0000b720  2**0
                  CONTENTS, READONLY
 13 .comment      000000ae  00000000  00000000  0000b748  2**0
                  CONTENTS, READONLY
 14 .debug_line   000001a3  00000000  00000000  0000b7f6  2**0
                  CONTENTS, READONLY, DEBUGGING
 15 .debug_info   00000908  00000000  00000000  0000b999  2**0
                  CONTENTS, READONLY, DEBUGGING
 16 .debug_abbrev 000001cc  00000000  00000000  0000c2a1  2**0
                  CONTENTS, READONLY, DEBUGGING
 17 .debug_aranges 00000040  00000000  00000000  0000c470  2**3
                  CONTENTS, READONLY, DEBUGGING
 18 .debug_str    000005f8  00000000  00000000  0000c4b0  2**0
                  CONTENTS, READONLY, DEBUGGING
 19 .debug_loc    00000094  00000000  00000000  0000caa8  2**0
                  CONTENTS, READONLY, DEBUGGING
 20 .debug_frame  00000028  00000000  00000000  0000cb3c  2**2
                  CONTENTS, READONLY, DEBUGGING
 21 .stabstr      00000076  00000000  00000000  0000cb64  2**0
                  CONTENTS, READONLY, DEBUGGING

/home/pi/pico/Pico-RGB-Matrix-P3-64x32-Demo/build/Pico-RGB-Matrix-P3-64x32-Demo/Pico-RGB-Matrix-P3-64x32-Demo.elf:     file format elf32-littlearm


Disassembly of section .boot2:

10000000 <__boot2_start__>:
10000000:	4b32b500 	.word	0x4b32b500
10000004:	60582021 	.word	0x60582021
10000008:	21026898 	.word	0x21026898
1000000c:	60984388 	.word	0x60984388
10000010:	611860d8 	.word	0x611860d8
10000014:	4b2e6158 	.word	0x4b2e6158
10000018:	60992100 	.word	0x60992100
1000001c:	61592102 	.word	0x61592102
10000020:	22f02101 	.word	0x22f02101
10000024:	492b5099 	.word	0x492b5099
10000028:	21016019 	.word	0x21016019
1000002c:	20356099 	.word	0x20356099
10000030:	f844f000 	.word	0xf844f000
10000034:	42902202 	.word	0x42902202
10000038:	2106d014 	.word	0x2106d014
1000003c:	f0006619 	.word	0xf0006619
10000040:	6e19f834 	.word	0x6e19f834
10000044:	66192101 	.word	0x66192101
10000048:	66182000 	.word	0x66182000
1000004c:	f000661a 	.word	0xf000661a
10000050:	6e19f82c 	.word	0x6e19f82c
10000054:	6e196e19 	.word	0x6e196e19
10000058:	f0002005 	.word	0xf0002005
1000005c:	2101f82f 	.word	0x2101f82f
10000060:	d1f94208 	.word	0xd1f94208
10000064:	60992100 	.word	0x60992100
10000068:	6019491b 	.word	0x6019491b
1000006c:	60592100 	.word	0x60592100
10000070:	481b491a 	.word	0x481b491a
10000074:	21016001 	.word	0x21016001
10000078:	21eb6099 	.word	0x21eb6099
1000007c:	21a06619 	.word	0x21a06619
10000080:	f0006619 	.word	0xf0006619
10000084:	2100f812 	.word	0x2100f812
10000088:	49166099 	.word	0x49166099
1000008c:	60014814 	.word	0x60014814
10000090:	60992101 	.word	0x60992101
10000094:	2800bc01 	.word	0x2800bc01
10000098:	4700d000 	.word	0x4700d000
1000009c:	49134812 	.word	0x49134812
100000a0:	c8036008 	.word	0xc8036008
100000a4:	8808f380 	.word	0x8808f380
100000a8:	b5034708 	.word	0xb5034708
100000ac:	20046a99 	.word	0x20046a99
100000b0:	d0fb4201 	.word	0xd0fb4201
100000b4:	42012001 	.word	0x42012001
100000b8:	bd03d1f8 	.word	0xbd03d1f8
100000bc:	6618b502 	.word	0x6618b502
100000c0:	f7ff6618 	.word	0xf7ff6618
100000c4:	6e18fff2 	.word	0x6e18fff2
100000c8:	bd026e18 	.word	0xbd026e18
100000cc:	40020000 	.word	0x40020000
100000d0:	18000000 	.word	0x18000000
100000d4:	00070000 	.word	0x00070000
100000d8:	005f0300 	.word	0x005f0300
100000dc:	00002221 	.word	0x00002221
100000e0:	180000f4 	.word	0x180000f4
100000e4:	a0002022 	.word	0xa0002022
100000e8:	10000100 	.word	0x10000100
100000ec:	e000ed08 	.word	0xe000ed08
	...
100000fc:	7a4eb274 	.word	0x7a4eb274

Disassembly of section .text:

10000100 <__VECTOR_TABLE>:
10000100:	20042000 	.word	0x20042000
10000104:	100001f7 	.word	0x100001f7
10000108:	100001c3 	.word	0x100001c3
1000010c:	100001c5 	.word	0x100001c5
10000110:	100001c1 	.word	0x100001c1
10000114:	100001c1 	.word	0x100001c1
10000118:	100001c1 	.word	0x100001c1
1000011c:	100001c1 	.word	0x100001c1
10000120:	100001c1 	.word	0x100001c1
10000124:	100001c1 	.word	0x100001c1
10000128:	100001c1 	.word	0x100001c1
1000012c:	100001c7 	.word	0x100001c7
10000130:	100001c1 	.word	0x100001c1
10000134:	100001c1 	.word	0x100001c1
10000138:	100001c9 	.word	0x100001c9
1000013c:	100001cb 	.word	0x100001cb
10000140:	100001cd 	.word	0x100001cd
10000144:	100001cd 	.word	0x100001cd
10000148:	100001cd 	.word	0x100001cd
1000014c:	100001cd 	.word	0x100001cd
10000150:	100001cd 	.word	0x100001cd
10000154:	100001cd 	.word	0x100001cd
10000158:	100001cd 	.word	0x100001cd
1000015c:	100001cd 	.word	0x100001cd
10000160:	100001cd 	.word	0x100001cd
10000164:	100001cd 	.word	0x100001cd
10000168:	100001cd 	.word	0x100001cd
1000016c:	100001cd 	.word	0x100001cd
10000170:	100001cd 	.word	0x100001cd
10000174:	100001cd 	.word	0x100001cd
10000178:	100001cd 	.word	0x100001cd
1000017c:	100001cd 	.word	0x100001cd
10000180:	100001cd 	.word	0x100001cd
10000184:	100001cd 	.word	0x100001cd
10000188:	100001cd 	.word	0x100001cd
1000018c:	100001cd 	.word	0x100001cd
10000190:	100001cd 	.word	0x100001cd
10000194:	100001cd 	.word	0x100001cd
10000198:	100001cd 	.word	0x100001cd
1000019c:	100001cd 	.word	0x100001cd
100001a0:	100001cd 	.word	0x100001cd
100001a4:	100001cd 	.word	0x100001cd
100001a8:	100001cd 	.word	0x100001cd
100001ac:	100001cd 	.word	0x100001cd
100001b0:	100001cd 	.word	0x100001cd
100001b4:	100001cd 	.word	0x100001cd
100001b8:	100001cd 	.word	0x100001cd
100001bc:	100001cd 	.word	0x100001cd

100001c0 <isr_invalid>:
100001c0:	be00      	bkpt	0x0000

100001c2 <isr_nmi>:
100001c2:	be00      	bkpt	0x0000

100001c4 <isr_hardfault>:
100001c4:	be00      	bkpt	0x0000

100001c6 <isr_svcall>:
100001c6:	be00      	bkpt	0x0000

100001c8 <isr_pendsv>:
100001c8:	be00      	bkpt	0x0000

100001ca <isr_systick>:
100001ca:	be00      	bkpt	0x0000

100001cc <__unhandled_user_irq>:
100001cc:	f000 f84b 	bl	10000266 <__get_current_exception>
100001d0:	3810      	subs	r0, #16

100001d2 <unhandled_user_irq_num_in_r0>:
100001d2:	be00      	bkpt	0x0000

100001d4 <binary_info_header>:
100001d4:	7188ebf2 	.word	0x7188ebf2
100001d8:	10008e3c 	.word	0x10008e3c
100001dc:	10008e68 	.word	0x10008e68
100001e0:	10000234 	.word	0x10000234
100001e4:	e71aa390 	.word	0xe71aa390

100001e8 <_entry_point>:
100001e8:	2000      	movs	r0, #0
100001ea:	4921      	ldr	r1, [pc, #132]	; (10000270 <__get_current_exception+0xa>)
100001ec:	6008      	str	r0, [r1, #0]
100001ee:	c806      	ldmia	r0!, {r1, r2}
100001f0:	f381 8808 	msr	MSP, r1
100001f4:	4710      	bx	r2

100001f6 <_reset_handler>:
100001f6:	481f      	ldr	r0, [pc, #124]	; (10000274 <__get_current_exception+0xe>)
100001f8:	6800      	ldr	r0, [r0, #0]
100001fa:	2800      	cmp	r0, #0
100001fc:	d12f      	bne.n	1000025e <hold_non_core0_in_bootrom>
100001fe:	a40d      	add	r4, pc, #52	; (adr r4, 10000234 <data_cpy_table>)
10000200:	cc0e      	ldmia	r4!, {r1, r2, r3}
10000202:	2900      	cmp	r1, #0
10000204:	d002      	beq.n	1000020c <_reset_handler+0x16>
10000206:	f000 f812 	bl	1000022e <data_cpy>
1000020a:	e7f9      	b.n	10000200 <_reset_handler+0xa>
1000020c:	491a      	ldr	r1, [pc, #104]	; (10000278 <__get_current_exception+0x12>)
1000020e:	4a1b      	ldr	r2, [pc, #108]	; (1000027c <__get_current_exception+0x16>)
10000210:	2000      	movs	r0, #0
10000212:	e000      	b.n	10000216 <bss_fill_test>

10000214 <bss_fill_loop>:
10000214:	c101      	stmia	r1!, {r0}

10000216 <bss_fill_test>:
10000216:	4291      	cmp	r1, r2
10000218:	d1fc      	bne.n	10000214 <bss_fill_loop>

1000021a <platform_entry>:
1000021a:	4919      	ldr	r1, [pc, #100]	; (10000280 <__get_current_exception+0x1a>)
1000021c:	4788      	blx	r1
1000021e:	4919      	ldr	r1, [pc, #100]	; (10000284 <__get_current_exception+0x1e>)
10000220:	4788      	blx	r1
10000222:	4919      	ldr	r1, [pc, #100]	; (10000288 <__get_current_exception+0x22>)
10000224:	4788      	blx	r1
10000226:	be00      	bkpt	0x0000
10000228:	e7fd      	b.n	10000226 <platform_entry+0xc>

1000022a <data_cpy_loop>:
1000022a:	c901      	ldmia	r1!, {r0}
1000022c:	c201      	stmia	r2!, {r0}

1000022e <data_cpy>:
1000022e:	429a      	cmp	r2, r3
10000230:	d3fb      	bcc.n	1000022a <data_cpy_loop>
10000232:	4770      	bx	lr

10000234 <data_cpy_table>:
10000234:	10008e68 	.word	0x10008e68
10000238:	200000c0 	.word	0x200000c0
1000023c:	2000065c 	.word	0x2000065c
10000240:	10009404 	.word	0x10009404
10000244:	20040000 	.word	0x20040000
10000248:	20040000 	.word	0x20040000
1000024c:	10009404 	.word	0x10009404
10000250:	20041000 	.word	0x20041000
10000254:	20041000 	.word	0x20041000
10000258:	00000000 	.word	0x00000000
1000025c:	4770      	bx	lr

1000025e <hold_non_core0_in_bootrom>:
1000025e:	480b      	ldr	r0, [pc, #44]	; (1000028c <__get_current_exception+0x26>)
10000260:	f004 fd06 	bl	10004c70 <rom_func_lookup>
10000264:	4700      	bx	r0

10000266 <__get_current_exception>:
10000266:	f3ef 8005 	mrs	r0, IPSR
1000026a:	b2c0      	uxtb	r0, r0
1000026c:	4770      	bx	lr
1000026e:	0000      	.short	0x0000
10000270:	e000ed08 	.word	0xe000ed08
10000274:	d0000000 	.word	0xd0000000
10000278:	20000660 	.word	0x20000660
1000027c:	20001980 	.word	0x20001980
10000280:	100046a5 	.word	0x100046a5
10000284:	1000271d 	.word	0x1000271d
10000288:	10004799 	.word	0x10004799
1000028c:	00005657 	.word	0x00005657

10000290 <__bi_50>:
10000290:	50520006 5360b3ab 10008bd4              ..RP..`S....

1000029c <__bi_38>:
1000029c:	50520006 02031c86 10008be4              ..RP........

100002a8 <__bi_30>:
100002a8:	50520006 9da22254 10008c04              ..RPT"......

100002b4 <__bi_22>:
100002b4:	50520005 68f465de 10009404              ..RP.e.h....

100002c0 <_init>:
100002c0:	b5f8      	push	{r3, r4, r5, r6, r7, lr}
100002c2:	46c0      	nop			; (mov r8, r8)

100002c4 <deregister_tm_clones>:
100002c4:	4804      	ldr	r0, [pc, #16]	; (100002d8 <deregister_tm_clones+0x14>)
100002c6:	4b05      	ldr	r3, [pc, #20]	; (100002dc <deregister_tm_clones+0x18>)
100002c8:	b510      	push	{r4, lr}
100002ca:	4283      	cmp	r3, r0
100002cc:	d003      	beq.n	100002d6 <deregister_tm_clones+0x12>
100002ce:	4b04      	ldr	r3, [pc, #16]	; (100002e0 <deregister_tm_clones+0x1c>)
100002d0:	2b00      	cmp	r3, #0
100002d2:	d000      	beq.n	100002d6 <deregister_tm_clones+0x12>
100002d4:	4798      	blx	r3
100002d6:	bd10      	pop	{r4, pc}
100002d8:	2000065c 	.word	0x2000065c
100002dc:	2000065c 	.word	0x2000065c
100002e0:	00000000 	.word	0x00000000

100002e4 <register_tm_clones>:
100002e4:	4806      	ldr	r0, [pc, #24]	; (10000300 <register_tm_clones+0x1c>)
100002e6:	4907      	ldr	r1, [pc, #28]	; (10000304 <register_tm_clones+0x20>)
100002e8:	1a09      	subs	r1, r1, r0
100002ea:	1089      	asrs	r1, r1, #2
100002ec:	0fcb      	lsrs	r3, r1, #31
100002ee:	1859      	adds	r1, r3, r1
100002f0:	b510      	push	{r4, lr}
100002f2:	1049      	asrs	r1, r1, #1
100002f4:	d003      	beq.n	100002fe <register_tm_clones+0x1a>
100002f6:	4b04      	ldr	r3, [pc, #16]	; (10000308 <register_tm_clones+0x24>)
100002f8:	2b00      	cmp	r3, #0
100002fa:	d000      	beq.n	100002fe <register_tm_clones+0x1a>
100002fc:	4798      	blx	r3
100002fe:	bd10      	pop	{r4, pc}
10000300:	2000065c 	.word	0x2000065c
10000304:	2000065c 	.word	0x2000065c
10000308:	00000000 	.word	0x00000000

1000030c <__do_global_dtors_aux>:
1000030c:	b510      	push	{r4, lr}
1000030e:	4c07      	ldr	r4, [pc, #28]	; (1000032c <__do_global_dtors_aux+0x20>)
10000310:	7823      	ldrb	r3, [r4, #0]
10000312:	2b00      	cmp	r3, #0
10000314:	d109      	bne.n	1000032a <__do_global_dtors_aux+0x1e>
10000316:	f7ff ffd5 	bl	100002c4 <deregister_tm_clones>
1000031a:	4b05      	ldr	r3, [pc, #20]	; (10000330 <__do_global_dtors_aux+0x24>)
1000031c:	2b00      	cmp	r3, #0
1000031e:	d002      	beq.n	10000326 <__do_global_dtors_aux+0x1a>
10000320:	4804      	ldr	r0, [pc, #16]	; (10000334 <__do_global_dtors_aux+0x28>)
10000322:	e000      	b.n	10000326 <__do_global_dtors_aux+0x1a>
10000324:	bf00      	nop
10000326:	2301      	movs	r3, #1
10000328:	7023      	strb	r3, [r4, #0]
1000032a:	bd10      	pop	{r4, pc}
1000032c:	200007b0 	.word	0x200007b0
10000330:	00000000 	.word	0x00000000
10000334:	10008070 	.word	0x10008070

10000338 <frame_dummy>:
10000338:	4b05      	ldr	r3, [pc, #20]	; (10000350 <frame_dummy+0x18>)
1000033a:	b510      	push	{r4, lr}
1000033c:	2b00      	cmp	r3, #0
1000033e:	d003      	beq.n	10000348 <frame_dummy+0x10>
10000340:	4904      	ldr	r1, [pc, #16]	; (10000354 <frame_dummy+0x1c>)
10000342:	4805      	ldr	r0, [pc, #20]	; (10000358 <frame_dummy+0x20>)
10000344:	e000      	b.n	10000348 <frame_dummy+0x10>
10000346:	bf00      	nop
10000348:	f7ff ffcc 	bl	100002e4 <register_tm_clones>
1000034c:	bd10      	pop	{r4, pc}
1000034e:	46c0      	nop			; (mov r8, r8)
10000350:	00000000 	.word	0x00000000
10000354:	200007b4 	.word	0x200007b4
10000358:	10008070 	.word	0x10008070

1000035c <_Z13PutInputEventP10InputEnent>:
1000035c:	b5f8      	push	{r3, r4, r5, r6, r7, lr}
1000035e:	26f0      	movs	r6, #240	; 0xf0
10000360:	4d0d      	ldr	r5, [pc, #52]	; (10000398 <_Z13PutInputEventP10InputEnent+0x3c>)
10000362:	0004      	movs	r4, r0
10000364:	59a8      	ldr	r0, [r5, r6]
10000366:	210a      	movs	r1, #10
10000368:	3001      	adds	r0, #1
1000036a:	f004 fcd7 	bl	10004d1c <__wrap___aeabi_uidiv>
1000036e:	2c00      	cmp	r4, #0
10000370:	d00f      	beq.n	10000392 <_Z13PutInputEventP10InputEnent+0x36>
10000372:	23f4      	movs	r3, #244	; 0xf4
10000374:	58eb      	ldr	r3, [r5, r3]
10000376:	428b      	cmp	r3, r1
10000378:	d00b      	beq.n	10000392 <_Z13PutInputEventP10InputEnent+0x36>
1000037a:	59aa      	ldr	r2, [r5, r6]
1000037c:	0053      	lsls	r3, r2, #1
1000037e:	189b      	adds	r3, r3, r2
10000380:	00db      	lsls	r3, r3, #3
10000382:	18eb      	adds	r3, r5, r3
10000384:	cc85      	ldmia	r4!, {r0, r2, r7}
10000386:	c385      	stmia	r3!, {r0, r2, r7}
10000388:	cc85      	ldmia	r4!, {r0, r2, r7}
1000038a:	c385      	stmia	r3!, {r0, r2, r7}
1000038c:	2000      	movs	r0, #0
1000038e:	51a9      	str	r1, [r5, r6]
10000390:	bdf8      	pop	{r3, r4, r5, r6, r7, pc}
10000392:	2001      	movs	r0, #1
10000394:	4240      	negs	r0, r0
10000396:	e7fb      	b.n	10000390 <_Z13PutInputEventP10InputEnent+0x34>
10000398:	200007cc 	.word	0x200007cc

1000039c <_Z13GetInputEventP10InputEnent>:
1000039c:	b570      	push	{r4, r5, r6, lr}
1000039e:	2800      	cmp	r0, #0
100003a0:	d018      	beq.n	100003d4 <_Z13GetInputEventP10InputEnent+0x38>
100003a2:	25f4      	movs	r5, #244	; 0xf4
100003a4:	23f0      	movs	r3, #240	; 0xf0
100003a6:	4c0d      	ldr	r4, [pc, #52]	; (100003dc <_Z13GetInputEventP10InputEnent+0x40>)
100003a8:	5962      	ldr	r2, [r4, r5]
100003aa:	58e3      	ldr	r3, [r4, r3]
100003ac:	429a      	cmp	r2, r3
100003ae:	d011      	beq.n	100003d4 <_Z13GetInputEventP10InputEnent+0x38>
100003b0:	5962      	ldr	r2, [r4, r5]
100003b2:	0053      	lsls	r3, r2, #1
100003b4:	189b      	adds	r3, r3, r2
100003b6:	0002      	movs	r2, r0
100003b8:	00db      	lsls	r3, r3, #3
100003ba:	18e3      	adds	r3, r4, r3
100003bc:	cb43      	ldmia	r3!, {r0, r1, r6}
100003be:	c243      	stmia	r2!, {r0, r1, r6}
100003c0:	cb43      	ldmia	r3!, {r0, r1, r6}
100003c2:	c243      	stmia	r2!, {r0, r1, r6}
100003c4:	5960      	ldr	r0, [r4, r5]
100003c6:	210a      	movs	r1, #10
100003c8:	3001      	adds	r0, #1
100003ca:	f004 fca7 	bl	10004d1c <__wrap___aeabi_uidiv>
100003ce:	2000      	movs	r0, #0
100003d0:	5161      	str	r1, [r4, r5]
100003d2:	bd70      	pop	{r4, r5, r6, pc}
100003d4:	2001      	movs	r0, #1
100003d6:	4240      	negs	r0, r0
100003d8:	e7fb      	b.n	100003d2 <_Z13GetInputEventP10InputEnent+0x36>
100003da:	46c0      	nop			; (mov r8, r8)
100003dc:	200007cc 	.word	0x200007cc

100003e0 <_Z19InputDeviceRegisterP11InputDevice>:
100003e0:	4b02      	ldr	r3, [pc, #8]	; (100003ec <_Z19InputDeviceRegisterP11InputDevice+0xc>)
100003e2:	681a      	ldr	r2, [r3, #0]
100003e4:	6018      	str	r0, [r3, #0]
100003e6:	60c2      	str	r2, [r0, #12]
100003e8:	4770      	bx	lr
100003ea:	46c0      	nop			; (mov r8, r8)
100003ec:	200008c4 	.word	0x200008c4

100003f0 <_Z16InitInputDevicesv>:
100003f0:	4b05      	ldr	r3, [pc, #20]	; (10000408 <_Z16InitInputDevicesv+0x18>)
100003f2:	b510      	push	{r4, lr}
100003f4:	681c      	ldr	r4, [r3, #0]
100003f6:	2c00      	cmp	r4, #0
100003f8:	d004      	beq.n	10000404 <_Z16InitInputDevicesv+0x14>
100003fa:	68a3      	ldr	r3, [r4, #8]
100003fc:	4798      	blx	r3
100003fe:	68e4      	ldr	r4, [r4, #12]
10000400:	2c00      	cmp	r4, #0
10000402:	d1fa      	bne.n	100003fa <_Z16InitInputDevicesv+0xa>
10000404:	bd10      	pop	{r4, pc}
10000406:	46c0      	nop			; (mov r8, r8)
10000408:	200008c4 	.word	0x200008c4

1000040c <_ZL15yfGetInputEventP10InputEnent>:
1000040c:	2000      	movs	r0, #0
1000040e:	4770      	bx	lr

10000410 <_ZL11GPIOKeyInitv>:
10000410:	b510      	push	{r4, lr}
10000412:	f000 f815 	bl	10000440 <_Z15HAL_GPIOKeyInitv>
10000416:	2000      	movs	r0, #0
10000418:	bd10      	pop	{r4, pc}
1000041a:	46c0      	nop			; (mov r8, r8)

1000041c <_Z21AddInputDeviceGpioKeyv>:
1000041c:	b510      	push	{r4, lr}
1000041e:	4802      	ldr	r0, [pc, #8]	; (10000428 <_Z21AddInputDeviceGpioKeyv+0xc>)
10000420:	f7ff ffde 	bl	100003e0 <_Z19InputDeviceRegisterP11InputDevice>
10000424:	bd10      	pop	{r4, pc}
10000426:	46c0      	nop			; (mov r8, r8)
10000428:	20000370 	.word	0x20000370

1000042c <_GLOBAL__sub_I_empty>:
1000042c:	4b02      	ldr	r3, [pc, #8]	; (10000438 <_GLOBAL__sub_I_empty+0xc>)
1000042e:	681a      	ldr	r2, [r3, #0]
10000430:	4b02      	ldr	r3, [pc, #8]	; (1000043c <_GLOBAL__sub_I_empty+0x10>)
10000432:	60da      	str	r2, [r3, #12]
10000434:	4770      	bx	lr
10000436:	46c0      	nop			; (mov r8, r8)
10000438:	2000120c 	.word	0x2000120c
1000043c:	20000370 	.word	0x20000370

10000440 <_Z15HAL_GPIOKeyInitv>:
10000440:	b510      	push	{r4, lr}
10000442:	f000 f80f 	bl	10000464 <_Z15picoKeyGpioInitv>
10000446:	bd10      	pop	{r4, pc}

10000448 <_Z17HAL_whichKeyPressv>:
10000448:	b510      	push	{r4, lr}
1000044a:	f000 f831 	bl	100004b0 <_Z13WhichKeyPressv>
1000044e:	bd10      	pop	{r4, pc}

10000450 <_Z23HAL_RGBMatrixDeviceInitv>:
10000450:	b510      	push	{r4, lr}
10000452:	f000 fa53 	bl	100008fc <_Z23picoRGBMatrixDeviceInitv>
10000456:	bd10      	pop	{r4, pc}

10000458 <_Z24HAL_RGBMatrixDeviceFlushP13DisplayDevice>:
10000458:	b510      	push	{r4, lr}
1000045a:	6840      	ldr	r0, [r0, #4]
1000045c:	f000 fb52 	bl	10000b04 <_Z20RGBMatrixDeviceFlushPh>
10000460:	bd10      	pop	{r4, pc}
10000462:	46c0      	nop			; (mov r8, r8)

10000464 <_Z15picoKeyGpioInitv>:
10000464:	b510      	push	{r4, lr}
10000466:	200f      	movs	r0, #15
10000468:	f002 fb20 	bl	10002aac <gpio_init>
1000046c:	2013      	movs	r0, #19
1000046e:	f002 fb1d 	bl	10002aac <gpio_init>
10000472:	2015      	movs	r0, #21
10000474:	f002 fb1a 	bl	10002aac <gpio_init>
10000478:	23d0      	movs	r3, #208	; 0xd0
1000047a:	2280      	movs	r2, #128	; 0x80
1000047c:	061b      	lsls	r3, r3, #24
1000047e:	0212      	lsls	r2, r2, #8
10000480:	629a      	str	r2, [r3, #40]	; 0x28
10000482:	2280      	movs	r2, #128	; 0x80
10000484:	0312      	lsls	r2, r2, #12
10000486:	629a      	str	r2, [r3, #40]	; 0x28
10000488:	2280      	movs	r2, #128	; 0x80
1000048a:	0392      	lsls	r2, r2, #14
1000048c:	629a      	str	r2, [r3, #40]	; 0x28
1000048e:	2101      	movs	r1, #1
10000490:	2200      	movs	r2, #0
10000492:	200f      	movs	r0, #15
10000494:	f002 fadc 	bl	10002a50 <gpio_set_pulls>
10000498:	2200      	movs	r2, #0
1000049a:	2101      	movs	r1, #1
1000049c:	2013      	movs	r0, #19
1000049e:	f002 fad7 	bl	10002a50 <gpio_set_pulls>
100004a2:	2200      	movs	r2, #0
100004a4:	2101      	movs	r1, #1
100004a6:	2015      	movs	r0, #21
100004a8:	f002 fad2 	bl	10002a50 <gpio_set_pulls>
100004ac:	bd10      	pop	{r4, pc}
100004ae:	46c0      	nop			; (mov r8, r8)

100004b0 <_Z13WhichKeyPressv>:
100004b0:	23d0      	movs	r3, #208	; 0xd0
100004b2:	b510      	push	{r4, lr}
100004b4:	061b      	lsls	r3, r3, #24
100004b6:	685a      	ldr	r2, [r3, #4]
100004b8:	4c2d      	ldr	r4, [pc, #180]	; (10000570 <_Z13WhichKeyPressv+0xc0>)
100004ba:	b086      	sub	sp, #24
100004bc:	6823      	ldr	r3, [r4, #0]
100004be:	0412      	lsls	r2, r2, #16
100004c0:	d42c      	bmi.n	1000051c <_Z13WhichKeyPressv+0x6c>
100004c2:	3301      	adds	r3, #1
100004c4:	6023      	str	r3, [r4, #0]
100004c6:	23d0      	movs	r3, #208	; 0xd0
100004c8:	061b      	lsls	r3, r3, #24
100004ca:	685a      	ldr	r2, [r3, #4]
100004cc:	4c29      	ldr	r4, [pc, #164]	; (10000574 <_Z13WhichKeyPressv+0xc4>)
100004ce:	6823      	ldr	r3, [r4, #0]
100004d0:	0312      	lsls	r2, r2, #12
100004d2:	d411      	bmi.n	100004f8 <_Z13WhichKeyPressv+0x48>
100004d4:	3301      	adds	r3, #1
100004d6:	6023      	str	r3, [r4, #0]
100004d8:	23d0      	movs	r3, #208	; 0xd0
100004da:	061b      	lsls	r3, r3, #24
100004dc:	685a      	ldr	r2, [r3, #4]
100004de:	4c26      	ldr	r4, [pc, #152]	; (10000578 <_Z13WhichKeyPressv+0xc8>)
100004e0:	6823      	ldr	r3, [r4, #0]
100004e2:	0292      	lsls	r2, r2, #10
100004e4:	d517      	bpl.n	10000516 <_Z13WhichKeyPressv+0x66>
100004e6:	001a      	movs	r2, r3
100004e8:	4924      	ldr	r1, [pc, #144]	; (1000057c <_Z13WhichKeyPressv+0xcc>)
100004ea:	3a15      	subs	r2, #21
100004ec:	428a      	cmp	r2, r1
100004ee:	d91e      	bls.n	1000052e <_Z13WhichKeyPressv+0x7e>
100004f0:	2300      	movs	r3, #0
100004f2:	6023      	str	r3, [r4, #0]
100004f4:	b006      	add	sp, #24
100004f6:	bd10      	pop	{r4, pc}
100004f8:	001a      	movs	r2, r3
100004fa:	21ef      	movs	r1, #239	; 0xef
100004fc:	3a15      	subs	r2, #21
100004fe:	0049      	lsls	r1, r1, #1
10000500:	428a      	cmp	r2, r1
10000502:	d91e      	bls.n	10000542 <_Z13WhichKeyPressv+0x92>
10000504:	2300      	movs	r3, #0
10000506:	6023      	str	r3, [r4, #0]
10000508:	23d0      	movs	r3, #208	; 0xd0
1000050a:	061b      	lsls	r3, r3, #24
1000050c:	685a      	ldr	r2, [r3, #4]
1000050e:	4c1a      	ldr	r4, [pc, #104]	; (10000578 <_Z13WhichKeyPressv+0xc8>)
10000510:	6823      	ldr	r3, [r4, #0]
10000512:	0292      	lsls	r2, r2, #10
10000514:	d4e7      	bmi.n	100004e6 <_Z13WhichKeyPressv+0x36>
10000516:	3301      	adds	r3, #1
10000518:	6023      	str	r3, [r4, #0]
1000051a:	e7eb      	b.n	100004f4 <_Z13WhichKeyPressv+0x44>
1000051c:	001a      	movs	r2, r3
1000051e:	21ef      	movs	r1, #239	; 0xef
10000520:	3a15      	subs	r2, #21
10000522:	0049      	lsls	r1, r1, #1
10000524:	428a      	cmp	r2, r1
10000526:	d918      	bls.n	1000055a <_Z13WhichKeyPressv+0xaa>
10000528:	2300      	movs	r3, #0
1000052a:	6023      	str	r3, [r4, #0]
1000052c:	e7cb      	b.n	100004c6 <_Z13WhichKeyPressv+0x16>
1000052e:	2200      	movs	r2, #0
10000530:	4669      	mov	r1, sp
10000532:	4668      	mov	r0, sp
10000534:	700a      	strb	r2, [r1, #0]
10000536:	3202      	adds	r2, #2
10000538:	9201      	str	r2, [sp, #4]
1000053a:	9302      	str	r3, [sp, #8]
1000053c:	f7ff ff0e 	bl	1000035c <_Z13PutInputEventP10InputEnent>
10000540:	e7d6      	b.n	100004f0 <_Z13WhichKeyPressv+0x40>
10000542:	2200      	movs	r2, #0
10000544:	4669      	mov	r1, sp
10000546:	4668      	mov	r0, sp
10000548:	700a      	strb	r2, [r1, #0]
1000054a:	3201      	adds	r2, #1
1000054c:	9302      	str	r3, [sp, #8]
1000054e:	9201      	str	r2, [sp, #4]
10000550:	f7ff ff04 	bl	1000035c <_Z13PutInputEventP10InputEnent>
10000554:	2300      	movs	r3, #0
10000556:	6023      	str	r3, [r4, #0]
10000558:	e7d6      	b.n	10000508 <_Z13WhichKeyPressv+0x58>
1000055a:	2200      	movs	r2, #0
1000055c:	4669      	mov	r1, sp
1000055e:	4668      	mov	r0, sp
10000560:	9302      	str	r3, [sp, #8]
10000562:	700a      	strb	r2, [r1, #0]
10000564:	9201      	str	r2, [sp, #4]
10000566:	f7ff fef9 	bl	1000035c <_Z13PutInputEventP10InputEnent>
1000056a:	2300      	movs	r3, #0
1000056c:	6023      	str	r3, [r4, #0]
1000056e:	e7aa      	b.n	100004c6 <_Z13WhichKeyPressv+0x16>
10000570:	20001634 	.word	0x20001634
10000574:	20001204 	.word	0x20001204
10000578:	20001678 	.word	0x20001678
1000057c:	00000f8a 	.word	0x00000f8a

10000580 <_Z10buzzerInitv>:
10000580:	b510      	push	{r4, lr}
10000582:	201b      	movs	r0, #27
10000584:	f002 fa92 	bl	10002aac <gpio_init>
10000588:	23d0      	movs	r3, #208	; 0xd0
1000058a:	2280      	movs	r2, #128	; 0x80
1000058c:	061b      	lsls	r3, r3, #24
1000058e:	0512      	lsls	r2, r2, #20
10000590:	625a      	str	r2, [r3, #36]	; 0x24
10000592:	619a      	str	r2, [r3, #24]
10000594:	bd10      	pop	{r4, pc}
10000596:	46c0      	nop			; (mov r8, r8)

10000598 <_Z10InitDs3231v>:
10000598:	b570      	push	{r4, r5, r6, lr}
1000059a:	2600      	movs	r6, #0
1000059c:	4d16      	ldr	r5, [pc, #88]	; (100005f8 <_Z10InitDs3231v+0x60>)
1000059e:	b084      	sub	sp, #16
100005a0:	4916      	ldr	r1, [pc, #88]	; (100005fc <_Z10InitDs3231v+0x64>)
100005a2:	0028      	movs	r0, r5
100005a4:	f007 fba4 	bl	10007cf0 <i2c_init>
100005a8:	2103      	movs	r1, #3
100005aa:	2006      	movs	r0, #6
100005ac:	f002 fa38 	bl	10002a20 <gpio_set_function>
100005b0:	2103      	movs	r1, #3
100005b2:	2007      	movs	r0, #7
100005b4:	f002 fa34 	bl	10002a20 <gpio_set_function>
100005b8:	2200      	movs	r2, #0
100005ba:	2101      	movs	r1, #1
100005bc:	2006      	movs	r0, #6
100005be:	f002 fa47 	bl	10002a50 <gpio_set_pulls>
100005c2:	2200      	movs	r2, #0
100005c4:	2101      	movs	r1, #1
100005c6:	2007      	movs	r0, #7
100005c8:	f002 fa42 	bl	10002a50 <gpio_set_pulls>
100005cc:	4b0c      	ldr	r3, [pc, #48]	; (10000600 <_Z10InitDs3231v+0x68>)
100005ce:	ac03      	add	r4, sp, #12
100005d0:	8023      	strh	r3, [r4, #0]
100005d2:	0022      	movs	r2, r4
100005d4:	9600      	str	r6, [sp, #0]
100005d6:	2302      	movs	r3, #2
100005d8:	2168      	movs	r1, #104	; 0x68
100005da:	0028      	movs	r0, r5
100005dc:	f007 fc0c 	bl	10007df8 <i2c_write_blocking>
100005e0:	230f      	movs	r3, #15
100005e2:	0022      	movs	r2, r4
100005e4:	8023      	strh	r3, [r4, #0]
100005e6:	2168      	movs	r1, #104	; 0x68
100005e8:	9600      	str	r6, [sp, #0]
100005ea:	3b0d      	subs	r3, #13
100005ec:	0028      	movs	r0, r5
100005ee:	f007 fc03 	bl	10007df8 <i2c_write_blocking>
100005f2:	b004      	add	sp, #16
100005f4:	bd70      	pop	{r4, r5, r6, pc}
100005f6:	46c0      	nop			; (mov r8, r8)
100005f8:	2000062c 	.word	0x2000062c
100005fc:	00061a80 	.word	0x00061a80
10000600:	0000200e 	.word	0x0000200e

10000604 <_Z15ds3231_get_timeP6RTC_tm>:
10000604:	220f      	movs	r2, #15
10000606:	b5f0      	push	{r4, r5, r6, r7, lr}
10000608:	2301      	movs	r3, #1
1000060a:	2700      	movs	r7, #0
1000060c:	b087      	sub	sp, #28
1000060e:	4e32      	ldr	r6, [pc, #200]	; (100006d8 <_Z15ds3231_get_timeP6RTC_tm+0xd4>)
10000610:	446a      	add	r2, sp
10000612:	ad04      	add	r5, sp, #16
10000614:	0004      	movs	r4, r0
10000616:	7017      	strb	r7, [r2, #0]
10000618:	2168      	movs	r1, #104	; 0x68
1000061a:	9300      	str	r3, [sp, #0]
1000061c:	0030      	movs	r0, r6
1000061e:	f007 fbeb 	bl	10007df8 <i2c_write_blocking>
10000622:	2307      	movs	r3, #7
10000624:	002a      	movs	r2, r5
10000626:	2168      	movs	r1, #104	; 0x68
10000628:	9700      	str	r7, [sp, #0]
1000062a:	0030      	movs	r0, r6
1000062c:	f007 fc52 	bl	10007ed4 <i2c_read_blocking>
10000630:	7829      	ldrb	r1, [r5, #0]
10000632:	110b      	asrs	r3, r1, #4
10000634:	009a      	lsls	r2, r3, #2
10000636:	189b      	adds	r3, r3, r2
10000638:	220f      	movs	r2, #15
1000063a:	005b      	lsls	r3, r3, #1
1000063c:	4011      	ands	r1, r2
1000063e:	185b      	adds	r3, r3, r1
10000640:	7869      	ldrb	r1, [r5, #1]
10000642:	7023      	strb	r3, [r4, #0]
10000644:	110b      	asrs	r3, r1, #4
10000646:	0098      	lsls	r0, r3, #2
10000648:	181b      	adds	r3, r3, r0
1000064a:	005b      	lsls	r3, r3, #1
1000064c:	4011      	ands	r1, r2
1000064e:	78a8      	ldrb	r0, [r5, #2]
10000650:	185b      	adds	r3, r3, r1
10000652:	7063      	strb	r3, [r4, #1]
10000654:	0643      	lsls	r3, r0, #25
10000656:	d50c      	bpl.n	10000672 <_Z15ds3231_get_timeP6RTC_tm+0x6e>
10000658:	06c3      	lsls	r3, r0, #27
1000065a:	0fdb      	lsrs	r3, r3, #31
1000065c:	0099      	lsls	r1, r3, #2
1000065e:	185b      	adds	r3, r3, r1
10000660:	005b      	lsls	r3, r3, #1
10000662:	4002      	ands	r2, r0
10000664:	189b      	adds	r3, r3, r2
10000666:	b2db      	uxtb	r3, r3
10000668:	0682      	lsls	r2, r0, #26
1000066a:	d532      	bpl.n	100006d2 <_Z15ds3231_get_timeP6RTC_tm+0xce>
1000066c:	330b      	adds	r3, #11
1000066e:	70a3      	strb	r3, [r4, #2]
10000670:	e006      	b.n	10000680 <_Z15ds3231_get_timeP6RTC_tm+0x7c>
10000672:	1101      	asrs	r1, r0, #4
10000674:	008b      	lsls	r3, r1, #2
10000676:	18c9      	adds	r1, r1, r3
10000678:	0049      	lsls	r1, r1, #1
1000067a:	4002      	ands	r2, r0
1000067c:	188a      	adds	r2, r1, r2
1000067e:	70a2      	strb	r2, [r4, #2]
10000680:	78ea      	ldrb	r2, [r5, #3]
10000682:	1113      	asrs	r3, r2, #4
10000684:	0099      	lsls	r1, r3, #2
10000686:	185b      	adds	r3, r3, r1
10000688:	210f      	movs	r1, #15
1000068a:	005b      	lsls	r3, r3, #1
1000068c:	400a      	ands	r2, r1
1000068e:	189b      	adds	r3, r3, r2
10000690:	70e3      	strb	r3, [r4, #3]
10000692:	792b      	ldrb	r3, [r5, #4]
10000694:	111a      	asrs	r2, r3, #4
10000696:	0090      	lsls	r0, r2, #2
10000698:	1812      	adds	r2, r2, r0
1000069a:	400b      	ands	r3, r1
1000069c:	0052      	lsls	r2, r2, #1
1000069e:	18d2      	adds	r2, r2, r3
100006a0:	796b      	ldrb	r3, [r5, #5]
100006a2:	7122      	strb	r2, [r4, #4]
100006a4:	06da      	lsls	r2, r3, #27
100006a6:	0fd2      	lsrs	r2, r2, #31
100006a8:	0090      	lsls	r0, r2, #2
100006aa:	1812      	adds	r2, r2, r0
100006ac:	400b      	ands	r3, r1
100006ae:	0052      	lsls	r2, r2, #1
100006b0:	18d2      	adds	r2, r2, r3
100006b2:	7162      	strb	r2, [r4, #5]
100006b4:	79aa      	ldrb	r2, [r5, #6]
100006b6:	1113      	asrs	r3, r2, #4
100006b8:	4011      	ands	r1, r2
100006ba:	22fa      	movs	r2, #250	; 0xfa
100006bc:	00d2      	lsls	r2, r2, #3
100006be:	4694      	mov	ip, r2
100006c0:	0098      	lsls	r0, r3, #2
100006c2:	181b      	adds	r3, r3, r0
100006c4:	005b      	lsls	r3, r3, #1
100006c6:	185b      	adds	r3, r3, r1
100006c8:	b2db      	uxtb	r3, r3
100006ca:	4463      	add	r3, ip
100006cc:	80e3      	strh	r3, [r4, #6]
100006ce:	b007      	add	sp, #28
100006d0:	bdf0      	pop	{r4, r5, r6, r7, pc}
100006d2:	3b01      	subs	r3, #1
100006d4:	70a3      	strb	r3, [r4, #2]
100006d6:	e7d3      	b.n	10000680 <_Z15ds3231_get_timeP6RTC_tm+0x7c>
100006d8:	2000062c 	.word	0x2000062c

100006dc <_Z23ds3231_get_temp_integerPh>:
100006dc:	b5f0      	push	{r4, r5, r6, r7, lr}
100006de:	250a      	movs	r5, #10
100006e0:	2311      	movs	r3, #17
100006e2:	2600      	movs	r6, #0
100006e4:	b085      	sub	sp, #20
100006e6:	446d      	add	r5, sp
100006e8:	702b      	strb	r3, [r5, #0]
100006ea:	4b10      	ldr	r3, [pc, #64]	; (1000072c <_Z23ds3231_get_temp_integerPh+0x50>)
100006ec:	4c10      	ldr	r4, [pc, #64]	; (10000730 <_Z23ds3231_get_temp_integerPh+0x54>)
100006ee:	881b      	ldrh	r3, [r3, #0]
100006f0:	aa03      	add	r2, sp, #12
100006f2:	8013      	strh	r3, [r2, #0]
100006f4:	0007      	movs	r7, r0
100006f6:	9600      	str	r6, [sp, #0]
100006f8:	2302      	movs	r3, #2
100006fa:	2168      	movs	r1, #104	; 0x68
100006fc:	0020      	movs	r0, r4
100006fe:	f007 fb7b 	bl	10007df8 <i2c_write_blocking>
10000702:	2301      	movs	r3, #1
10000704:	002a      	movs	r2, r5
10000706:	250b      	movs	r5, #11
10000708:	9300      	str	r3, [sp, #0]
1000070a:	446d      	add	r5, sp
1000070c:	2168      	movs	r1, #104	; 0x68
1000070e:	0020      	movs	r0, r4
10000710:	f007 fb72 	bl	10007df8 <i2c_write_blocking>
10000714:	9600      	str	r6, [sp, #0]
10000716:	2301      	movs	r3, #1
10000718:	002a      	movs	r2, r5
1000071a:	2168      	movs	r1, #104	; 0x68
1000071c:	0020      	movs	r0, r4
1000071e:	f007 fbd9 	bl	10007ed4 <i2c_read_blocking>
10000722:	782b      	ldrb	r3, [r5, #0]
10000724:	703b      	strb	r3, [r7, #0]
10000726:	b005      	add	sp, #20
10000728:	bdf0      	pop	{r4, r5, r6, r7, pc}
1000072a:	46c0      	nop			; (mov r8, r8)
1000072c:	1000807c 	.word	0x1000807c
10000730:	2000062c 	.word	0x2000062c

10000734 <_Z14ds3231_set_sech>:
10000734:	b5f0      	push	{r4, r5, r6, r7, lr}
10000736:	2600      	movs	r6, #0
10000738:	b085      	sub	sp, #20
1000073a:	ad03      	add	r5, sp, #12
1000073c:	210a      	movs	r1, #10
1000073e:	0007      	movs	r7, r0
10000740:	702e      	strb	r6, [r5, #0]
10000742:	f004 faeb 	bl	10004d1c <__wrap___aeabi_uidiv>
10000746:	210a      	movs	r1, #10
10000748:	0104      	lsls	r4, r0, #4
1000074a:	0038      	movs	r0, r7
1000074c:	f004 fae6 	bl	10004d1c <__wrap___aeabi_uidiv>
10000750:	1864      	adds	r4, r4, r1
10000752:	706c      	strb	r4, [r5, #1]
10000754:	2302      	movs	r3, #2
10000756:	9600      	str	r6, [sp, #0]
10000758:	002a      	movs	r2, r5
1000075a:	2168      	movs	r1, #104	; 0x68
1000075c:	4802      	ldr	r0, [pc, #8]	; (10000768 <_Z14ds3231_set_sech+0x34>)
1000075e:	f007 fb4b 	bl	10007df8 <i2c_write_blocking>
10000762:	b005      	add	sp, #20
10000764:	bdf0      	pop	{r4, r5, r6, r7, pc}
10000766:	46c0      	nop			; (mov r8, r8)
10000768:	2000062c 	.word	0x2000062c

1000076c <_Z14ds3231_set_minh>:
1000076c:	2301      	movs	r3, #1
1000076e:	b570      	push	{r4, r5, r6, lr}
10000770:	b084      	sub	sp, #16
10000772:	ad03      	add	r5, sp, #12
10000774:	210a      	movs	r1, #10
10000776:	702b      	strb	r3, [r5, #0]
10000778:	0006      	movs	r6, r0
1000077a:	f004 facf 	bl	10004d1c <__wrap___aeabi_uidiv>
1000077e:	210a      	movs	r1, #10
10000780:	0104      	lsls	r4, r0, #4
10000782:	0030      	movs	r0, r6
10000784:	f004 faca 	bl	10004d1c <__wrap___aeabi_uidiv>
10000788:	2300      	movs	r3, #0
1000078a:	1864      	adds	r4, r4, r1
1000078c:	706c      	strb	r4, [r5, #1]
1000078e:	002a      	movs	r2, r5
10000790:	9300      	str	r3, [sp, #0]
10000792:	2168      	movs	r1, #104	; 0x68
10000794:	3302      	adds	r3, #2
10000796:	4802      	ldr	r0, [pc, #8]	; (100007a0 <_Z14ds3231_set_minh+0x34>)
10000798:	f007 fb2e 	bl	10007df8 <i2c_write_blocking>
1000079c:	b004      	add	sp, #16
1000079e:	bd70      	pop	{r4, r5, r6, pc}
100007a0:	2000062c 	.word	0x2000062c

100007a4 <_Z15ds3231_set_hourh>:
100007a4:	2302      	movs	r3, #2
100007a6:	b570      	push	{r4, r5, r6, lr}
100007a8:	b084      	sub	sp, #16
100007aa:	ad03      	add	r5, sp, #12
100007ac:	210a      	movs	r1, #10
100007ae:	702b      	strb	r3, [r5, #0]
100007b0:	0006      	movs	r6, r0
100007b2:	f004 fab3 	bl	10004d1c <__wrap___aeabi_uidiv>
100007b6:	210a      	movs	r1, #10
100007b8:	0104      	lsls	r4, r0, #4
100007ba:	0030      	movs	r0, r6
100007bc:	f004 faae 	bl	10004d1c <__wrap___aeabi_uidiv>
100007c0:	2300      	movs	r3, #0
100007c2:	1864      	adds	r4, r4, r1
100007c4:	706c      	strb	r4, [r5, #1]
100007c6:	002a      	movs	r2, r5
100007c8:	9300      	str	r3, [sp, #0]
100007ca:	2168      	movs	r1, #104	; 0x68
100007cc:	3302      	adds	r3, #2
100007ce:	4802      	ldr	r0, [pc, #8]	; (100007d8 <_Z15ds3231_set_hourh+0x34>)
100007d0:	f007 fb12 	bl	10007df8 <i2c_write_blocking>
100007d4:	b004      	add	sp, #16
100007d6:	bd70      	pop	{r4, r5, r6, pc}
100007d8:	2000062c 	.word	0x2000062c

100007dc <_Z15ds3231_set_wdayh>:
100007dc:	2303      	movs	r3, #3
100007de:	b570      	push	{r4, r5, r6, lr}
100007e0:	b084      	sub	sp, #16
100007e2:	ad03      	add	r5, sp, #12
100007e4:	210a      	movs	r1, #10
100007e6:	702b      	strb	r3, [r5, #0]
100007e8:	0006      	movs	r6, r0
100007ea:	f004 fa97 	bl	10004d1c <__wrap___aeabi_uidiv>
100007ee:	210a      	movs	r1, #10
100007f0:	0104      	lsls	r4, r0, #4
100007f2:	0030      	movs	r0, r6
100007f4:	f004 fa92 	bl	10004d1c <__wrap___aeabi_uidiv>
100007f8:	2300      	movs	r3, #0
100007fa:	1864      	adds	r4, r4, r1
100007fc:	706c      	strb	r4, [r5, #1]
100007fe:	002a      	movs	r2, r5
10000800:	9300      	str	r3, [sp, #0]
10000802:	2168      	movs	r1, #104	; 0x68
10000804:	3302      	adds	r3, #2
10000806:	4802      	ldr	r0, [pc, #8]	; (10000810 <_Z15ds3231_set_wdayh+0x34>)
10000808:	f007 faf6 	bl	10007df8 <i2c_write_blocking>
1000080c:	b004      	add	sp, #16
1000080e:	bd70      	pop	{r4, r5, r6, pc}
10000810:	2000062c 	.word	0x2000062c

10000814 <_Z15ds3231_set_mdayh>:
10000814:	2304      	movs	r3, #4
10000816:	b570      	push	{r4, r5, r6, lr}
10000818:	b084      	sub	sp, #16
1000081a:	ad03      	add	r5, sp, #12
1000081c:	210a      	movs	r1, #10
1000081e:	702b      	strb	r3, [r5, #0]
10000820:	0006      	movs	r6, r0
10000822:	f004 fa7b 	bl	10004d1c <__wrap___aeabi_uidiv>
10000826:	210a      	movs	r1, #10
10000828:	0104      	lsls	r4, r0, #4
1000082a:	0030      	movs	r0, r6
1000082c:	f004 fa76 	bl	10004d1c <__wrap___aeabi_uidiv>
10000830:	2300      	movs	r3, #0
10000832:	1864      	adds	r4, r4, r1
10000834:	706c      	strb	r4, [r5, #1]
10000836:	002a      	movs	r2, r5
10000838:	9300      	str	r3, [sp, #0]
1000083a:	2168      	movs	r1, #104	; 0x68
1000083c:	3302      	adds	r3, #2
1000083e:	4802      	ldr	r0, [pc, #8]	; (10000848 <_Z15ds3231_set_mdayh+0x34>)
10000840:	f007 fada 	bl	10007df8 <i2c_write_blocking>
10000844:	b004      	add	sp, #16
10000846:	bd70      	pop	{r4, r5, r6, pc}
10000848:	2000062c 	.word	0x2000062c

1000084c <_Z14ds3231_set_monh>:
1000084c:	2305      	movs	r3, #5
1000084e:	b570      	push	{r4, r5, r6, lr}
10000850:	b084      	sub	sp, #16
10000852:	ad03      	add	r5, sp, #12
10000854:	210a      	movs	r1, #10
10000856:	702b      	strb	r3, [r5, #0]
10000858:	0006      	movs	r6, r0
1000085a:	f004 fa5f 	bl	10004d1c <__wrap___aeabi_uidiv>
1000085e:	210a      	movs	r1, #10
10000860:	0104      	lsls	r4, r0, #4
10000862:	0030      	movs	r0, r6
10000864:	f004 fa5a 	bl	10004d1c <__wrap___aeabi_uidiv>
10000868:	2300      	movs	r3, #0
1000086a:	1864      	adds	r4, r4, r1
1000086c:	706c      	strb	r4, [r5, #1]
1000086e:	002a      	movs	r2, r5
10000870:	9300      	str	r3, [sp, #0]
10000872:	2168      	movs	r1, #104	; 0x68
10000874:	3302      	adds	r3, #2
10000876:	4802      	ldr	r0, [pc, #8]	; (10000880 <_Z14ds3231_set_monh+0x34>)
10000878:	f007 fabe 	bl	10007df8 <i2c_write_blocking>
1000087c:	b004      	add	sp, #16
1000087e:	bd70      	pop	{r4, r5, r6, pc}
10000880:	2000062c 	.word	0x2000062c

10000884 <_Z15ds3231_set_yeart>:
10000884:	2306      	movs	r3, #6
10000886:	b570      	push	{r4, r5, r6, lr}
10000888:	3030      	adds	r0, #48	; 0x30
1000088a:	b084      	sub	sp, #16
1000088c:	b2c4      	uxtb	r4, r0
1000088e:	ad03      	add	r5, sp, #12
10000890:	210a      	movs	r1, #10
10000892:	0020      	movs	r0, r4
10000894:	702b      	strb	r3, [r5, #0]
10000896:	f004 fa41 	bl	10004d1c <__wrap___aeabi_uidiv>
1000089a:	210a      	movs	r1, #10
1000089c:	0106      	lsls	r6, r0, #4
1000089e:	0020      	movs	r0, r4
100008a0:	f004 fa3c 	bl	10004d1c <__wrap___aeabi_uidiv>
100008a4:	2300      	movs	r3, #0
100008a6:	1876      	adds	r6, r6, r1
100008a8:	706e      	strb	r6, [r5, #1]
100008aa:	002a      	movs	r2, r5
100008ac:	9300      	str	r3, [sp, #0]
100008ae:	2168      	movs	r1, #104	; 0x68
100008b0:	3302      	adds	r3, #2
100008b2:	4802      	ldr	r0, [pc, #8]	; (100008bc <_Z15ds3231_set_yeart+0x38>)
100008b4:	f007 faa0 	bl	10007df8 <i2c_write_blocking>
100008b8:	b004      	add	sp, #16
100008ba:	bd70      	pop	{r4, r5, r6, pc}
100008bc:	2000062c 	.word	0x2000062c

100008c0 <_Z8adc_Initv>:
100008c0:	b510      	push	{r4, lr}
100008c2:	f004 fc39 	bl	10005138 <stdio_init_all>
100008c6:	f007 fb51 	bl	10007f6c <adc_init>
100008ca:	211f      	movs	r1, #31
100008cc:	201a      	movs	r0, #26
100008ce:	f002 f8a7 	bl	10002a20 <gpio_set_function>
100008d2:	2200      	movs	r2, #0
100008d4:	2100      	movs	r1, #0
100008d6:	201a      	movs	r0, #26
100008d8:	f002 f8ba 	bl	10002a50 <gpio_set_pulls>
100008dc:	2100      	movs	r1, #0
100008de:	201a      	movs	r0, #26
100008e0:	f002 f8d0 	bl	10002a84 <gpio_set_input_enabled>
100008e4:	22e0      	movs	r2, #224	; 0xe0
100008e6:	4b03      	ldr	r3, [pc, #12]	; (100008f4 <_Z8adc_Initv+0x34>)
100008e8:	01d2      	lsls	r2, r2, #7
100008ea:	681b      	ldr	r3, [r3, #0]
100008ec:	4013      	ands	r3, r2
100008ee:	4a02      	ldr	r2, [pc, #8]	; (100008f8 <_Z8adc_Initv+0x38>)
100008f0:	6013      	str	r3, [r2, #0]
100008f2:	bd10      	pop	{r4, pc}
100008f4:	4004c000 	.word	0x4004c000
100008f8:	4004d000 	.word	0x4004d000

100008fc <_Z23picoRGBMatrixDeviceInitv>:
100008fc:	b5f0      	push	{r4, r5, r6, r7, lr}
100008fe:	46de      	mov	lr, fp
10000900:	464e      	mov	r6, r9
10000902:	4645      	mov	r5, r8
10000904:	4657      	mov	r7, sl
10000906:	b5e0      	push	{r5, r6, r7, lr}
10000908:	2002      	movs	r0, #2
1000090a:	b0a1      	sub	sp, #132	; 0x84
1000090c:	f002 f8ce 	bl	10002aac <gpio_init>
10000910:	2003      	movs	r0, #3
10000912:	f002 f8cb 	bl	10002aac <gpio_init>
10000916:	2004      	movs	r0, #4
10000918:	f002 f8c8 	bl	10002aac <gpio_init>
1000091c:	2005      	movs	r0, #5
1000091e:	f002 f8c5 	bl	10002aac <gpio_init>
10000922:	2008      	movs	r0, #8
10000924:	f002 f8c2 	bl	10002aac <gpio_init>
10000928:	2009      	movs	r0, #9
1000092a:	f002 f8bf 	bl	10002aac <gpio_init>
1000092e:	200a      	movs	r0, #10
10000930:	f002 f8bc 	bl	10002aac <gpio_init>
10000934:	2010      	movs	r0, #16
10000936:	f002 f8b9 	bl	10002aac <gpio_init>
1000093a:	2012      	movs	r0, #18
1000093c:	f002 f8b6 	bl	10002aac <gpio_init>
10000940:	2014      	movs	r0, #20
10000942:	f002 f8b3 	bl	10002aac <gpio_init>
10000946:	2016      	movs	r0, #22
10000948:	f002 f8b0 	bl	10002aac <gpio_init>
1000094c:	200b      	movs	r0, #11
1000094e:	f002 f8ad 	bl	10002aac <gpio_init>
10000952:	200c      	movs	r0, #12
10000954:	f002 f8aa 	bl	10002aac <gpio_init>
10000958:	24d0      	movs	r4, #208	; 0xd0
1000095a:	200d      	movs	r0, #13
1000095c:	f002 f8a6 	bl	10002aac <gpio_init>
10000960:	2304      	movs	r3, #4
10000962:	0624      	lsls	r4, r4, #24
10000964:	6263      	str	r3, [r4, #36]	; 0x24
10000966:	3304      	adds	r3, #4
10000968:	6263      	str	r3, [r4, #36]	; 0x24
1000096a:	3308      	adds	r3, #8
1000096c:	6263      	str	r3, [r4, #36]	; 0x24
1000096e:	3310      	adds	r3, #16
10000970:	6263      	str	r3, [r4, #36]	; 0x24
10000972:	33e0      	adds	r3, #224	; 0xe0
10000974:	6263      	str	r3, [r4, #36]	; 0x24
10000976:	3301      	adds	r3, #1
10000978:	33ff      	adds	r3, #255	; 0xff
1000097a:	6263      	str	r3, [r4, #36]	; 0x24
1000097c:	2380      	movs	r3, #128	; 0x80
1000097e:	00db      	lsls	r3, r3, #3
10000980:	6263      	str	r3, [r4, #36]	; 0x24
10000982:	2380      	movs	r3, #128	; 0x80
10000984:	025b      	lsls	r3, r3, #9
10000986:	6263      	str	r3, [r4, #36]	; 0x24
10000988:	2380      	movs	r3, #128	; 0x80
1000098a:	02db      	lsls	r3, r3, #11
1000098c:	6263      	str	r3, [r4, #36]	; 0x24
1000098e:	2380      	movs	r3, #128	; 0x80
10000990:	035b      	lsls	r3, r3, #13
10000992:	6263      	str	r3, [r4, #36]	; 0x24
10000994:	2380      	movs	r3, #128	; 0x80
10000996:	03db      	lsls	r3, r3, #15
10000998:	6263      	str	r3, [r4, #36]	; 0x24
1000099a:	2280      	movs	r2, #128	; 0x80
1000099c:	2380      	movs	r3, #128	; 0x80
1000099e:	2180      	movs	r1, #128	; 0x80
100009a0:	011b      	lsls	r3, r3, #4
100009a2:	0152      	lsls	r2, r2, #5
100009a4:	0189      	lsls	r1, r1, #6
100009a6:	6263      	str	r3, [r4, #36]	; 0x24
100009a8:	4668      	mov	r0, sp
100009aa:	6262      	str	r2, [r4, #36]	; 0x24
100009ac:	6261      	str	r1, [r4, #36]	; 0x24
100009ae:	6161      	str	r1, [r4, #20]
100009b0:	61a2      	str	r2, [r4, #24]
100009b2:	4953      	ldr	r1, [pc, #332]	; (10000b00 <_Z23picoRGBMatrixDeviceInitv+0x204>)
100009b4:	61a3      	str	r3, [r4, #24]
100009b6:	2240      	movs	r2, #64	; 0x40
100009b8:	f004 fa8e 	bl	10004ed8 <__wrap___aeabi_memcpy>
100009bc:	2240      	movs	r2, #64	; 0x40
100009be:	2100      	movs	r1, #0
100009c0:	a810      	add	r0, sp, #64	; 0x40
100009c2:	f004 fa83 	bl	10004ecc <__wrap_memset>
100009c6:	2301      	movs	r3, #1
100009c8:	9319      	str	r3, [sp, #100]	; 0x64
100009ca:	3303      	adds	r3, #3
100009cc:	2600      	movs	r6, #0
100009ce:	4698      	mov	r8, r3
100009d0:	469b      	mov	fp, r3
100009d2:	e00b      	b.n	100009ec <_Z23picoRGBMatrixDeviceInitv+0xf0>
100009d4:	2380      	movs	r3, #128	; 0x80
100009d6:	2780      	movs	r7, #128	; 0x80
100009d8:	015b      	lsls	r3, r3, #5
100009da:	013f      	lsls	r7, r7, #4
100009dc:	61a3      	str	r3, [r4, #24]
100009de:	2002      	movs	r0, #2
100009e0:	6167      	str	r7, [r4, #20]
100009e2:	2100      	movs	r1, #0
100009e4:	f003 f88e 	bl	10003b04 <sleep_us>
100009e8:	3601      	adds	r6, #1
100009ea:	61a7      	str	r7, [r4, #24]
100009ec:	465b      	mov	r3, fp
100009ee:	2180      	movs	r1, #128	; 0x80
100009f0:	61a3      	str	r3, [r4, #24]
100009f2:	2380      	movs	r3, #128	; 0x80
100009f4:	2508      	movs	r5, #8
100009f6:	2710      	movs	r7, #16
100009f8:	2020      	movs	r0, #32
100009fa:	466a      	mov	r2, sp
100009fc:	009b      	lsls	r3, r3, #2
100009fe:	0049      	lsls	r1, r1, #1
10000a00:	61a5      	str	r5, [r4, #24]
10000a02:	469c      	mov	ip, r3
10000a04:	61a7      	str	r7, [r4, #24]
10000a06:	61a0      	str	r0, [r4, #24]
10000a08:	61a1      	str	r1, [r4, #24]
10000a0a:	61a3      	str	r3, [r4, #24]
10000a0c:	3bf2      	subs	r3, #242	; 0xf2
10000a0e:	3bff      	subs	r3, #255	; 0xff
10000a10:	4033      	ands	r3, r6
10000a12:	009b      	lsls	r3, r3, #2
10000a14:	58d3      	ldr	r3, [r2, r3]
10000a16:	2b01      	cmp	r3, #1
10000a18:	d107      	bne.n	10000a2a <_Z23picoRGBMatrixDeviceInitv+0x12e>
10000a1a:	4643      	mov	r3, r8
10000a1c:	6163      	str	r3, [r4, #20]
10000a1e:	4663      	mov	r3, ip
10000a20:	6165      	str	r5, [r4, #20]
10000a22:	6167      	str	r7, [r4, #20]
10000a24:	6160      	str	r0, [r4, #20]
10000a26:	6161      	str	r1, [r4, #20]
10000a28:	6163      	str	r3, [r4, #20]
10000a2a:	2e34      	cmp	r6, #52	; 0x34
10000a2c:	ddd2      	ble.n	100009d4 <_Z23picoRGBMatrixDeviceInitv+0xd8>
10000a2e:	2380      	movs	r3, #128	; 0x80
10000a30:	015b      	lsls	r3, r3, #5
10000a32:	6163      	str	r3, [r4, #20]
10000a34:	469a      	mov	sl, r3
10000a36:	2380      	movs	r3, #128	; 0x80
10000a38:	011b      	lsls	r3, r3, #4
10000a3a:	4699      	mov	r9, r3
10000a3c:	6163      	str	r3, [r4, #20]
10000a3e:	2002      	movs	r0, #2
10000a40:	2100      	movs	r1, #0
10000a42:	f003 f85f 	bl	10003b04 <sleep_us>
10000a46:	464b      	mov	r3, r9
10000a48:	3601      	adds	r6, #1
10000a4a:	61a3      	str	r3, [r4, #24]
10000a4c:	2e40      	cmp	r6, #64	; 0x40
10000a4e:	d1cd      	bne.n	100009ec <_Z23picoRGBMatrixDeviceInitv+0xf0>
10000a50:	4653      	mov	r3, sl
10000a52:	61a3      	str	r3, [r4, #24]
10000a54:	464b      	mov	r3, r9
10000a56:	61a3      	str	r3, [r4, #24]
10000a58:	2300      	movs	r3, #0
10000a5a:	24d0      	movs	r4, #208	; 0xd0
10000a5c:	4699      	mov	r9, r3
10000a5e:	3304      	adds	r3, #4
10000a60:	2600      	movs	r6, #0
10000a62:	0624      	lsls	r4, r4, #24
10000a64:	4698      	mov	r8, r3
10000a66:	469b      	mov	fp, r3
10000a68:	e013      	b.n	10000a92 <_Z23picoRGBMatrixDeviceInitv+0x196>
10000a6a:	2380      	movs	r3, #128	; 0x80
10000a6c:	2780      	movs	r7, #128	; 0x80
10000a6e:	015b      	lsls	r3, r3, #5
10000a70:	013f      	lsls	r7, r7, #4
10000a72:	61a3      	str	r3, [r4, #24]
10000a74:	2002      	movs	r0, #2
10000a76:	6167      	str	r7, [r4, #20]
10000a78:	2100      	movs	r1, #0
10000a7a:	f003 f843 	bl	10003b04 <sleep_us>
10000a7e:	3601      	adds	r6, #1
10000a80:	61a7      	str	r7, [r4, #24]
10000a82:	230f      	movs	r3, #15
10000a84:	466a      	mov	r2, sp
10000a86:	2140      	movs	r1, #64	; 0x40
10000a88:	4033      	ands	r3, r6
10000a8a:	009b      	lsls	r3, r3, #2
10000a8c:	1852      	adds	r2, r2, r1
10000a8e:	58d3      	ldr	r3, [r2, r3]
10000a90:	4699      	mov	r9, r3
10000a92:	465b      	mov	r3, fp
10000a94:	2280      	movs	r2, #128	; 0x80
10000a96:	61a3      	str	r3, [r4, #24]
10000a98:	2380      	movs	r3, #128	; 0x80
10000a9a:	2708      	movs	r7, #8
10000a9c:	2010      	movs	r0, #16
10000a9e:	2120      	movs	r1, #32
10000aa0:	464d      	mov	r5, r9
10000aa2:	0052      	lsls	r2, r2, #1
10000aa4:	009b      	lsls	r3, r3, #2
10000aa6:	61a7      	str	r7, [r4, #24]
10000aa8:	61a0      	str	r0, [r4, #24]
10000aaa:	61a1      	str	r1, [r4, #24]
10000aac:	61a2      	str	r2, [r4, #24]
10000aae:	61a3      	str	r3, [r4, #24]
10000ab0:	2d01      	cmp	r5, #1
10000ab2:	d106      	bne.n	10000ac2 <_Z23picoRGBMatrixDeviceInitv+0x1c6>
10000ab4:	4645      	mov	r5, r8
10000ab6:	6165      	str	r5, [r4, #20]
10000ab8:	6167      	str	r7, [r4, #20]
10000aba:	6160      	str	r0, [r4, #20]
10000abc:	6161      	str	r1, [r4, #20]
10000abe:	6162      	str	r2, [r4, #20]
10000ac0:	6163      	str	r3, [r4, #20]
10000ac2:	2e33      	cmp	r6, #51	; 0x33
10000ac4:	ddd1      	ble.n	10000a6a <_Z23picoRGBMatrixDeviceInitv+0x16e>
10000ac6:	2380      	movs	r3, #128	; 0x80
10000ac8:	015b      	lsls	r3, r3, #5
10000aca:	6163      	str	r3, [r4, #20]
10000acc:	469a      	mov	sl, r3
10000ace:	2380      	movs	r3, #128	; 0x80
10000ad0:	011b      	lsls	r3, r3, #4
10000ad2:	4699      	mov	r9, r3
10000ad4:	6163      	str	r3, [r4, #20]
10000ad6:	2002      	movs	r0, #2
10000ad8:	2100      	movs	r1, #0
10000ada:	f003 f813 	bl	10003b04 <sleep_us>
10000ade:	464b      	mov	r3, r9
10000ae0:	3601      	adds	r6, #1
10000ae2:	61a3      	str	r3, [r4, #24]
10000ae4:	2e40      	cmp	r6, #64	; 0x40
10000ae6:	d1cc      	bne.n	10000a82 <_Z23picoRGBMatrixDeviceInitv+0x186>
10000ae8:	4653      	mov	r3, sl
10000aea:	61a3      	str	r3, [r4, #24]
10000aec:	464b      	mov	r3, r9
10000aee:	61a3      	str	r3, [r4, #24]
10000af0:	b021      	add	sp, #132	; 0x84
10000af2:	bc3c      	pop	{r2, r3, r4, r5}
10000af4:	4690      	mov	r8, r2
10000af6:	4699      	mov	r9, r3
10000af8:	46a2      	mov	sl, r4
10000afa:	46ab      	mov	fp, r5
10000afc:	bdf0      	pop	{r4, r5, r6, r7, pc}
10000afe:	46c0      	nop			; (mov r8, r8)
10000b00:	10008080 	.word	0x10008080

10000b04 <_Z20RGBMatrixDeviceFlushPh>:
10000b04:	b5f0      	push	{r4, r5, r6, r7, lr}
10000b06:	46de      	mov	lr, fp
10000b08:	4657      	mov	r7, sl
10000b0a:	464e      	mov	r6, r9
10000b0c:	4645      	mov	r5, r8
10000b0e:	b5e0      	push	{r5, r6, r7, lr}
10000b10:	4b70      	ldr	r3, [pc, #448]	; (10000cd4 <_Z20RGBMatrixDeviceFlushPh+0x1d0>)
10000b12:	b089      	sub	sp, #36	; 0x24
10000b14:	781a      	ldrb	r2, [r3, #0]
10000b16:	3201      	adds	r2, #1
10000b18:	b2d2      	uxtb	r2, r2
10000b1a:	2a0f      	cmp	r2, #15
10000b1c:	d900      	bls.n	10000b20 <_Z20RGBMatrixDeviceFlushPh+0x1c>
10000b1e:	e0b1      	b.n	10000c84 <_Z20RGBMatrixDeviceFlushPh+0x180>
10000b20:	701a      	strb	r2, [r3, #0]
10000b22:	2301      	movs	r3, #1
10000b24:	4013      	ands	r3, r2
10000b26:	9304      	str	r3, [sp, #16]
10000b28:	00d3      	lsls	r3, r2, #3
10000b2a:	9301      	str	r3, [sp, #4]
10000b2c:	3380      	adds	r3, #128	; 0x80
10000b2e:	9302      	str	r3, [sp, #8]
10000b30:	2304      	movs	r3, #4
10000b32:	4013      	ands	r3, r2
10000b34:	9305      	str	r3, [sp, #20]
10000b36:	2302      	movs	r3, #2
10000b38:	4013      	ands	r3, r2
10000b3a:	9306      	str	r3, [sp, #24]
10000b3c:	2308      	movs	r3, #8
10000b3e:	9c01      	ldr	r4, [sp, #4]
10000b40:	4013      	ands	r3, r2
10000b42:	9307      	str	r3, [sp, #28]
10000b44:	2301      	movs	r3, #1
10000b46:	4964      	ldr	r1, [pc, #400]	; (10000cd8 <_Z20RGBMatrixDeviceFlushPh+0x1d4>)
10000b48:	46a4      	mov	ip, r4
10000b4a:	700b      	strb	r3, [r1, #0]
10000b4c:	23d0      	movs	r3, #208	; 0xd0
10000b4e:	2180      	movs	r1, #128	; 0x80
10000b50:	061b      	lsls	r3, r3, #24
10000b52:	0189      	lsls	r1, r1, #6
10000b54:	6159      	str	r1, [r3, #20]
10000b56:	0001      	movs	r1, r0
10000b58:	4461      	add	r1, ip
10000b5a:	9100      	str	r1, [sp, #0]
10000b5c:	495f      	ldr	r1, [pc, #380]	; (10000cdc <_Z20RGBMatrixDeviceFlushPh+0x1d8>)
10000b5e:	0192      	lsls	r2, r2, #6
10000b60:	0008      	movs	r0, r1
10000b62:	3008      	adds	r0, #8
10000b64:	4682      	mov	sl, r0
10000b66:	3148      	adds	r1, #72	; 0x48
10000b68:	4492      	add	sl, r2
10000b6a:	188a      	adds	r2, r1, r2
10000b6c:	9203      	str	r2, [sp, #12]
10000b6e:	2204      	movs	r2, #4
10000b70:	2680      	movs	r6, #128	; 0x80
10000b72:	4691      	mov	r9, r2
10000b74:	2501      	movs	r5, #1
10000b76:	0136      	lsls	r6, r6, #4
10000b78:	9a00      	ldr	r2, [sp, #0]
10000b7a:	9901      	ldr	r1, [sp, #4]
10000b7c:	7814      	ldrb	r4, [r2, #0]
10000b7e:	1a52      	subs	r2, r2, r1
10000b80:	9902      	ldr	r1, [sp, #8]
10000b82:	5c50      	ldrb	r0, [r2, r1]
10000b84:	2108      	movs	r1, #8
10000b86:	468b      	mov	fp, r1
10000b88:	3108      	adds	r1, #8
10000b8a:	4652      	mov	r2, sl
10000b8c:	4688      	mov	r8, r1
10000b8e:	3110      	adds	r1, #16
10000b90:	468c      	mov	ip, r1
10000b92:	3a08      	subs	r2, #8
10000b94:	464f      	mov	r7, r9
10000b96:	7811      	ldrb	r1, [r2, #0]
10000b98:	619e      	str	r6, [r3, #24]
10000b9a:	619f      	str	r7, [r3, #24]
10000b9c:	465f      	mov	r7, fp
10000b9e:	619f      	str	r7, [r3, #24]
10000ba0:	4647      	mov	r7, r8
10000ba2:	619f      	str	r7, [r3, #24]
10000ba4:	4667      	mov	r7, ip
10000ba6:	619f      	str	r7, [r3, #24]
10000ba8:	2780      	movs	r7, #128	; 0x80
10000baa:	007f      	lsls	r7, r7, #1
10000bac:	619f      	str	r7, [r3, #24]
10000bae:	19ff      	adds	r7, r7, r7
10000bb0:	619f      	str	r7, [r3, #24]
10000bb2:	4225      	tst	r5, r4
10000bb4:	d00b      	beq.n	10000bce <_Z20RGBMatrixDeviceFlushPh+0xca>
10000bb6:	464f      	mov	r7, r9
10000bb8:	420f      	tst	r7, r1
10000bba:	d000      	beq.n	10000bbe <_Z20RGBMatrixDeviceFlushPh+0xba>
10000bbc:	615f      	str	r7, [r3, #20]
10000bbe:	078f      	lsls	r7, r1, #30
10000bc0:	d501      	bpl.n	10000bc6 <_Z20RGBMatrixDeviceFlushPh+0xc2>
10000bc2:	465f      	mov	r7, fp
10000bc4:	615f      	str	r7, [r3, #20]
10000bc6:	420d      	tst	r5, r1
10000bc8:	d001      	beq.n	10000bce <_Z20RGBMatrixDeviceFlushPh+0xca>
10000bca:	4647      	mov	r7, r8
10000bcc:	615f      	str	r7, [r3, #20]
10000bce:	4205      	tst	r5, r0
10000bd0:	d00f      	beq.n	10000bf2 <_Z20RGBMatrixDeviceFlushPh+0xee>
10000bd2:	064f      	lsls	r7, r1, #25
10000bd4:	d501      	bpl.n	10000bda <_Z20RGBMatrixDeviceFlushPh+0xd6>
10000bd6:	4667      	mov	r7, ip
10000bd8:	615f      	str	r7, [r3, #20]
10000bda:	4667      	mov	r7, ip
10000bdc:	420f      	tst	r7, r1
10000bde:	d002      	beq.n	10000be6 <_Z20RGBMatrixDeviceFlushPh+0xe2>
10000be0:	2780      	movs	r7, #128	; 0x80
10000be2:	007f      	lsls	r7, r7, #1
10000be4:	615f      	str	r7, [r3, #20]
10000be6:	4647      	mov	r7, r8
10000be8:	420f      	tst	r7, r1
10000bea:	d002      	beq.n	10000bf2 <_Z20RGBMatrixDeviceFlushPh+0xee>
10000bec:	2180      	movs	r1, #128	; 0x80
10000bee:	0089      	lsls	r1, r1, #2
10000bf0:	6159      	str	r1, [r3, #20]
10000bf2:	3201      	adds	r2, #1
10000bf4:	0864      	lsrs	r4, r4, #1
10000bf6:	0840      	lsrs	r0, r0, #1
10000bf8:	615e      	str	r6, [r3, #20]
10000bfa:	4552      	cmp	r2, sl
10000bfc:	d1ca      	bne.n	10000b94 <_Z20RGBMatrixDeviceFlushPh+0x90>
10000bfe:	9900      	ldr	r1, [sp, #0]
10000c00:	3101      	adds	r1, #1
10000c02:	9100      	str	r1, [sp, #0]
10000c04:	2108      	movs	r1, #8
10000c06:	468a      	mov	sl, r1
10000c08:	4492      	add	sl, r2
10000c0a:	9a03      	ldr	r2, [sp, #12]
10000c0c:	4592      	cmp	sl, r2
10000c0e:	d1b3      	bne.n	10000b78 <_Z20RGBMatrixDeviceFlushPh+0x74>
10000c10:	9b04      	ldr	r3, [sp, #16]
10000c12:	2b00      	cmp	r3, #0
10000c14:	d055      	beq.n	10000cc2 <_Z20RGBMatrixDeviceFlushPh+0x1be>
10000c16:	2380      	movs	r3, #128	; 0x80
10000c18:	22d0      	movs	r2, #208	; 0xd0
10000c1a:	00db      	lsls	r3, r3, #3
10000c1c:	0612      	lsls	r2, r2, #24
10000c1e:	6153      	str	r3, [r2, #20]
10000c20:	9b06      	ldr	r3, [sp, #24]
10000c22:	2b00      	cmp	r3, #0
10000c24:	d047      	beq.n	10000cb6 <_Z20RGBMatrixDeviceFlushPh+0x1b2>
10000c26:	23d0      	movs	r3, #208	; 0xd0
10000c28:	2280      	movs	r2, #128	; 0x80
10000c2a:	061b      	lsls	r3, r3, #24
10000c2c:	0252      	lsls	r2, r2, #9
10000c2e:	615a      	str	r2, [r3, #20]
10000c30:	9b05      	ldr	r3, [sp, #20]
10000c32:	2b00      	cmp	r3, #0
10000c34:	d039      	beq.n	10000caa <_Z20RGBMatrixDeviceFlushPh+0x1a6>
10000c36:	23d0      	movs	r3, #208	; 0xd0
10000c38:	2280      	movs	r2, #128	; 0x80
10000c3a:	061b      	lsls	r3, r3, #24
10000c3c:	02d2      	lsls	r2, r2, #11
10000c3e:	615a      	str	r2, [r3, #20]
10000c40:	9b07      	ldr	r3, [sp, #28]
10000c42:	2b00      	cmp	r3, #0
10000c44:	d02b      	beq.n	10000c9e <_Z20RGBMatrixDeviceFlushPh+0x19a>
10000c46:	23d0      	movs	r3, #208	; 0xd0
10000c48:	2280      	movs	r2, #128	; 0x80
10000c4a:	061b      	lsls	r3, r3, #24
10000c4c:	0352      	lsls	r2, r2, #13
10000c4e:	615a      	str	r2, [r3, #20]
10000c50:	23d0      	movs	r3, #208	; 0xd0
10000c52:	2280      	movs	r2, #128	; 0x80
10000c54:	061b      	lsls	r3, r3, #24
10000c56:	03d2      	lsls	r2, r2, #15
10000c58:	619a      	str	r2, [r3, #24]
10000c5a:	2280      	movs	r2, #128	; 0x80
10000c5c:	0152      	lsls	r2, r2, #5
10000c5e:	615a      	str	r2, [r3, #20]
10000c60:	619a      	str	r2, [r3, #24]
10000c62:	2200      	movs	r2, #0
10000c64:	491c      	ldr	r1, [pc, #112]	; (10000cd8 <_Z20RGBMatrixDeviceFlushPh+0x1d4>)
10000c66:	700a      	strb	r2, [r1, #0]
10000c68:	4a1d      	ldr	r2, [pc, #116]	; (10000ce0 <_Z20RGBMatrixDeviceFlushPh+0x1dc>)
10000c6a:	7811      	ldrb	r1, [r2, #0]
10000c6c:	2900      	cmp	r1, #0
10000c6e:	d12e      	bne.n	10000cce <_Z20RGBMatrixDeviceFlushPh+0x1ca>
10000c70:	2280      	movs	r2, #128	; 0x80
10000c72:	0192      	lsls	r2, r2, #6
10000c74:	619a      	str	r2, [r3, #24]
10000c76:	b009      	add	sp, #36	; 0x24
10000c78:	bc3c      	pop	{r2, r3, r4, r5}
10000c7a:	4690      	mov	r8, r2
10000c7c:	4699      	mov	r9, r3
10000c7e:	46a2      	mov	sl, r4
10000c80:	46ab      	mov	fp, r5
10000c82:	bdf0      	pop	{r4, r5, r6, r7, pc}
10000c84:	2200      	movs	r2, #0
10000c86:	701a      	strb	r2, [r3, #0]
10000c88:	2300      	movs	r3, #0
10000c8a:	9307      	str	r3, [sp, #28]
10000c8c:	9306      	str	r3, [sp, #24]
10000c8e:	9305      	str	r3, [sp, #20]
10000c90:	3380      	adds	r3, #128	; 0x80
10000c92:	9302      	str	r3, [sp, #8]
10000c94:	2300      	movs	r3, #0
10000c96:	9301      	str	r3, [sp, #4]
10000c98:	9304      	str	r3, [sp, #16]
10000c9a:	001c      	movs	r4, r3
10000c9c:	e752      	b.n	10000b44 <_Z20RGBMatrixDeviceFlushPh+0x40>
10000c9e:	23d0      	movs	r3, #208	; 0xd0
10000ca0:	2280      	movs	r2, #128	; 0x80
10000ca2:	061b      	lsls	r3, r3, #24
10000ca4:	0352      	lsls	r2, r2, #13
10000ca6:	619a      	str	r2, [r3, #24]
10000ca8:	e7d2      	b.n	10000c50 <_Z20RGBMatrixDeviceFlushPh+0x14c>
10000caa:	23d0      	movs	r3, #208	; 0xd0
10000cac:	2280      	movs	r2, #128	; 0x80
10000cae:	061b      	lsls	r3, r3, #24
10000cb0:	02d2      	lsls	r2, r2, #11
10000cb2:	619a      	str	r2, [r3, #24]
10000cb4:	e7c4      	b.n	10000c40 <_Z20RGBMatrixDeviceFlushPh+0x13c>
10000cb6:	23d0      	movs	r3, #208	; 0xd0
10000cb8:	2280      	movs	r2, #128	; 0x80
10000cba:	061b      	lsls	r3, r3, #24
10000cbc:	0252      	lsls	r2, r2, #9
10000cbe:	619a      	str	r2, [r3, #24]
10000cc0:	e7b6      	b.n	10000c30 <_Z20RGBMatrixDeviceFlushPh+0x12c>
10000cc2:	2380      	movs	r3, #128	; 0x80
10000cc4:	22d0      	movs	r2, #208	; 0xd0
10000cc6:	00db      	lsls	r3, r3, #3
10000cc8:	0612      	lsls	r2, r2, #24
10000cca:	6193      	str	r3, [r2, #24]
10000ccc:	e7a8      	b.n	10000c20 <_Z20RGBMatrixDeviceFlushPh+0x11c>
10000cce:	2301      	movs	r3, #1
10000cd0:	7013      	strb	r3, [r2, #0]
10000cd2:	e7d0      	b.n	10000c76 <_Z20RGBMatrixDeviceFlushPh+0x172>
10000cd4:	200016a7 	.word	0x200016a7
10000cd8:	200016a3 	.word	0x200016a3
10000cdc:	20000e04 	.word	0x20000e04
10000ce0:	20000524 	.word	0x20000524

10000ce4 <_Z17select_area_colorhhhhhh>:
10000ce4:	b5f0      	push	{r4, r5, r6, r7, lr}
10000ce6:	46c6      	mov	lr, r8
10000ce8:	b500      	push	{lr}
10000cea:	ac06      	add	r4, sp, #24
10000cec:	4680      	mov	r8, r0
10000cee:	7820      	ldrb	r0, [r4, #0]
10000cf0:	ac07      	add	r4, sp, #28
10000cf2:	7824      	ldrb	r4, [r4, #0]
10000cf4:	2c01      	cmp	r4, #1
10000cf6:	d01c      	beq.n	10000d32 <_Z17select_area_colorhhhhhh+0x4e>
10000cf8:	2c00      	cmp	r4, #0
10000cfa:	d117      	bne.n	10000d2c <_Z17select_area_colorhhhhhh+0x48>
10000cfc:	4299      	cmp	r1, r3
10000cfe:	d815      	bhi.n	10000d2c <_Z17select_area_colorhhhhhh+0x48>
10000d00:	0100      	lsls	r0, r0, #4
10000d02:	b240      	sxtb	r0, r0
10000d04:	4590      	cmp	r8, r2
10000d06:	d811      	bhi.n	10000d2c <_Z17select_area_colorhhhhhh+0x48>
10000d08:	4c15      	ldr	r4, [pc, #84]	; (10000d60 <_Z17select_area_colorhhhhhh+0x7c>)
10000d0a:	270f      	movs	r7, #15
10000d0c:	46a4      	mov	ip, r4
10000d0e:	4644      	mov	r4, r8
10000d10:	018e      	lsls	r6, r1, #6
10000d12:	4466      	add	r6, ip
10000d14:	5d35      	ldrb	r5, [r6, r4]
10000d16:	403d      	ands	r5, r7
10000d18:	4305      	orrs	r5, r0
10000d1a:	5535      	strb	r5, [r6, r4]
10000d1c:	3401      	adds	r4, #1
10000d1e:	b2e4      	uxtb	r4, r4
10000d20:	42a2      	cmp	r2, r4
10000d22:	d2f7      	bcs.n	10000d14 <_Z17select_area_colorhhhhhh+0x30>
10000d24:	3101      	adds	r1, #1
10000d26:	b2c9      	uxtb	r1, r1
10000d28:	428b      	cmp	r3, r1
10000d2a:	d2f0      	bcs.n	10000d0e <_Z17select_area_colorhhhhhh+0x2a>
10000d2c:	bc04      	pop	{r2}
10000d2e:	4690      	mov	r8, r2
10000d30:	bdf0      	pop	{r4, r5, r6, r7, pc}
10000d32:	4299      	cmp	r1, r3
10000d34:	d8fa      	bhi.n	10000d2c <_Z17select_area_colorhhhhhh+0x48>
10000d36:	4590      	cmp	r8, r2
10000d38:	d8f8      	bhi.n	10000d2c <_Z17select_area_colorhhhhhh+0x48>
10000d3a:	4c09      	ldr	r4, [pc, #36]	; (10000d60 <_Z17select_area_colorhhhhhh+0x7c>)
10000d3c:	270f      	movs	r7, #15
10000d3e:	46a4      	mov	ip, r4
10000d40:	4644      	mov	r4, r8
10000d42:	018e      	lsls	r6, r1, #6
10000d44:	4466      	add	r6, ip
10000d46:	5d35      	ldrb	r5, [r6, r4]
10000d48:	43bd      	bics	r5, r7
10000d4a:	4305      	orrs	r5, r0
10000d4c:	5535      	strb	r5, [r6, r4]
10000d4e:	3401      	adds	r4, #1
10000d50:	b2e4      	uxtb	r4, r4
10000d52:	42a2      	cmp	r2, r4
10000d54:	d2f7      	bcs.n	10000d46 <_Z17select_area_colorhhhhhh+0x62>
10000d56:	3101      	adds	r1, #1
10000d58:	b2c9      	uxtb	r1, r1
10000d5a:	428b      	cmp	r3, r1
10000d5c:	d2f0      	bcs.n	10000d40 <_Z17select_area_colorhhhhhh+0x5c>
10000d5e:	e7e5      	b.n	10000d2c <_Z17select_area_colorhhhhhh+0x48>
10000d60:	20000e04 	.word	0x20000e04

10000d64 <_ZL23RGBMatrixDeviceSetPixelP13DisplayDeviceiich>:
10000d64:	b510      	push	{r4, lr}
10000d66:	ac02      	add	r4, sp, #8
10000d68:	7824      	ldrb	r4, [r4, #0]
10000d6a:	6840      	ldr	r0, [r0, #4]
10000d6c:	2c00      	cmp	r4, #0
10000d6e:	d005      	beq.n	10000d7c <_ZL23RGBMatrixDeviceSetPixelP13DisplayDeviceiich+0x18>
10000d70:	2c01      	cmp	r4, #1
10000d72:	d009      	beq.n	10000d88 <_ZL23RGBMatrixDeviceSetPixelP13DisplayDeviceiich+0x24>
10000d74:	2c02      	cmp	r4, #2
10000d76:	d004      	beq.n	10000d82 <_ZL23RGBMatrixDeviceSetPixelP13DisplayDeviceiich+0x1e>
10000d78:	2000      	movs	r0, #0
10000d7a:	bd10      	pop	{r4, pc}
10000d7c:	f001 f878 	bl	10001e70 <_Z11fontChar4X7Phiic>
10000d80:	e7fa      	b.n	10000d78 <_ZL23RGBMatrixDeviceSetPixelP13DisplayDeviceiich+0x14>
10000d82:	f001 f9b7 	bl	100020f4 <_Z13fontChar8X10BPhiic>
10000d86:	e7f7      	b.n	10000d78 <_ZL23RGBMatrixDeviceSetPixelP13DisplayDeviceiich+0x14>
10000d88:	f001 f910 	bl	10001fac <_Z12fontChar8X10Phiic>
10000d8c:	e7f4      	b.n	10000d78 <_ZL23RGBMatrixDeviceSetPixelP13DisplayDeviceiich+0x14>
10000d8e:	46c0      	nop			; (mov r8, r8)

10000d90 <_ZL20RGBMatrixDeviceFlushP13DisplayDevice>:
10000d90:	b510      	push	{r4, lr}
10000d92:	f7ff fb61 	bl	10000458 <_Z24HAL_RGBMatrixDeviceFlushP13DisplayDevice>
10000d96:	bd10      	pop	{r4, pc}

10000d98 <_ZL19RGBMatrixDeviceInitv>:
10000d98:	b510      	push	{r4, lr}
10000d9a:	f7ff fb59 	bl	10000450 <_Z23HAL_RGBMatrixDeviceInitv>
10000d9e:	bd10      	pop	{r4, pc}

10000da0 <_Z16GetDisplayDevicev>:
10000da0:	4800      	ldr	r0, [pc, #0]	; (10000da4 <_Z16GetDisplayDevicev+0x4>)
10000da2:	4770      	bx	lr
10000da4:	20000380 	.word	0x20000380

10000da8 <_Z18displaySettingPageP13DisplayDeviceh>:
10000da8:	2280      	movs	r2, #128	; 0x80
10000daa:	b5f0      	push	{r4, r5, r6, r7, lr}
10000dac:	0004      	movs	r4, r0
10000dae:	2500      	movs	r5, #0
10000db0:	b083      	sub	sp, #12
10000db2:	000e      	movs	r6, r1
10000db4:	0052      	lsls	r2, r2, #1
10000db6:	2100      	movs	r1, #0
10000db8:	6840      	ldr	r0, [r0, #4]
10000dba:	f004 f887 	bl	10004ecc <__wrap_memset>
10000dbe:	2353      	movs	r3, #83	; 0x53
10000dc0:	2205      	movs	r2, #5
10000dc2:	210a      	movs	r1, #10
10000dc4:	69e7      	ldr	r7, [r4, #28]
10000dc6:	9500      	str	r5, [sp, #0]
10000dc8:	0020      	movs	r0, r4
10000dca:	47b8      	blx	r7
10000dcc:	2345      	movs	r3, #69	; 0x45
10000dce:	2205      	movs	r2, #5
10000dd0:	2110      	movs	r1, #16
10000dd2:	69e7      	ldr	r7, [r4, #28]
10000dd4:	9500      	str	r5, [sp, #0]
10000dd6:	0020      	movs	r0, r4
10000dd8:	47b8      	blx	r7
10000dda:	2354      	movs	r3, #84	; 0x54
10000ddc:	2205      	movs	r2, #5
10000dde:	2115      	movs	r1, #21
10000de0:	69e7      	ldr	r7, [r4, #28]
10000de2:	9500      	str	r5, [sp, #0]
10000de4:	0020      	movs	r0, r4
10000de6:	47b8      	blx	r7
10000de8:	234c      	movs	r3, #76	; 0x4c
10000dea:	2205      	movs	r2, #5
10000dec:	2123      	movs	r1, #35	; 0x23
10000dee:	69e7      	ldr	r7, [r4, #28]
10000df0:	9500      	str	r5, [sp, #0]
10000df2:	0020      	movs	r0, r4
10000df4:	47b8      	blx	r7
10000df6:	2349      	movs	r3, #73	; 0x49
10000df8:	2205      	movs	r2, #5
10000dfa:	2128      	movs	r1, #40	; 0x28
10000dfc:	69e7      	ldr	r7, [r4, #28]
10000dfe:	9500      	str	r5, [sp, #0]
10000e00:	0020      	movs	r0, r4
10000e02:	47b8      	blx	r7
10000e04:	2353      	movs	r3, #83	; 0x53
10000e06:	2205      	movs	r2, #5
10000e08:	212d      	movs	r1, #45	; 0x2d
10000e0a:	69e7      	ldr	r7, [r4, #28]
10000e0c:	9500      	str	r5, [sp, #0]
10000e0e:	0020      	movs	r0, r4
10000e10:	47b8      	blx	r7
10000e12:	9500      	str	r5, [sp, #0]
10000e14:	2354      	movs	r3, #84	; 0x54
10000e16:	2205      	movs	r2, #5
10000e18:	2133      	movs	r1, #51	; 0x33
10000e1a:	0020      	movs	r0, r4
10000e1c:	69e7      	ldr	r7, [r4, #28]
10000e1e:	47b8      	blx	r7
10000e20:	2e01      	cmp	r6, #1
10000e22:	d145      	bne.n	10000eb0 <_Z18displaySettingPageP13DisplayDeviceh+0x108>
10000e24:	2354      	movs	r3, #84	; 0x54
10000e26:	2215      	movs	r2, #21
10000e28:	210a      	movs	r1, #10
10000e2a:	69e6      	ldr	r6, [r4, #28]
10000e2c:	9500      	str	r5, [sp, #0]
10000e2e:	0020      	movs	r0, r4
10000e30:	47b0      	blx	r6
10000e32:	2349      	movs	r3, #73	; 0x49
10000e34:	2215      	movs	r2, #21
10000e36:	2110      	movs	r1, #16
10000e38:	69e6      	ldr	r6, [r4, #28]
10000e3a:	9500      	str	r5, [sp, #0]
10000e3c:	0020      	movs	r0, r4
10000e3e:	47b0      	blx	r6
10000e40:	234d      	movs	r3, #77	; 0x4d
10000e42:	2215      	movs	r2, #21
10000e44:	2115      	movs	r1, #21
10000e46:	9500      	str	r5, [sp, #0]
10000e48:	0020      	movs	r0, r4
10000e4a:	69e6      	ldr	r6, [r4, #28]
10000e4c:	47b0      	blx	r6
10000e4e:	2345      	movs	r3, #69	; 0x45
10000e50:	2215      	movs	r2, #21
10000e52:	211b      	movs	r1, #27
10000e54:	9500      	str	r5, [sp, #0]
10000e56:	69e6      	ldr	r6, [r4, #28]
10000e58:	0020      	movs	r0, r4
10000e5a:	47b0      	blx	r6
10000e5c:	9500      	str	r5, [sp, #0]
10000e5e:	2353      	movs	r3, #83	; 0x53
10000e60:	2215      	movs	r2, #21
10000e62:	2128      	movs	r1, #40	; 0x28
10000e64:	69e6      	ldr	r6, [r4, #28]
10000e66:	0020      	movs	r0, r4
10000e68:	47b0      	blx	r6
10000e6a:	9500      	str	r5, [sp, #0]
10000e6c:	2345      	movs	r3, #69	; 0x45
10000e6e:	2215      	movs	r2, #21
10000e70:	212e      	movs	r1, #46	; 0x2e
10000e72:	0020      	movs	r0, r4
10000e74:	69e6      	ldr	r6, [r4, #28]
10000e76:	47b0      	blx	r6
10000e78:	9500      	str	r5, [sp, #0]
10000e7a:	2354      	movs	r3, #84	; 0x54
10000e7c:	69e5      	ldr	r5, [r4, #28]
10000e7e:	2215      	movs	r2, #21
10000e80:	2133      	movs	r1, #51	; 0x33
10000e82:	0020      	movs	r0, r4
10000e84:	47a8      	blx	r5
10000e86:	2301      	movs	r3, #1
10000e88:	223f      	movs	r2, #63	; 0x3f
10000e8a:	9301      	str	r3, [sp, #4]
10000e8c:	9300      	str	r3, [sp, #0]
10000e8e:	2100      	movs	r1, #0
10000e90:	330e      	adds	r3, #14
10000e92:	2000      	movs	r0, #0
10000e94:	f7ff ff26 	bl	10000ce4 <_Z17select_area_colorhhhhhh>
10000e98:	2300      	movs	r3, #0
10000e9a:	9301      	str	r3, [sp, #4]
10000e9c:	3304      	adds	r3, #4
10000e9e:	9300      	str	r3, [sp, #0]
10000ea0:	223f      	movs	r2, #63	; 0x3f
10000ea2:	330b      	adds	r3, #11
10000ea4:	2100      	movs	r1, #0
10000ea6:	2000      	movs	r0, #0
10000ea8:	f7ff ff1c 	bl	10000ce4 <_Z17select_area_colorhhhhhh>
10000eac:	b003      	add	sp, #12
10000eae:	bdf0      	pop	{r4, r5, r6, r7, pc}
10000eb0:	2e02      	cmp	r6, #2
10000eb2:	d119      	bne.n	10000ee8 <_Z18displaySettingPageP13DisplayDeviceh+0x140>
10000eb4:	2344      	movs	r3, #68	; 0x44
10000eb6:	2215      	movs	r2, #21
10000eb8:	210a      	movs	r1, #10
10000eba:	69e6      	ldr	r6, [r4, #28]
10000ebc:	9500      	str	r5, [sp, #0]
10000ebe:	0020      	movs	r0, r4
10000ec0:	47b0      	blx	r6
10000ec2:	2341      	movs	r3, #65	; 0x41
10000ec4:	2215      	movs	r2, #21
10000ec6:	210f      	movs	r1, #15
10000ec8:	69e6      	ldr	r6, [r4, #28]
10000eca:	9500      	str	r5, [sp, #0]
10000ecc:	0020      	movs	r0, r4
10000ece:	47b0      	blx	r6
10000ed0:	2354      	movs	r3, #84	; 0x54
10000ed2:	2215      	movs	r2, #21
10000ed4:	2114      	movs	r1, #20
10000ed6:	9500      	str	r5, [sp, #0]
10000ed8:	0020      	movs	r0, r4
10000eda:	69e6      	ldr	r6, [r4, #28]
10000edc:	47b0      	blx	r6
10000ede:	9500      	str	r5, [sp, #0]
10000ee0:	2345      	movs	r3, #69	; 0x45
10000ee2:	2215      	movs	r2, #21
10000ee4:	211a      	movs	r1, #26
10000ee6:	e7b6      	b.n	10000e56 <_Z18displaySettingPageP13DisplayDeviceh+0xae>
10000ee8:	2e03      	cmp	r6, #3
10000eea:	d13f      	bne.n	10000f6c <_Z18displaySettingPageP13DisplayDeviceh+0x1c4>
10000eec:	9500      	str	r5, [sp, #0]
10000eee:	69e6      	ldr	r6, [r4, #28]
10000ef0:	2341      	movs	r3, #65	; 0x41
10000ef2:	2215      	movs	r2, #21
10000ef4:	210a      	movs	r1, #10
10000ef6:	0020      	movs	r0, r4
10000ef8:	47b0      	blx	r6
10000efa:	9500      	str	r5, [sp, #0]
10000efc:	69e6      	ldr	r6, [r4, #28]
10000efe:	2355      	movs	r3, #85	; 0x55
10000f00:	2215      	movs	r2, #21
10000f02:	210f      	movs	r1, #15
10000f04:	0020      	movs	r0, r4
10000f06:	47b0      	blx	r6
10000f08:	9500      	str	r5, [sp, #0]
10000f0a:	69e6      	ldr	r6, [r4, #28]
10000f0c:	2354      	movs	r3, #84	; 0x54
10000f0e:	2215      	movs	r2, #21
10000f10:	2114      	movs	r1, #20
10000f12:	0020      	movs	r0, r4
10000f14:	47b0      	blx	r6
10000f16:	9500      	str	r5, [sp, #0]
10000f18:	69e6      	ldr	r6, [r4, #28]
10000f1a:	234f      	movs	r3, #79	; 0x4f
10000f1c:	2215      	movs	r2, #21
10000f1e:	211a      	movs	r1, #26
10000f20:	0020      	movs	r0, r4
10000f22:	47b0      	blx	r6
10000f24:	9500      	str	r5, [sp, #0]
10000f26:	69e6      	ldr	r6, [r4, #28]
10000f28:	234c      	movs	r3, #76	; 0x4c
10000f2a:	2215      	movs	r2, #21
10000f2c:	2123      	movs	r1, #35	; 0x23
10000f2e:	0020      	movs	r0, r4
10000f30:	47b0      	blx	r6
10000f32:	9500      	str	r5, [sp, #0]
10000f34:	69e6      	ldr	r6, [r4, #28]
10000f36:	2349      	movs	r3, #73	; 0x49
10000f38:	2215      	movs	r2, #21
10000f3a:	2128      	movs	r1, #40	; 0x28
10000f3c:	0020      	movs	r0, r4
10000f3e:	47b0      	blx	r6
10000f40:	9500      	str	r5, [sp, #0]
10000f42:	69e6      	ldr	r6, [r4, #28]
10000f44:	2347      	movs	r3, #71	; 0x47
10000f46:	2215      	movs	r2, #21
10000f48:	212d      	movs	r1, #45	; 0x2d
10000f4a:	0020      	movs	r0, r4
10000f4c:	47b0      	blx	r6
10000f4e:	9500      	str	r5, [sp, #0]
10000f50:	2348      	movs	r3, #72	; 0x48
10000f52:	2215      	movs	r2, #21
10000f54:	2132      	movs	r1, #50	; 0x32
10000f56:	0020      	movs	r0, r4
10000f58:	69e6      	ldr	r6, [r4, #28]
10000f5a:	47b0      	blx	r6
10000f5c:	9500      	str	r5, [sp, #0]
10000f5e:	2354      	movs	r3, #84	; 0x54
10000f60:	69e5      	ldr	r5, [r4, #28]
10000f62:	2215      	movs	r2, #21
10000f64:	2137      	movs	r1, #55	; 0x37
10000f66:	0020      	movs	r0, r4
10000f68:	47a8      	blx	r5
10000f6a:	e78c      	b.n	10000e86 <_Z18displaySettingPageP13DisplayDeviceh+0xde>
10000f6c:	2e04      	cmp	r6, #4
10000f6e:	d11c      	bne.n	10000faa <_Z18displaySettingPageP13DisplayDeviceh+0x202>
10000f70:	9500      	str	r5, [sp, #0]
10000f72:	69e6      	ldr	r6, [r4, #28]
10000f74:	2342      	movs	r3, #66	; 0x42
10000f76:	2215      	movs	r2, #21
10000f78:	2114      	movs	r1, #20
10000f7a:	0020      	movs	r0, r4
10000f7c:	47b0      	blx	r6
10000f7e:	9500      	str	r5, [sp, #0]
10000f80:	69e6      	ldr	r6, [r4, #28]
10000f82:	2345      	movs	r3, #69	; 0x45
10000f84:	2215      	movs	r2, #21
10000f86:	2119      	movs	r1, #25
10000f88:	0020      	movs	r0, r4
10000f8a:	47b0      	blx	r6
10000f8c:	9500      	str	r5, [sp, #0]
10000f8e:	2345      	movs	r3, #69	; 0x45
10000f90:	2215      	movs	r2, #21
10000f92:	211e      	movs	r1, #30
10000f94:	0020      	movs	r0, r4
10000f96:	69e6      	ldr	r6, [r4, #28]
10000f98:	47b0      	blx	r6
10000f9a:	9500      	str	r5, [sp, #0]
10000f9c:	2350      	movs	r3, #80	; 0x50
10000f9e:	69e5      	ldr	r5, [r4, #28]
10000fa0:	2215      	movs	r2, #21
10000fa2:	2123      	movs	r1, #35	; 0x23
10000fa4:	0020      	movs	r0, r4
10000fa6:	47a8      	blx	r5
10000fa8:	e76d      	b.n	10000e86 <_Z18displaySettingPageP13DisplayDeviceh+0xde>
10000faa:	2e05      	cmp	r6, #5
10000fac:	d000      	beq.n	10000fb0 <_Z18displaySettingPageP13DisplayDeviceh+0x208>
10000fae:	e76a      	b.n	10000e86 <_Z18displaySettingPageP13DisplayDeviceh+0xde>
10000fb0:	9500      	str	r5, [sp, #0]
10000fb2:	69e6      	ldr	r6, [r4, #28]
10000fb4:	234c      	movs	r3, #76	; 0x4c
10000fb6:	2215      	movs	r2, #21
10000fb8:	210c      	movs	r1, #12
10000fba:	0020      	movs	r0, r4
10000fbc:	47b0      	blx	r6
10000fbe:	9500      	str	r5, [sp, #0]
10000fc0:	69e6      	ldr	r6, [r4, #28]
10000fc2:	2341      	movs	r3, #65	; 0x41
10000fc4:	2215      	movs	r2, #21
10000fc6:	2111      	movs	r1, #17
10000fc8:	0020      	movs	r0, r4
10000fca:	47b0      	blx	r6
10000fcc:	9500      	str	r5, [sp, #0]
10000fce:	69e6      	ldr	r6, [r4, #28]
10000fd0:	234e      	movs	r3, #78	; 0x4e
10000fd2:	2215      	movs	r2, #21
10000fd4:	2116      	movs	r1, #22
10000fd6:	0020      	movs	r0, r4
10000fd8:	47b0      	blx	r6
10000fda:	9500      	str	r5, [sp, #0]
10000fdc:	69e6      	ldr	r6, [r4, #28]
10000fde:	2347      	movs	r3, #71	; 0x47
10000fe0:	2215      	movs	r2, #21
10000fe2:	211b      	movs	r1, #27
10000fe4:	0020      	movs	r0, r4
10000fe6:	47b0      	blx	r6
10000fe8:	9500      	str	r5, [sp, #0]
10000fea:	69e6      	ldr	r6, [r4, #28]
10000fec:	2355      	movs	r3, #85	; 0x55
10000fee:	2215      	movs	r2, #21
10000ff0:	2120      	movs	r1, #32
10000ff2:	0020      	movs	r0, r4
10000ff4:	47b0      	blx	r6
10000ff6:	9500      	str	r5, [sp, #0]
10000ff8:	69e6      	ldr	r6, [r4, #28]
10000ffa:	2341      	movs	r3, #65	; 0x41
10000ffc:	2215      	movs	r2, #21
10000ffe:	2125      	movs	r1, #37	; 0x25
10001000:	0020      	movs	r0, r4
10001002:	47b0      	blx	r6
10001004:	9500      	str	r5, [sp, #0]
10001006:	2347      	movs	r3, #71	; 0x47
10001008:	2215      	movs	r2, #21
1000100a:	212a      	movs	r1, #42	; 0x2a
1000100c:	0020      	movs	r0, r4
1000100e:	69e6      	ldr	r6, [r4, #28]
10001010:	47b0      	blx	r6
10001012:	9500      	str	r5, [sp, #0]
10001014:	2345      	movs	r3, #69	; 0x45
10001016:	69e5      	ldr	r5, [r4, #28]
10001018:	2215      	movs	r2, #21
1000101a:	212f      	movs	r1, #47	; 0x2f
1000101c:	0020      	movs	r0, r4
1000101e:	47a8      	blx	r5
10001020:	e731      	b.n	10000e86 <_Z18displaySettingPageP13DisplayDeviceh+0xde>
10001022:	46c0      	nop			; (mov r8, r8)

10001024 <_Z18displaySetTimePageP13DisplayDevicehhha>:
10001024:	b5f0      	push	{r4, r5, r6, r7, lr}
10001026:	46d6      	mov	lr, sl
10001028:	464f      	mov	r7, r9
1000102a:	4646      	mov	r6, r8
1000102c:	4690      	mov	r8, r2
1000102e:	2280      	movs	r2, #128	; 0x80
10001030:	b5c0      	push	{r6, r7, lr}
10001032:	4689      	mov	r9, r1
10001034:	2600      	movs	r6, #0
10001036:	b082      	sub	sp, #8
10001038:	0004      	movs	r4, r0
1000103a:	469a      	mov	sl, r3
1000103c:	0052      	lsls	r2, r2, #1
1000103e:	ab0a      	add	r3, sp, #40	; 0x28
10001040:	2100      	movs	r1, #0
10001042:	6840      	ldr	r0, [r0, #4]
10001044:	2501      	movs	r5, #1
10001046:	579e      	ldrsb	r6, [r3, r6]
10001048:	f003 ff40 	bl	10004ecc <__wrap_memset>
1000104c:	210a      	movs	r1, #10
1000104e:	4648      	mov	r0, r9
10001050:	f003 fe64 	bl	10004d1c <__wrap___aeabi_uidiv>
10001054:	9500      	str	r5, [sp, #0]
10001056:	b2c3      	uxtb	r3, r0
10001058:	220b      	movs	r2, #11
1000105a:	2103      	movs	r1, #3
1000105c:	69e7      	ldr	r7, [r4, #28]
1000105e:	0020      	movs	r0, r4
10001060:	47b8      	blx	r7
10001062:	210a      	movs	r1, #10
10001064:	4648      	mov	r0, r9
10001066:	f003 fe59 	bl	10004d1c <__wrap___aeabi_uidiv>
1000106a:	9500      	str	r5, [sp, #0]
1000106c:	b2cb      	uxtb	r3, r1
1000106e:	220b      	movs	r2, #11
10001070:	210b      	movs	r1, #11
10001072:	69e7      	ldr	r7, [r4, #28]
10001074:	0020      	movs	r0, r4
10001076:	47b8      	blx	r7
10001078:	9500      	str	r5, [sp, #0]
1000107a:	231a      	movs	r3, #26
1000107c:	220b      	movs	r2, #11
1000107e:	2113      	movs	r1, #19
10001080:	69e7      	ldr	r7, [r4, #28]
10001082:	0020      	movs	r0, r4
10001084:	47b8      	blx	r7
10001086:	210a      	movs	r1, #10
10001088:	4640      	mov	r0, r8
1000108a:	f003 fe47 	bl	10004d1c <__wrap___aeabi_uidiv>
1000108e:	9500      	str	r5, [sp, #0]
10001090:	b2c3      	uxtb	r3, r0
10001092:	220b      	movs	r2, #11
10001094:	2118      	movs	r1, #24
10001096:	69e7      	ldr	r7, [r4, #28]
10001098:	0020      	movs	r0, r4
1000109a:	47b8      	blx	r7
1000109c:	210a      	movs	r1, #10
1000109e:	4640      	mov	r0, r8
100010a0:	f003 fe3c 	bl	10004d1c <__wrap___aeabi_uidiv>
100010a4:	9500      	str	r5, [sp, #0]
100010a6:	b2cb      	uxtb	r3, r1
100010a8:	220b      	movs	r2, #11
100010aa:	2120      	movs	r1, #32
100010ac:	69e7      	ldr	r7, [r4, #28]
100010ae:	0020      	movs	r0, r4
100010b0:	47b8      	blx	r7
100010b2:	9500      	str	r5, [sp, #0]
100010b4:	231a      	movs	r3, #26
100010b6:	220b      	movs	r2, #11
100010b8:	2128      	movs	r1, #40	; 0x28
100010ba:	69e7      	ldr	r7, [r4, #28]
100010bc:	0020      	movs	r0, r4
100010be:	47b8      	blx	r7
100010c0:	210a      	movs	r1, #10
100010c2:	4650      	mov	r0, sl
100010c4:	f003 fe2a 	bl	10004d1c <__wrap___aeabi_uidiv>
100010c8:	9500      	str	r5, [sp, #0]
100010ca:	b2c3      	uxtb	r3, r0
100010cc:	220b      	movs	r2, #11
100010ce:	212d      	movs	r1, #45	; 0x2d
100010d0:	0020      	movs	r0, r4
100010d2:	69e7      	ldr	r7, [r4, #28]
100010d4:	47b8      	blx	r7
100010d6:	210a      	movs	r1, #10
100010d8:	4650      	mov	r0, sl
100010da:	f003 fe1f 	bl	10004d1c <__wrap___aeabi_uidiv>
100010de:	9500      	str	r5, [sp, #0]
100010e0:	b2cb      	uxtb	r3, r1
100010e2:	220b      	movs	r2, #11
100010e4:	2135      	movs	r1, #53	; 0x35
100010e6:	0020      	movs	r0, r4
100010e8:	69e5      	ldr	r5, [r4, #28]
100010ea:	47a8      	blx	r5
100010ec:	2e00      	cmp	r6, #0
100010ee:	d127      	bne.n	10001140 <_Z18displaySetTimePageP13DisplayDevicehhha+0x11c>
100010f0:	9600      	str	r6, [sp, #0]
100010f2:	69e5      	ldr	r5, [r4, #28]
100010f4:	235e      	movs	r3, #94	; 0x5e
100010f6:	2216      	movs	r2, #22
100010f8:	2108      	movs	r1, #8
100010fa:	0020      	movs	r0, r4
100010fc:	47a8      	blx	r5
100010fe:	2401      	movs	r4, #1
10001100:	2500      	movs	r5, #0
10001102:	9401      	str	r4, [sp, #4]
10001104:	9400      	str	r4, [sp, #0]
10001106:	230f      	movs	r3, #15
10001108:	223f      	movs	r2, #63	; 0x3f
1000110a:	2100      	movs	r1, #0
1000110c:	2000      	movs	r0, #0
1000110e:	f7ff fde9 	bl	10000ce4 <_Z17select_area_colorhhhhhh>
10001112:	9501      	str	r5, [sp, #4]
10001114:	9400      	str	r4, [sp, #0]
10001116:	2304      	movs	r3, #4
10001118:	223f      	movs	r2, #63	; 0x3f
1000111a:	2100      	movs	r1, #0
1000111c:	2000      	movs	r0, #0
1000111e:	f7ff fde1 	bl	10000ce4 <_Z17select_area_colorhhhhhh>
10001122:	2306      	movs	r3, #6
10001124:	9501      	str	r5, [sp, #4]
10001126:	9300      	str	r3, [sp, #0]
10001128:	223f      	movs	r2, #63	; 0x3f
1000112a:	3309      	adds	r3, #9
1000112c:	2105      	movs	r1, #5
1000112e:	2000      	movs	r0, #0
10001130:	f7ff fdd8 	bl	10000ce4 <_Z17select_area_colorhhhhhh>
10001134:	b002      	add	sp, #8
10001136:	bc1c      	pop	{r2, r3, r4}
10001138:	4690      	mov	r8, r2
1000113a:	4699      	mov	r9, r3
1000113c:	46a2      	mov	sl, r4
1000113e:	bdf0      	pop	{r4, r5, r6, r7, pc}
10001140:	2e01      	cmp	r6, #1
10001142:	d108      	bne.n	10001156 <_Z18displaySetTimePageP13DisplayDevicehhha+0x132>
10001144:	2300      	movs	r3, #0
10001146:	9300      	str	r3, [sp, #0]
10001148:	69e5      	ldr	r5, [r4, #28]
1000114a:	335e      	adds	r3, #94	; 0x5e
1000114c:	2216      	movs	r2, #22
1000114e:	211d      	movs	r1, #29
10001150:	0020      	movs	r0, r4
10001152:	47a8      	blx	r5
10001154:	e7d3      	b.n	100010fe <_Z18displaySetTimePageP13DisplayDevicehhha+0xda>
10001156:	2e02      	cmp	r6, #2
10001158:	d1d1      	bne.n	100010fe <_Z18displaySetTimePageP13DisplayDevicehhha+0xda>
1000115a:	2300      	movs	r3, #0
1000115c:	9300      	str	r3, [sp, #0]
1000115e:	69e5      	ldr	r5, [r4, #28]
10001160:	335e      	adds	r3, #94	; 0x5e
10001162:	2216      	movs	r2, #22
10001164:	2132      	movs	r1, #50	; 0x32
10001166:	0020      	movs	r0, r4
10001168:	47a8      	blx	r5
1000116a:	e7c8      	b.n	100010fe <_Z18displaySetTimePageP13DisplayDevicehhha+0xda>

1000116c <_Z18displaySetDatePageP13DisplayDevicethha>:
1000116c:	b5f0      	push	{r4, r5, r6, r7, lr}
1000116e:	46d6      	mov	lr, sl
10001170:	464f      	mov	r7, r9
10001172:	4646      	mov	r6, r8
10001174:	4690      	mov	r8, r2
10001176:	2280      	movs	r2, #128	; 0x80
10001178:	b5c0      	push	{r6, r7, lr}
1000117a:	2600      	movs	r6, #0
1000117c:	b082      	sub	sp, #8
1000117e:	0004      	movs	r4, r0
10001180:	4689      	mov	r9, r1
10001182:	469a      	mov	sl, r3
10001184:	0052      	lsls	r2, r2, #1
10001186:	ab0a      	add	r3, sp, #40	; 0x28
10001188:	2100      	movs	r1, #0
1000118a:	6840      	ldr	r0, [r0, #4]
1000118c:	579e      	ldrsb	r6, [r3, r6]
1000118e:	f003 fe9d 	bl	10004ecc <__wrap_memset>
10001192:	21fa      	movs	r1, #250	; 0xfa
10001194:	4648      	mov	r0, r9
10001196:	0089      	lsls	r1, r1, #2
10001198:	f003 fdc0 	bl	10004d1c <__wrap___aeabi_uidiv>
1000119c:	2500      	movs	r5, #0
1000119e:	0003      	movs	r3, r0
100011a0:	9500      	str	r5, [sp, #0]
100011a2:	3330      	adds	r3, #48	; 0x30
100011a4:	b2db      	uxtb	r3, r3
100011a6:	220d      	movs	r2, #13
100011a8:	210a      	movs	r1, #10
100011aa:	69e7      	ldr	r7, [r4, #28]
100011ac:	0020      	movs	r0, r4
100011ae:	47b8      	blx	r7
100011b0:	2164      	movs	r1, #100	; 0x64
100011b2:	4648      	mov	r0, r9
100011b4:	f003 fdb2 	bl	10004d1c <__wrap___aeabi_uidiv>
100011b8:	210a      	movs	r1, #10
100011ba:	b280      	uxth	r0, r0
100011bc:	f003 fdae 	bl	10004d1c <__wrap___aeabi_uidiv>
100011c0:	000b      	movs	r3, r1
100011c2:	9500      	str	r5, [sp, #0]
100011c4:	3330      	adds	r3, #48	; 0x30
100011c6:	b2db      	uxtb	r3, r3
100011c8:	220d      	movs	r2, #13
100011ca:	210f      	movs	r1, #15
100011cc:	69e7      	ldr	r7, [r4, #28]
100011ce:	0020      	movs	r0, r4
100011d0:	47b8      	blx	r7
100011d2:	210a      	movs	r1, #10
100011d4:	4648      	mov	r0, r9
100011d6:	f003 fda1 	bl	10004d1c <__wrap___aeabi_uidiv>
100011da:	210a      	movs	r1, #10
100011dc:	b280      	uxth	r0, r0
100011de:	f003 fd9d 	bl	10004d1c <__wrap___aeabi_uidiv>
100011e2:	000b      	movs	r3, r1
100011e4:	9500      	str	r5, [sp, #0]
100011e6:	3330      	adds	r3, #48	; 0x30
100011e8:	b2db      	uxtb	r3, r3
100011ea:	220d      	movs	r2, #13
100011ec:	2114      	movs	r1, #20
100011ee:	69e7      	ldr	r7, [r4, #28]
100011f0:	0020      	movs	r0, r4
100011f2:	47b8      	blx	r7
100011f4:	210a      	movs	r1, #10
100011f6:	4648      	mov	r0, r9
100011f8:	f003 fd90 	bl	10004d1c <__wrap___aeabi_uidiv>
100011fc:	000b      	movs	r3, r1
100011fe:	9500      	str	r5, [sp, #0]
10001200:	3330      	adds	r3, #48	; 0x30
10001202:	b2db      	uxtb	r3, r3
10001204:	220d      	movs	r2, #13
10001206:	2119      	movs	r1, #25
10001208:	69e7      	ldr	r7, [r4, #28]
1000120a:	0020      	movs	r0, r4
1000120c:	47b8      	blx	r7
1000120e:	9500      	str	r5, [sp, #0]
10001210:	232d      	movs	r3, #45	; 0x2d
10001212:	220d      	movs	r2, #13
10001214:	211e      	movs	r1, #30
10001216:	69e7      	ldr	r7, [r4, #28]
10001218:	0020      	movs	r0, r4
1000121a:	47b8      	blx	r7
1000121c:	210a      	movs	r1, #10
1000121e:	4640      	mov	r0, r8
10001220:	f003 fd7c 	bl	10004d1c <__wrap___aeabi_uidiv>
10001224:	0003      	movs	r3, r0
10001226:	9500      	str	r5, [sp, #0]
10001228:	3330      	adds	r3, #48	; 0x30
1000122a:	b2db      	uxtb	r3, r3
1000122c:	220d      	movs	r2, #13
1000122e:	2121      	movs	r1, #33	; 0x21
10001230:	69e7      	ldr	r7, [r4, #28]
10001232:	0020      	movs	r0, r4
10001234:	47b8      	blx	r7
10001236:	210a      	movs	r1, #10
10001238:	4640      	mov	r0, r8
1000123a:	f003 fd6f 	bl	10004d1c <__wrap___aeabi_uidiv>
1000123e:	000b      	movs	r3, r1
10001240:	9500      	str	r5, [sp, #0]
10001242:	3330      	adds	r3, #48	; 0x30
10001244:	b2db      	uxtb	r3, r3
10001246:	220d      	movs	r2, #13
10001248:	2126      	movs	r1, #38	; 0x26
1000124a:	69e7      	ldr	r7, [r4, #28]
1000124c:	0020      	movs	r0, r4
1000124e:	47b8      	blx	r7
10001250:	9500      	str	r5, [sp, #0]
10001252:	232d      	movs	r3, #45	; 0x2d
10001254:	220d      	movs	r2, #13
10001256:	212b      	movs	r1, #43	; 0x2b
10001258:	69e7      	ldr	r7, [r4, #28]
1000125a:	0020      	movs	r0, r4
1000125c:	47b8      	blx	r7
1000125e:	210a      	movs	r1, #10
10001260:	4650      	mov	r0, sl
10001262:	f003 fd5b 	bl	10004d1c <__wrap___aeabi_uidiv>
10001266:	0003      	movs	r3, r0
10001268:	9500      	str	r5, [sp, #0]
1000126a:	3330      	adds	r3, #48	; 0x30
1000126c:	b2db      	uxtb	r3, r3
1000126e:	220d      	movs	r2, #13
10001270:	212e      	movs	r1, #46	; 0x2e
10001272:	69e7      	ldr	r7, [r4, #28]
10001274:	0020      	movs	r0, r4
10001276:	47b8      	blx	r7
10001278:	210a      	movs	r1, #10
1000127a:	4650      	mov	r0, sl
1000127c:	f003 fd4e 	bl	10004d1c <__wrap___aeabi_uidiv>
10001280:	000b      	movs	r3, r1
10001282:	9500      	str	r5, [sp, #0]
10001284:	3330      	adds	r3, #48	; 0x30
10001286:	b2db      	uxtb	r3, r3
10001288:	220d      	movs	r2, #13
1000128a:	2133      	movs	r1, #51	; 0x33
1000128c:	0020      	movs	r0, r4
1000128e:	69e7      	ldr	r7, [r4, #28]
10001290:	47b8      	blx	r7
10001292:	2e00      	cmp	r6, #0
10001294:	d127      	bne.n	100012e6 <_Z18displaySetDatePageP13DisplayDevicethha+0x17a>
10001296:	9600      	str	r6, [sp, #0]
10001298:	69e5      	ldr	r5, [r4, #28]
1000129a:	235e      	movs	r3, #94	; 0x5e
1000129c:	2215      	movs	r2, #21
1000129e:	2111      	movs	r1, #17
100012a0:	0020      	movs	r0, r4
100012a2:	47a8      	blx	r5
100012a4:	2401      	movs	r4, #1
100012a6:	2500      	movs	r5, #0
100012a8:	9401      	str	r4, [sp, #4]
100012aa:	9400      	str	r4, [sp, #0]
100012ac:	230f      	movs	r3, #15
100012ae:	223f      	movs	r2, #63	; 0x3f
100012b0:	2100      	movs	r1, #0
100012b2:	2000      	movs	r0, #0
100012b4:	f7ff fd16 	bl	10000ce4 <_Z17select_area_colorhhhhhh>
100012b8:	9501      	str	r5, [sp, #4]
100012ba:	9400      	str	r4, [sp, #0]
100012bc:	2304      	movs	r3, #4
100012be:	223f      	movs	r2, #63	; 0x3f
100012c0:	2100      	movs	r1, #0
100012c2:	2000      	movs	r0, #0
100012c4:	f7ff fd0e 	bl	10000ce4 <_Z17select_area_colorhhhhhh>
100012c8:	2306      	movs	r3, #6
100012ca:	9501      	str	r5, [sp, #4]
100012cc:	9300      	str	r3, [sp, #0]
100012ce:	223f      	movs	r2, #63	; 0x3f
100012d0:	3309      	adds	r3, #9
100012d2:	2105      	movs	r1, #5
100012d4:	2000      	movs	r0, #0
100012d6:	f7ff fd05 	bl	10000ce4 <_Z17select_area_colorhhhhhh>
100012da:	b002      	add	sp, #8
100012dc:	bc1c      	pop	{r2, r3, r4}
100012de:	4690      	mov	r8, r2
100012e0:	4699      	mov	r9, r3
100012e2:	46a2      	mov	sl, r4
100012e4:	bdf0      	pop	{r4, r5, r6, r7, pc}
100012e6:	2e01      	cmp	r6, #1
100012e8:	d107      	bne.n	100012fa <_Z18displaySetDatePageP13DisplayDevicethha+0x18e>
100012ea:	9500      	str	r5, [sp, #0]
100012ec:	69e5      	ldr	r5, [r4, #28]
100012ee:	235e      	movs	r3, #94	; 0x5e
100012f0:	2215      	movs	r2, #21
100012f2:	2123      	movs	r1, #35	; 0x23
100012f4:	0020      	movs	r0, r4
100012f6:	47a8      	blx	r5
100012f8:	e7d4      	b.n	100012a4 <_Z18displaySetDatePageP13DisplayDevicethha+0x138>
100012fa:	2e02      	cmp	r6, #2
100012fc:	d1d2      	bne.n	100012a4 <_Z18displaySetDatePageP13DisplayDevicethha+0x138>
100012fe:	9500      	str	r5, [sp, #0]
10001300:	69e5      	ldr	r5, [r4, #28]
10001302:	235e      	movs	r3, #94	; 0x5e
10001304:	2215      	movs	r2, #21
10001306:	2130      	movs	r1, #48	; 0x30
10001308:	0020      	movs	r0, r4
1000130a:	47a8      	blx	r5
1000130c:	e7ca      	b.n	100012a4 <_Z18displaySetDatePageP13DisplayDevicethha+0x138>
1000130e:	46c0      	nop			; (mov r8, r8)

10001310 <_Z29displayAutoLightBeepOnOffPageP13DisplayDevicehhh>:
10001310:	b5f0      	push	{r4, r5, r6, r7, lr}
10001312:	46ce      	mov	lr, r9
10001314:	4647      	mov	r7, r8
10001316:	4691      	mov	r9, r2
10001318:	2280      	movs	r2, #128	; 0x80
1000131a:	0004      	movs	r4, r0
1000131c:	2500      	movs	r5, #0
1000131e:	b580      	push	{r7, lr}
10001320:	000e      	movs	r6, r1
10001322:	b083      	sub	sp, #12
10001324:	0052      	lsls	r2, r2, #1
10001326:	2100      	movs	r1, #0
10001328:	6840      	ldr	r0, [r0, #4]
1000132a:	4698      	mov	r8, r3
1000132c:	f003 fdce 	bl	10004ecc <__wrap_memset>
10001330:	9500      	str	r5, [sp, #0]
10001332:	2330      	movs	r3, #48	; 0x30
10001334:	2204      	movs	r2, #4
10001336:	211c      	movs	r1, #28
10001338:	69e7      	ldr	r7, [r4, #28]
1000133a:	0020      	movs	r0, r4
1000133c:	47b8      	blx	r7
1000133e:	9500      	str	r5, [sp, #0]
10001340:	234e      	movs	r3, #78	; 0x4e
10001342:	2204      	movs	r2, #4
10001344:	2121      	movs	r1, #33	; 0x21
10001346:	69e7      	ldr	r7, [r4, #28]
10001348:	0020      	movs	r0, r4
1000134a:	47b8      	blx	r7
1000134c:	9500      	str	r5, [sp, #0]
1000134e:	2330      	movs	r3, #48	; 0x30
10001350:	2214      	movs	r2, #20
10001352:	211a      	movs	r1, #26
10001354:	69e7      	ldr	r7, [r4, #28]
10001356:	0020      	movs	r0, r4
10001358:	47b8      	blx	r7
1000135a:	9500      	str	r5, [sp, #0]
1000135c:	2346      	movs	r3, #70	; 0x46
1000135e:	2214      	movs	r2, #20
10001360:	211f      	movs	r1, #31
10001362:	0020      	movs	r0, r4
10001364:	69e7      	ldr	r7, [r4, #28]
10001366:	47b8      	blx	r7
10001368:	9500      	str	r5, [sp, #0]
1000136a:	2346      	movs	r3, #70	; 0x46
1000136c:	2214      	movs	r2, #20
1000136e:	2124      	movs	r1, #36	; 0x24
10001370:	0020      	movs	r0, r4
10001372:	69e5      	ldr	r5, [r4, #28]
10001374:	47a8      	blx	r5
10001376:	2e03      	cmp	r6, #3
10001378:	d025      	beq.n	100013c6 <_Z29displayAutoLightBeepOnOffPageP13DisplayDevicehhh+0xb6>
1000137a:	2e04      	cmp	r6, #4
1000137c:	d017      	beq.n	100013ae <_Z29displayAutoLightBeepOnOffPageP13DisplayDevicehhh+0x9e>
1000137e:	2301      	movs	r3, #1
10001380:	223f      	movs	r2, #63	; 0x3f
10001382:	9301      	str	r3, [sp, #4]
10001384:	9300      	str	r3, [sp, #0]
10001386:	2100      	movs	r1, #0
10001388:	330e      	adds	r3, #14
1000138a:	2000      	movs	r0, #0
1000138c:	f7ff fcaa 	bl	10000ce4 <_Z17select_area_colorhhhhhh>
10001390:	2300      	movs	r3, #0
10001392:	9301      	str	r3, [sp, #4]
10001394:	3304      	adds	r3, #4
10001396:	9300      	str	r3, [sp, #0]
10001398:	223f      	movs	r2, #63	; 0x3f
1000139a:	330b      	adds	r3, #11
1000139c:	2100      	movs	r1, #0
1000139e:	2000      	movs	r0, #0
100013a0:	f7ff fca0 	bl	10000ce4 <_Z17select_area_colorhhhhhh>
100013a4:	b003      	add	sp, #12
100013a6:	bc0c      	pop	{r2, r3}
100013a8:	4690      	mov	r8, r2
100013aa:	4699      	mov	r9, r3
100013ac:	bdf0      	pop	{r4, r5, r6, r7, pc}
100013ae:	4643      	mov	r3, r8
100013b0:	69e5      	ldr	r5, [r4, #28]
100013b2:	2b00      	cmp	r3, #0
100013b4:	d00b      	beq.n	100013ce <_Z29displayAutoLightBeepOnOffPageP13DisplayDevicehhh+0xbe>
100013b6:	2301      	movs	r3, #1
100013b8:	2202      	movs	r2, #2
100013ba:	9300      	str	r3, [sp, #0]
100013bc:	2114      	movs	r1, #20
100013be:	3318      	adds	r3, #24
100013c0:	0020      	movs	r0, r4
100013c2:	47a8      	blx	r5
100013c4:	e7db      	b.n	1000137e <_Z29displayAutoLightBeepOnOffPageP13DisplayDevicehhh+0x6e>
100013c6:	464b      	mov	r3, r9
100013c8:	69e5      	ldr	r5, [r4, #28]
100013ca:	2b00      	cmp	r3, #0
100013cc:	d1f3      	bne.n	100013b6 <_Z29displayAutoLightBeepOnOffPageP13DisplayDevicehhh+0xa6>
100013ce:	3301      	adds	r3, #1
100013d0:	9300      	str	r3, [sp, #0]
100013d2:	2212      	movs	r2, #18
100013d4:	3318      	adds	r3, #24
100013d6:	2112      	movs	r1, #18
100013d8:	0020      	movs	r0, r4
100013da:	47a8      	blx	r5
100013dc:	e7cf      	b.n	1000137e <_Z29displayAutoLightBeepOnOffPageP13DisplayDevicehhh+0x6e>
100013de:	46c0      	nop			; (mov r8, r8)

100013e0 <_Z22displaySetLanguagePageP13DisplayDeviceh>:
100013e0:	2280      	movs	r2, #128	; 0x80
100013e2:	b5f0      	push	{r4, r5, r6, r7, lr}
100013e4:	0004      	movs	r4, r0
100013e6:	2500      	movs	r5, #0
100013e8:	b083      	sub	sp, #12
100013ea:	0052      	lsls	r2, r2, #1
100013ec:	000e      	movs	r6, r1
100013ee:	6840      	ldr	r0, [r0, #4]
100013f0:	2100      	movs	r1, #0
100013f2:	f003 fd6b 	bl	10004ecc <__wrap_memset>
100013f6:	9500      	str	r5, [sp, #0]
100013f8:	2349      	movs	r3, #73	; 0x49
100013fa:	2204      	movs	r2, #4
100013fc:	210f      	movs	r1, #15
100013fe:	69e7      	ldr	r7, [r4, #28]
10001400:	0020      	movs	r0, r4
10001402:	47b8      	blx	r7
10001404:	9500      	str	r5, [sp, #0]
10001406:	2354      	movs	r3, #84	; 0x54
10001408:	2204      	movs	r2, #4
1000140a:	2114      	movs	r1, #20
1000140c:	69e7      	ldr	r7, [r4, #28]
1000140e:	0020      	movs	r0, r4
10001410:	47b8      	blx	r7
10001412:	9500      	str	r5, [sp, #0]
10001414:	2341      	movs	r3, #65	; 0x41
10001416:	2204      	movs	r2, #4
10001418:	211a      	movs	r1, #26
1000141a:	69e7      	ldr	r7, [r4, #28]
1000141c:	0020      	movs	r0, r4
1000141e:	47b8      	blx	r7
10001420:	9500      	str	r5, [sp, #0]
10001422:	234c      	movs	r3, #76	; 0x4c
10001424:	2204      	movs	r2, #4
10001426:	211f      	movs	r1, #31
10001428:	69e7      	ldr	r7, [r4, #28]
1000142a:	0020      	movs	r0, r4
1000142c:	47b8      	blx	r7
1000142e:	9500      	str	r5, [sp, #0]
10001430:	2349      	movs	r3, #73	; 0x49
10001432:	2204      	movs	r2, #4
10001434:	2123      	movs	r1, #35	; 0x23
10001436:	69e7      	ldr	r7, [r4, #28]
10001438:	0020      	movs	r0, r4
1000143a:	47b8      	blx	r7
1000143c:	9500      	str	r5, [sp, #0]
1000143e:	2341      	movs	r3, #65	; 0x41
10001440:	2204      	movs	r2, #4
10001442:	2128      	movs	r1, #40	; 0x28
10001444:	69e7      	ldr	r7, [r4, #28]
10001446:	0020      	movs	r0, r4
10001448:	47b8      	blx	r7
1000144a:	9500      	str	r5, [sp, #0]
1000144c:	234e      	movs	r3, #78	; 0x4e
1000144e:	2204      	movs	r2, #4
10001450:	212d      	movs	r1, #45	; 0x2d
10001452:	69e7      	ldr	r7, [r4, #28]
10001454:	0020      	movs	r0, r4
10001456:	47b8      	blx	r7
10001458:	9500      	str	r5, [sp, #0]
1000145a:	2345      	movs	r3, #69	; 0x45
1000145c:	2214      	movs	r2, #20
1000145e:	210f      	movs	r1, #15
10001460:	69e7      	ldr	r7, [r4, #28]
10001462:	0020      	movs	r0, r4
10001464:	47b8      	blx	r7
10001466:	9500      	str	r5, [sp, #0]
10001468:	234e      	movs	r3, #78	; 0x4e
1000146a:	2214      	movs	r2, #20
1000146c:	2114      	movs	r1, #20
1000146e:	69e7      	ldr	r7, [r4, #28]
10001470:	0020      	movs	r0, r4
10001472:	47b8      	blx	r7
10001474:	9500      	str	r5, [sp, #0]
10001476:	2347      	movs	r3, #71	; 0x47
10001478:	2214      	movs	r2, #20
1000147a:	2119      	movs	r1, #25
1000147c:	69e7      	ldr	r7, [r4, #28]
1000147e:	0020      	movs	r0, r4
10001480:	47b8      	blx	r7
10001482:	9500      	str	r5, [sp, #0]
10001484:	234c      	movs	r3, #76	; 0x4c
10001486:	2214      	movs	r2, #20
10001488:	211e      	movs	r1, #30
1000148a:	69e7      	ldr	r7, [r4, #28]
1000148c:	0020      	movs	r0, r4
1000148e:	47b8      	blx	r7
10001490:	9500      	str	r5, [sp, #0]
10001492:	2349      	movs	r3, #73	; 0x49
10001494:	2214      	movs	r2, #20
10001496:	2122      	movs	r1, #34	; 0x22
10001498:	69e7      	ldr	r7, [r4, #28]
1000149a:	0020      	movs	r0, r4
1000149c:	47b8      	blx	r7
1000149e:	9500      	str	r5, [sp, #0]
100014a0:	2353      	movs	r3, #83	; 0x53
100014a2:	2214      	movs	r2, #20
100014a4:	2127      	movs	r1, #39	; 0x27
100014a6:	0020      	movs	r0, r4
100014a8:	69e7      	ldr	r7, [r4, #28]
100014aa:	47b8      	blx	r7
100014ac:	9500      	str	r5, [sp, #0]
100014ae:	2348      	movs	r3, #72	; 0x48
100014b0:	69e5      	ldr	r5, [r4, #28]
100014b2:	2214      	movs	r2, #20
100014b4:	212d      	movs	r1, #45	; 0x2d
100014b6:	0020      	movs	r0, r4
100014b8:	47a8      	blx	r5
100014ba:	2301      	movs	r3, #1
100014bc:	69e5      	ldr	r5, [r4, #28]
100014be:	9300      	str	r3, [sp, #0]
100014c0:	3318      	adds	r3, #24
100014c2:	2e00      	cmp	r6, #0
100014c4:	d018      	beq.n	100014f8 <_Z22displaySetLanguagePageP13DisplayDeviceh+0x118>
100014c6:	2212      	movs	r2, #18
100014c8:	2107      	movs	r1, #7
100014ca:	0020      	movs	r0, r4
100014cc:	47a8      	blx	r5
100014ce:	2301      	movs	r3, #1
100014d0:	223f      	movs	r2, #63	; 0x3f
100014d2:	9301      	str	r3, [sp, #4]
100014d4:	9300      	str	r3, [sp, #0]
100014d6:	2100      	movs	r1, #0
100014d8:	330e      	adds	r3, #14
100014da:	2000      	movs	r0, #0
100014dc:	f7ff fc02 	bl	10000ce4 <_Z17select_area_colorhhhhhh>
100014e0:	2300      	movs	r3, #0
100014e2:	9301      	str	r3, [sp, #4]
100014e4:	3304      	adds	r3, #4
100014e6:	9300      	str	r3, [sp, #0]
100014e8:	223f      	movs	r2, #63	; 0x3f
100014ea:	330b      	adds	r3, #11
100014ec:	2100      	movs	r1, #0
100014ee:	2000      	movs	r0, #0
100014f0:	f7ff fbf8 	bl	10000ce4 <_Z17select_area_colorhhhhhh>
100014f4:	b003      	add	sp, #12
100014f6:	bdf0      	pop	{r4, r5, r6, r7, pc}
100014f8:	2202      	movs	r2, #2
100014fa:	2107      	movs	r1, #7
100014fc:	0020      	movs	r0, r4
100014fe:	47a8      	blx	r5
10001500:	e7e5      	b.n	100014ce <_Z22displaySetLanguagePageP13DisplayDeviceh+0xee>
10001502:	46c0      	nop			; (mov r8, r8)

10001504 <_Z13LunarCalendarttt>:
10001504:	b5f0      	push	{r4, r5, r6, r7, lr}
10001506:	271f      	movs	r7, #31
10001508:	4b5c      	ldr	r3, [pc, #368]	; (1000167c <_Z13LunarCalendarttt+0x178>)
1000150a:	4e5d      	ldr	r6, [pc, #372]	; (10001680 <_Z13LunarCalendarttt+0x17c>)
1000150c:	18c3      	adds	r3, r0, r3
1000150e:	009b      	lsls	r3, r3, #2
10001510:	58f5      	ldr	r5, [r6, r3]
10001512:	46c6      	mov	lr, r8
10001514:	402f      	ands	r7, r5
10001516:	003c      	movs	r4, r7
10001518:	066b      	lsls	r3, r5, #25
1000151a:	b500      	push	{lr}
1000151c:	0f9b      	lsrs	r3, r3, #30
1000151e:	341e      	adds	r4, #30
10001520:	2b01      	cmp	r3, #1
10001522:	d101      	bne.n	10001528 <_Z13LunarCalendarttt+0x24>
10001524:	3f01      	subs	r7, #1
10001526:	b2bc      	uxth	r4, r7
10001528:	1e4b      	subs	r3, r1, #1
1000152a:	4f56      	ldr	r7, [pc, #344]	; (10001684 <_Z13LunarCalendarttt+0x180>)
1000152c:	005b      	lsls	r3, r3, #1
1000152e:	5bdb      	ldrh	r3, [r3, r7]
10001530:	18d2      	adds	r2, r2, r3
10001532:	b292      	uxth	r2, r2
10001534:	1e53      	subs	r3, r2, #1
10001536:	b29b      	uxth	r3, r3
10001538:	0787      	lsls	r7, r0, #30
1000153a:	d101      	bne.n	10001540 <_Z13LunarCalendarttt+0x3c>
1000153c:	2902      	cmp	r1, #2
1000153e:	d86f      	bhi.n	10001620 <_Z13LunarCalendarttt+0x11c>
10001540:	429c      	cmp	r4, r3
10001542:	d839      	bhi.n	100015b8 <_Z13LunarCalendarttt+0xb4>
10001544:	2780      	movs	r7, #128	; 0x80
10001546:	0029      	movs	r1, r5
10001548:	033f      	lsls	r7, r7, #12
1000154a:	4039      	ands	r1, r7
1000154c:	1b1a      	subs	r2, r3, r4
1000154e:	1e4b      	subs	r3, r1, #1
10001550:	4199      	sbcs	r1, r3
10001552:	0228      	lsls	r0, r5, #8
10001554:	b292      	uxth	r2, r2
10001556:	311d      	adds	r1, #29
10001558:	0f00      	lsrs	r0, r0, #28
1000155a:	428a      	cmp	r2, r1
1000155c:	d200      	bcs.n	10001560 <_Z13LunarCalendarttt+0x5c>
1000155e:	e085      	b.n	1000166c <_Z13LunarCalendarttt+0x168>
10001560:	2300      	movs	r3, #0
10001562:	2401      	movs	r4, #1
10001564:	1a52      	subs	r2, r2, r1
10001566:	469c      	mov	ip, r3
10001568:	1c61      	adds	r1, r4, #1
1000156a:	3301      	adds	r3, #1
1000156c:	b292      	uxth	r2, r2
1000156e:	4688      	mov	r8, r1
10001570:	4283      	cmp	r3, r0
10001572:	d010      	beq.n	10001596 <_Z13LunarCalendarttt+0x92>
10001574:	3301      	adds	r3, #1
10001576:	b29b      	uxth	r3, r3
10001578:	0019      	movs	r1, r3
1000157a:	003e      	movs	r6, r7
1000157c:	4126      	asrs	r6, r4
1000157e:	4235      	tst	r5, r6
10001580:	d015      	beq.n	100015ae <_Z13LunarCalendarttt+0xaa>
10001582:	2a1d      	cmp	r2, #29
10001584:	d95a      	bls.n	1000163c <_Z13LunarCalendarttt+0x138>
10001586:	211e      	movs	r1, #30
10001588:	4644      	mov	r4, r8
1000158a:	1a52      	subs	r2, r2, r1
1000158c:	1c61      	adds	r1, r4, #1
1000158e:	b292      	uxth	r2, r2
10001590:	4688      	mov	r8, r1
10001592:	4283      	cmp	r3, r0
10001594:	d1ee      	bne.n	10001574 <_Z13LunarCalendarttt+0x70>
10001596:	4661      	mov	r1, ip
10001598:	3101      	adds	r1, #1
1000159a:	d14a      	bne.n	10001632 <_Z13LunarCalendarttt+0x12e>
1000159c:	2600      	movs	r6, #0
1000159e:	46b4      	mov	ip, r6
100015a0:	003e      	movs	r6, r7
100015a2:	4126      	asrs	r6, r4
100015a4:	3301      	adds	r3, #1
100015a6:	b29b      	uxth	r3, r3
100015a8:	0019      	movs	r1, r3
100015aa:	4235      	tst	r5, r6
100015ac:	d1e9      	bne.n	10001582 <_Z13LunarCalendarttt+0x7e>
100015ae:	2a1c      	cmp	r2, #28
100015b0:	d944      	bls.n	1000163c <_Z13LunarCalendarttt+0x138>
100015b2:	211d      	movs	r1, #29
100015b4:	4644      	mov	r4, r8
100015b6:	e7e8      	b.n	1000158a <_Z13LunarCalendarttt+0x86>
100015b8:	1ae4      	subs	r4, r4, r3
100015ba:	4b30      	ldr	r3, [pc, #192]	; (1000167c <_Z13LunarCalendarttt+0x178>)
100015bc:	3801      	subs	r0, #1
100015be:	469c      	mov	ip, r3
100015c0:	b280      	uxth	r0, r0
100015c2:	4460      	add	r0, ip
100015c4:	0080      	lsls	r0, r0, #2
100015c6:	5837      	ldr	r7, [r6, r0]
100015c8:	b2a4      	uxth	r4, r4
100015ca:	0238      	lsls	r0, r7, #8
100015cc:	0f00      	lsrs	r0, r0, #28
100015ce:	2380      	movs	r3, #128	; 0x80
100015d0:	250d      	movs	r5, #13
100015d2:	2800      	cmp	r0, #0
100015d4:	d101      	bne.n	100015da <_Z13LunarCalendarttt+0xd6>
100015d6:	250c      	movs	r5, #12
100015d8:	005b      	lsls	r3, r3, #1
100015da:	423b      	tst	r3, r7
100015dc:	d022      	beq.n	10001624 <_Z13LunarCalendarttt+0x120>
100015de:	221f      	movs	r2, #31
100015e0:	211e      	movs	r1, #30
100015e2:	42a1      	cmp	r1, r4
100015e4:	d245      	bcs.n	10001672 <_Z13LunarCalendarttt+0x16e>
100015e6:	2280      	movs	r2, #128	; 0x80
100015e8:	0312      	lsls	r2, r2, #12
100015ea:	2600      	movs	r6, #0
100015ec:	230c      	movs	r3, #12
100015ee:	4694      	mov	ip, r2
100015f0:	3d02      	subs	r5, #2
100015f2:	1a64      	subs	r4, r4, r1
100015f4:	b2a4      	uxth	r4, r4
100015f6:	2e00      	cmp	r6, #0
100015f8:	d101      	bne.n	100015fe <_Z13LunarCalendarttt+0xfa>
100015fa:	3b01      	subs	r3, #1
100015fc:	b29b      	uxth	r3, r3
100015fe:	0019      	movs	r1, r3
10001600:	4298      	cmp	r0, r3
10001602:	d100      	bne.n	10001606 <_Z13LunarCalendarttt+0x102>
10001604:	43f6      	mvns	r6, r6
10001606:	4662      	mov	r2, ip
10001608:	412a      	asrs	r2, r5
1000160a:	3d01      	subs	r5, #1
1000160c:	4217      	tst	r7, r2
1000160e:	d00c      	beq.n	1000162a <_Z13LunarCalendarttt+0x126>
10001610:	2c1e      	cmp	r4, #30
10001612:	d923      	bls.n	1000165c <_Z13LunarCalendarttt+0x158>
10001614:	211e      	movs	r1, #30
10001616:	1a64      	subs	r4, r4, r1
10001618:	b2a4      	uxth	r4, r4
1000161a:	2e00      	cmp	r6, #0
1000161c:	d1ef      	bne.n	100015fe <_Z13LunarCalendarttt+0xfa>
1000161e:	e7ec      	b.n	100015fa <_Z13LunarCalendarttt+0xf6>
10001620:	0013      	movs	r3, r2
10001622:	e78d      	b.n	10001540 <_Z13LunarCalendarttt+0x3c>
10001624:	221e      	movs	r2, #30
10001626:	211d      	movs	r1, #29
10001628:	e7db      	b.n	100015e2 <_Z13LunarCalendarttt+0xde>
1000162a:	2c1d      	cmp	r4, #29
1000162c:	d91c      	bls.n	10001668 <_Z13LunarCalendarttt+0x164>
1000162e:	211d      	movs	r1, #29
10001630:	e7df      	b.n	100015f2 <_Z13LunarCalendarttt+0xee>
10001632:	2601      	movs	r6, #1
10001634:	4276      	negs	r6, r6
10001636:	0019      	movs	r1, r3
10001638:	46b4      	mov	ip, r6
1000163a:	e79e      	b.n	1000157a <_Z13LunarCalendarttt+0x76>
1000163c:	019b      	lsls	r3, r3, #6
1000163e:	b21b      	sxth	r3, r3
10001640:	3201      	adds	r2, #1
10001642:	b292      	uxth	r2, r2
10001644:	1a40      	subs	r0, r0, r1
10001646:	4241      	negs	r1, r0
10001648:	4148      	adcs	r0, r1
1000164a:	4c0f      	ldr	r4, [pc, #60]	; (10001688 <_Z13LunarCalendarttt+0x184>)
1000164c:	b2c0      	uxtb	r0, r0
1000164e:	8825      	ldrh	r5, [r4, #0]
10001650:	432a      	orrs	r2, r5
10001652:	4313      	orrs	r3, r2
10001654:	8023      	strh	r3, [r4, #0]
10001656:	bc04      	pop	{r2}
10001658:	4690      	mov	r8, r2
1000165a:	bdf0      	pop	{r4, r5, r6, r7, pc}
1000165c:	221f      	movs	r2, #31
1000165e:	019b      	lsls	r3, r3, #6
10001660:	b21b      	sxth	r3, r3
10001662:	1b12      	subs	r2, r2, r4
10001664:	b292      	uxth	r2, r2
10001666:	e7ed      	b.n	10001644 <_Z13LunarCalendarttt+0x140>
10001668:	221e      	movs	r2, #30
1000166a:	e7f8      	b.n	1000165e <_Z13LunarCalendarttt+0x15a>
1000166c:	2340      	movs	r3, #64	; 0x40
1000166e:	2101      	movs	r1, #1
10001670:	e7e6      	b.n	10001640 <_Z13LunarCalendarttt+0x13c>
10001672:	23c0      	movs	r3, #192	; 0xc0
10001674:	210c      	movs	r1, #12
10001676:	009b      	lsls	r3, r3, #2
10001678:	e7f3      	b.n	10001662 <_Z13LunarCalendarttt+0x15e>
1000167a:	46c0      	nop			; (mov r8, r8)
1000167c:	fffff893 	.word	0xfffff893
10001680:	1000813c 	.word	0x1000813c
10001684:	10008458 	.word	0x10008458
10001688:	20001698 	.word	0x20001698

1000168c <_Z19displayDateTimePageP13DisplayDeviceP6RTC_tmPh>:
1000168c:	b5f0      	push	{r4, r5, r6, r7, lr}
1000168e:	46de      	mov	lr, fp
10001690:	464e      	mov	r6, r9
10001692:	4645      	mov	r5, r8
10001694:	4657      	mov	r7, sl
10001696:	4690      	mov	r8, r2
10001698:	2280      	movs	r2, #128	; 0x80
1000169a:	b5e0      	push	{r5, r6, r7, lr}
1000169c:	2600      	movs	r6, #0
1000169e:	000d      	movs	r5, r1
100016a0:	b083      	sub	sp, #12
100016a2:	0052      	lsls	r2, r2, #1
100016a4:	2100      	movs	r1, #0
100016a6:	0004      	movs	r4, r0
100016a8:	6840      	ldr	r0, [r0, #4]
100016aa:	f003 fc0f 	bl	10004ecc <__wrap_memset>
100016ae:	4fda      	ldr	r7, [pc, #872]	; (10001a18 <_Z19displayDateTimePageP13DisplayDeviceP6RTC_tmPh+0x38c>)
100016b0:	803e      	strh	r6, [r7, #0]
100016b2:	792a      	ldrb	r2, [r5, #4]
100016b4:	7969      	ldrb	r1, [r5, #5]
100016b6:	88e8      	ldrh	r0, [r5, #6]
100016b8:	f7ff ff24 	bl	10001504 <_Z13LunarCalendarttt>
100016bc:	8839      	ldrh	r1, [r7, #0]
100016be:	4bd7      	ldr	r3, [pc, #860]	; (10001a1c <_Z19displayDateTimePageP13DisplayDeviceP6RTC_tmPh+0x390>)
100016c0:	058a      	lsls	r2, r1, #22
100016c2:	0f12      	lsrs	r2, r2, #28
100016c4:	701a      	strb	r2, [r3, #0]
100016c6:	233f      	movs	r3, #63	; 0x3f
100016c8:	4ad5      	ldr	r2, [pc, #852]	; (10001a20 <_Z19displayDateTimePageP13DisplayDeviceP6RTC_tmPh+0x394>)
100016ca:	400b      	ands	r3, r1
100016cc:	7013      	strb	r3, [r2, #0]
100016ce:	4bd5      	ldr	r3, [pc, #852]	; (10001a24 <_Z19displayDateTimePageP13DisplayDeviceP6RTC_tmPh+0x398>)
100016d0:	781f      	ldrb	r7, [r3, #0]
100016d2:	4699      	mov	r9, r3
100016d4:	2f00      	cmp	r7, #0
100016d6:	d000      	beq.n	100016da <_Z19displayDateTimePageP13DisplayDeviceP6RTC_tmPh+0x4e>
100016d8:	e1aa      	b.n	10001a30 <_Z19displayDateTimePageP13DisplayDeviceP6RTC_tmPh+0x3a4>
100016da:	4bd3      	ldr	r3, [pc, #844]	; (10001a28 <_Z19displayDateTimePageP13DisplayDeviceP6RTC_tmPh+0x39c>)
100016dc:	2101      	movs	r1, #1
100016de:	469a      	mov	sl, r3
100016e0:	4652      	mov	r2, sl
100016e2:	78eb      	ldrb	r3, [r5, #3]
100016e4:	69e6      	ldr	r6, [r4, #28]
100016e6:	3b01      	subs	r3, #1
100016e8:	009b      	lsls	r3, r3, #2
100016ea:	589b      	ldr	r3, [r3, r2]
100016ec:	0020      	movs	r0, r4
100016ee:	781b      	ldrb	r3, [r3, #0]
100016f0:	2201      	movs	r2, #1
100016f2:	9700      	str	r7, [sp, #0]
100016f4:	47b0      	blx	r6
100016f6:	4652      	mov	r2, sl
100016f8:	78eb      	ldrb	r3, [r5, #3]
100016fa:	2106      	movs	r1, #6
100016fc:	3b01      	subs	r3, #1
100016fe:	009b      	lsls	r3, r3, #2
10001700:	589b      	ldr	r3, [r3, r2]
10001702:	69e6      	ldr	r6, [r4, #28]
10001704:	785b      	ldrb	r3, [r3, #1]
10001706:	2201      	movs	r2, #1
10001708:	9700      	str	r7, [sp, #0]
1000170a:	0020      	movs	r0, r4
1000170c:	47b0      	blx	r6
1000170e:	4652      	mov	r2, sl
10001710:	78eb      	ldrb	r3, [r5, #3]
10001712:	210b      	movs	r1, #11
10001714:	3b01      	subs	r3, #1
10001716:	009b      	lsls	r3, r3, #2
10001718:	589b      	ldr	r3, [r3, r2]
1000171a:	0020      	movs	r0, r4
1000171c:	789b      	ldrb	r3, [r3, #2]
1000171e:	2201      	movs	r2, #1
10001720:	9700      	str	r7, [sp, #0]
10001722:	69e6      	ldr	r6, [r4, #28]
10001724:	47b0      	blx	r6
10001726:	7928      	ldrb	r0, [r5, #4]
10001728:	2809      	cmp	r0, #9
1000172a:	d90c      	bls.n	10001746 <_Z19displayDateTimePageP13DisplayDeviceP6RTC_tmPh+0xba>
1000172c:	210a      	movs	r1, #10
1000172e:	f003 faf5 	bl	10004d1c <__wrap___aeabi_uidiv>
10001732:	0003      	movs	r3, r0
10001734:	3330      	adds	r3, #48	; 0x30
10001736:	b2db      	uxtb	r3, r3
10001738:	9700      	str	r7, [sp, #0]
1000173a:	2201      	movs	r2, #1
1000173c:	2112      	movs	r1, #18
1000173e:	0020      	movs	r0, r4
10001740:	69e6      	ldr	r6, [r4, #28]
10001742:	47b0      	blx	r6
10001744:	7928      	ldrb	r0, [r5, #4]
10001746:	210a      	movs	r1, #10
10001748:	f003 fae8 	bl	10004d1c <__wrap___aeabi_uidiv>
1000174c:	000b      	movs	r3, r1
1000174e:	2600      	movs	r6, #0
10001750:	3330      	adds	r3, #48	; 0x30
10001752:	b2db      	uxtb	r3, r3
10001754:	9600      	str	r6, [sp, #0]
10001756:	2201      	movs	r2, #1
10001758:	2117      	movs	r1, #23
1000175a:	69e7      	ldr	r7, [r4, #28]
1000175c:	0020      	movs	r0, r4
1000175e:	47b8      	blx	r7
10001760:	4bb2      	ldr	r3, [pc, #712]	; (10001a2c <_Z19displayDateTimePageP13DisplayDeviceP6RTC_tmPh+0x3a0>)
10001762:	211e      	movs	r1, #30
10001764:	469a      	mov	sl, r3
10001766:	4652      	mov	r2, sl
10001768:	796b      	ldrb	r3, [r5, #5]
1000176a:	69e7      	ldr	r7, [r4, #28]
1000176c:	3b01      	subs	r3, #1
1000176e:	009b      	lsls	r3, r3, #2
10001770:	589b      	ldr	r3, [r3, r2]
10001772:	0020      	movs	r0, r4
10001774:	781b      	ldrb	r3, [r3, #0]
10001776:	2201      	movs	r2, #1
10001778:	9600      	str	r6, [sp, #0]
1000177a:	47b8      	blx	r7
1000177c:	4652      	mov	r2, sl
1000177e:	796b      	ldrb	r3, [r5, #5]
10001780:	2123      	movs	r1, #35	; 0x23
10001782:	3b01      	subs	r3, #1
10001784:	009b      	lsls	r3, r3, #2
10001786:	589b      	ldr	r3, [r3, r2]
10001788:	69e7      	ldr	r7, [r4, #28]
1000178a:	785b      	ldrb	r3, [r3, #1]
1000178c:	2201      	movs	r2, #1
1000178e:	9600      	str	r6, [sp, #0]
10001790:	0020      	movs	r0, r4
10001792:	47b8      	blx	r7
10001794:	4652      	mov	r2, sl
10001796:	796b      	ldrb	r3, [r5, #5]
10001798:	2128      	movs	r1, #40	; 0x28
1000179a:	3b01      	subs	r3, #1
1000179c:	009b      	lsls	r3, r3, #2
1000179e:	589b      	ldr	r3, [r3, r2]
100017a0:	69e7      	ldr	r7, [r4, #28]
100017a2:	789b      	ldrb	r3, [r3, #2]
100017a4:	2201      	movs	r2, #1
100017a6:	9600      	str	r6, [sp, #0]
100017a8:	0020      	movs	r0, r4
100017aa:	47b8      	blx	r7
100017ac:	4652      	mov	r2, sl
100017ae:	796b      	ldrb	r3, [r5, #5]
100017b0:	212d      	movs	r1, #45	; 0x2d
100017b2:	3b01      	subs	r3, #1
100017b4:	009b      	lsls	r3, r3, #2
100017b6:	589b      	ldr	r3, [r3, r2]
100017b8:	69e7      	ldr	r7, [r4, #28]
100017ba:	78db      	ldrb	r3, [r3, #3]
100017bc:	2201      	movs	r2, #1
100017be:	9600      	str	r6, [sp, #0]
100017c0:	0020      	movs	r0, r4
100017c2:	47b8      	blx	r7
100017c4:	4652      	mov	r2, sl
100017c6:	796b      	ldrb	r3, [r5, #5]
100017c8:	2132      	movs	r1, #50	; 0x32
100017ca:	3b01      	subs	r3, #1
100017cc:	009b      	lsls	r3, r3, #2
100017ce:	589b      	ldr	r3, [r3, r2]
100017d0:	69e7      	ldr	r7, [r4, #28]
100017d2:	791b      	ldrb	r3, [r3, #4]
100017d4:	2201      	movs	r2, #1
100017d6:	9600      	str	r6, [sp, #0]
100017d8:	0020      	movs	r0, r4
100017da:	47b8      	blx	r7
100017dc:	4652      	mov	r2, sl
100017de:	796b      	ldrb	r3, [r5, #5]
100017e0:	2137      	movs	r1, #55	; 0x37
100017e2:	3b01      	subs	r3, #1
100017e4:	009b      	lsls	r3, r3, #2
100017e6:	589b      	ldr	r3, [r3, r2]
100017e8:	0020      	movs	r0, r4
100017ea:	795b      	ldrb	r3, [r3, #5]
100017ec:	2201      	movs	r2, #1
100017ee:	9600      	str	r6, [sp, #0]
100017f0:	69e7      	ldr	r7, [r4, #28]
100017f2:	47b8      	blx	r7
100017f4:	4652      	mov	r2, sl
100017f6:	796b      	ldrb	r3, [r5, #5]
100017f8:	213c      	movs	r1, #60	; 0x3c
100017fa:	3b01      	subs	r3, #1
100017fc:	009b      	lsls	r3, r3, #2
100017fe:	589b      	ldr	r3, [r3, r2]
10001800:	0020      	movs	r0, r4
10001802:	799b      	ldrb	r3, [r3, #6]
10001804:	2201      	movs	r2, #1
10001806:	9600      	str	r6, [sp, #0]
10001808:	69e6      	ldr	r6, [r4, #28]
1000180a:	47b0      	blx	r6
1000180c:	2301      	movs	r3, #1
1000180e:	9301      	str	r3, [sp, #4]
10001810:	3301      	adds	r3, #1
10001812:	9300      	str	r3, [sp, #0]
10001814:	223f      	movs	r2, #63	; 0x3f
10001816:	3307      	adds	r3, #7
10001818:	2100      	movs	r1, #0
1000181a:	2000      	movs	r0, #0
1000181c:	f7ff fa62 	bl	10000ce4 <_Z17select_area_colorhhhhhh>
10001820:	78a8      	ldrb	r0, [r5, #2]
10001822:	210a      	movs	r1, #10
10001824:	2602      	movs	r6, #2
10001826:	f003 fa79 	bl	10004d1c <__wrap___aeabi_uidiv>
1000182a:	220b      	movs	r2, #11
1000182c:	b2c3      	uxtb	r3, r0
1000182e:	2103      	movs	r1, #3
10001830:	69e7      	ldr	r7, [r4, #28]
10001832:	9600      	str	r6, [sp, #0]
10001834:	0020      	movs	r0, r4
10001836:	47b8      	blx	r7
10001838:	78a8      	ldrb	r0, [r5, #2]
1000183a:	210a      	movs	r1, #10
1000183c:	f003 fa6e 	bl	10004d1c <__wrap___aeabi_uidiv>
10001840:	220b      	movs	r2, #11
10001842:	b2cb      	uxtb	r3, r1
10001844:	69e7      	ldr	r7, [r4, #28]
10001846:	210b      	movs	r1, #11
10001848:	9600      	str	r6, [sp, #0]
1000184a:	0020      	movs	r0, r4
1000184c:	47b8      	blx	r7
1000184e:	231a      	movs	r3, #26
10001850:	220b      	movs	r2, #11
10001852:	2113      	movs	r1, #19
10001854:	69e7      	ldr	r7, [r4, #28]
10001856:	9600      	str	r6, [sp, #0]
10001858:	0020      	movs	r0, r4
1000185a:	47b8      	blx	r7
1000185c:	7868      	ldrb	r0, [r5, #1]
1000185e:	210a      	movs	r1, #10
10001860:	f003 fa5c 	bl	10004d1c <__wrap___aeabi_uidiv>
10001864:	220b      	movs	r2, #11
10001866:	b2c3      	uxtb	r3, r0
10001868:	2118      	movs	r1, #24
1000186a:	69e7      	ldr	r7, [r4, #28]
1000186c:	9600      	str	r6, [sp, #0]
1000186e:	0020      	movs	r0, r4
10001870:	47b8      	blx	r7
10001872:	7868      	ldrb	r0, [r5, #1]
10001874:	210a      	movs	r1, #10
10001876:	f003 fa51 	bl	10004d1c <__wrap___aeabi_uidiv>
1000187a:	220b      	movs	r2, #11
1000187c:	b2cb      	uxtb	r3, r1
1000187e:	69e7      	ldr	r7, [r4, #28]
10001880:	2120      	movs	r1, #32
10001882:	9600      	str	r6, [sp, #0]
10001884:	0020      	movs	r0, r4
10001886:	47b8      	blx	r7
10001888:	2301      	movs	r3, #1
1000188a:	9301      	str	r3, [sp, #4]
1000188c:	3306      	adds	r3, #6
1000188e:	469b      	mov	fp, r3
10001890:	9300      	str	r3, [sp, #0]
10001892:	2227      	movs	r2, #39	; 0x27
10001894:	3308      	adds	r3, #8
10001896:	210b      	movs	r1, #11
10001898:	2000      	movs	r0, #0
1000189a:	f7ff fa23 	bl	10000ce4 <_Z17select_area_colorhhhhhh>
1000189e:	2300      	movs	r3, #0
100018a0:	469a      	mov	sl, r3
100018a2:	9301      	str	r3, [sp, #4]
100018a4:	465b      	mov	r3, fp
100018a6:	2227      	movs	r2, #39	; 0x27
100018a8:	9300      	str	r3, [sp, #0]
100018aa:	2100      	movs	r1, #0
100018ac:	3b03      	subs	r3, #3
100018ae:	2000      	movs	r0, #0
100018b0:	f7ff fa18 	bl	10000ce4 <_Z17select_area_colorhhhhhh>
100018b4:	231a      	movs	r3, #26
100018b6:	220b      	movs	r2, #11
100018b8:	2128      	movs	r1, #40	; 0x28
100018ba:	69e7      	ldr	r7, [r4, #28]
100018bc:	9600      	str	r6, [sp, #0]
100018be:	0020      	movs	r0, r4
100018c0:	47b8      	blx	r7
100018c2:	7828      	ldrb	r0, [r5, #0]
100018c4:	210a      	movs	r1, #10
100018c6:	f003 fa29 	bl	10004d1c <__wrap___aeabi_uidiv>
100018ca:	220b      	movs	r2, #11
100018cc:	b2c3      	uxtb	r3, r0
100018ce:	212d      	movs	r1, #45	; 0x2d
100018d0:	9600      	str	r6, [sp, #0]
100018d2:	0020      	movs	r0, r4
100018d4:	69e7      	ldr	r7, [r4, #28]
100018d6:	47b8      	blx	r7
100018d8:	7828      	ldrb	r0, [r5, #0]
100018da:	210a      	movs	r1, #10
100018dc:	f003 fa1e 	bl	10004d1c <__wrap___aeabi_uidiv>
100018e0:	220b      	movs	r2, #11
100018e2:	b2cb      	uxtb	r3, r1
100018e4:	69e5      	ldr	r5, [r4, #28]
100018e6:	2135      	movs	r1, #53	; 0x35
100018e8:	9600      	str	r6, [sp, #0]
100018ea:	0020      	movs	r0, r4
100018ec:	47a8      	blx	r5
100018ee:	2501      	movs	r5, #1
100018f0:	230f      	movs	r3, #15
100018f2:	9501      	str	r5, [sp, #4]
100018f4:	9500      	str	r5, [sp, #0]
100018f6:	223f      	movs	r2, #63	; 0x3f
100018f8:	210b      	movs	r1, #11
100018fa:	2028      	movs	r0, #40	; 0x28
100018fc:	f7ff f9f2 	bl	10000ce4 <_Z17select_area_colorhhhhhh>
10001900:	4653      	mov	r3, sl
10001902:	9500      	str	r5, [sp, #0]
10001904:	9301      	str	r3, [sp, #4]
10001906:	223f      	movs	r2, #63	; 0x3f
10001908:	3304      	adds	r3, #4
1000190a:	2100      	movs	r1, #0
1000190c:	2028      	movs	r0, #40	; 0x28
1000190e:	f7ff f9e9 	bl	10000ce4 <_Z17select_area_colorhhhhhh>
10001912:	464b      	mov	r3, r9
10001914:	781d      	ldrb	r5, [r3, #0]
10001916:	2d00      	cmp	r5, #0
10001918:	d000      	beq.n	1000191c <_Z19displayDateTimePageP13DisplayDeviceP6RTC_tmPh+0x290>
1000191a:	e143      	b.n	10001ba4 <_Z19displayDateTimePageP13DisplayDeviceP6RTC_tmPh+0x518>
1000191c:	2354      	movs	r3, #84	; 0x54
1000191e:	2218      	movs	r2, #24
10001920:	2102      	movs	r1, #2
10001922:	69e6      	ldr	r6, [r4, #28]
10001924:	9500      	str	r5, [sp, #0]
10001926:	0020      	movs	r0, r4
10001928:	47b0      	blx	r6
1000192a:	2345      	movs	r3, #69	; 0x45
1000192c:	2218      	movs	r2, #24
1000192e:	2108      	movs	r1, #8
10001930:	69e6      	ldr	r6, [r4, #28]
10001932:	9500      	str	r5, [sp, #0]
10001934:	0020      	movs	r0, r4
10001936:	47b0      	blx	r6
10001938:	234d      	movs	r3, #77	; 0x4d
1000193a:	2218      	movs	r2, #24
1000193c:	210d      	movs	r1, #13
1000193e:	69e6      	ldr	r6, [r4, #28]
10001940:	9500      	str	r5, [sp, #0]
10001942:	0020      	movs	r0, r4
10001944:	47b0      	blx	r6
10001946:	2350      	movs	r3, #80	; 0x50
10001948:	2218      	movs	r2, #24
1000194a:	2113      	movs	r1, #19
1000194c:	69e6      	ldr	r6, [r4, #28]
1000194e:	9500      	str	r5, [sp, #0]
10001950:	0020      	movs	r0, r4
10001952:	47b0      	blx	r6
10001954:	232e      	movs	r3, #46	; 0x2e
10001956:	2218      	movs	r2, #24
10001958:	2117      	movs	r1, #23
1000195a:	69e6      	ldr	r6, [r4, #28]
1000195c:	9500      	str	r5, [sp, #0]
1000195e:	0020      	movs	r0, r4
10001960:	47b0      	blx	r6
10001962:	2349      	movs	r3, #73	; 0x49
10001964:	2218      	movs	r2, #24
10001966:	211a      	movs	r1, #26
10001968:	69e6      	ldr	r6, [r4, #28]
1000196a:	9500      	str	r5, [sp, #0]
1000196c:	0020      	movs	r0, r4
1000196e:	47b0      	blx	r6
10001970:	234e      	movs	r3, #78	; 0x4e
10001972:	2218      	movs	r2, #24
10001974:	211f      	movs	r1, #31
10001976:	69e6      	ldr	r6, [r4, #28]
10001978:	9500      	str	r5, [sp, #0]
1000197a:	0020      	movs	r0, r4
1000197c:	47b0      	blx	r6
1000197e:	2354      	movs	r3, #84	; 0x54
10001980:	2218      	movs	r2, #24
10001982:	2124      	movs	r1, #36	; 0x24
10001984:	69e6      	ldr	r6, [r4, #28]
10001986:	9500      	str	r5, [sp, #0]
10001988:	0020      	movs	r0, r4
1000198a:	47b0      	blx	r6
1000198c:	232e      	movs	r3, #46	; 0x2e
1000198e:	2218      	movs	r2, #24
10001990:	2129      	movs	r1, #41	; 0x29
10001992:	9500      	str	r5, [sp, #0]
10001994:	0020      	movs	r0, r4
10001996:	69e6      	ldr	r6, [r4, #28]
10001998:	47b0      	blx	r6
1000199a:	2304      	movs	r3, #4
1000199c:	9501      	str	r5, [sp, #4]
1000199e:	9300      	str	r3, [sp, #0]
100019a0:	222b      	movs	r2, #43	; 0x2b
100019a2:	330b      	adds	r3, #11
100019a4:	2106      	movs	r1, #6
100019a6:	2000      	movs	r0, #0
100019a8:	f7ff f99c 	bl	10000ce4 <_Z17select_area_colorhhhhhh>
100019ac:	4643      	mov	r3, r8
100019ae:	210a      	movs	r1, #10
100019b0:	7818      	ldrb	r0, [r3, #0]
100019b2:	f003 f9b3 	bl	10004d1c <__wrap___aeabi_uidiv>
100019b6:	0003      	movs	r3, r0
100019b8:	2500      	movs	r5, #0
100019ba:	3330      	adds	r3, #48	; 0x30
100019bc:	2218      	movs	r2, #24
100019be:	69e6      	ldr	r6, [r4, #28]
100019c0:	b2db      	uxtb	r3, r3
100019c2:	9500      	str	r5, [sp, #0]
100019c4:	212d      	movs	r1, #45	; 0x2d
100019c6:	0020      	movs	r0, r4
100019c8:	47b0      	blx	r6
100019ca:	4643      	mov	r3, r8
100019cc:	210a      	movs	r1, #10
100019ce:	7818      	ldrb	r0, [r3, #0]
100019d0:	f003 f9a4 	bl	10004d1c <__wrap___aeabi_uidiv>
100019d4:	000b      	movs	r3, r1
100019d6:	3330      	adds	r3, #48	; 0x30
100019d8:	69e6      	ldr	r6, [r4, #28]
100019da:	b2db      	uxtb	r3, r3
100019dc:	9500      	str	r5, [sp, #0]
100019de:	2218      	movs	r2, #24
100019e0:	2132      	movs	r1, #50	; 0x32
100019e2:	0020      	movs	r0, r4
100019e4:	47b0      	blx	r6
100019e6:	2301      	movs	r3, #1
100019e8:	69e6      	ldr	r6, [r4, #28]
100019ea:	9300      	str	r3, [sp, #0]
100019ec:	2215      	movs	r2, #21
100019ee:	3317      	adds	r3, #23
100019f0:	2137      	movs	r1, #55	; 0x37
100019f2:	0020      	movs	r0, r4
100019f4:	47b0      	blx	r6
100019f6:	2304      	movs	r3, #4
100019f8:	9501      	str	r5, [sp, #4]
100019fa:	9300      	str	r3, [sp, #0]
100019fc:	223f      	movs	r2, #63	; 0x3f
100019fe:	330b      	adds	r3, #11
10001a00:	2106      	movs	r1, #6
10001a02:	202c      	movs	r0, #44	; 0x2c
10001a04:	f7ff f96e 	bl	10000ce4 <_Z17select_area_colorhhhhhh>
10001a08:	b003      	add	sp, #12
10001a0a:	bc3c      	pop	{r2, r3, r4, r5}
10001a0c:	4690      	mov	r8, r2
10001a0e:	4699      	mov	r9, r3
10001a10:	46a2      	mov	sl, r4
10001a12:	46ab      	mov	fp, r5
10001a14:	bdf0      	pop	{r4, r5, r6, r7, pc}
10001a16:	46c0      	nop			; (mov r8, r8)
10001a18:	20001698 	.word	0x20001698
10001a1c:	200016a8 	.word	0x200016a8
10001a20:	200016a4 	.word	0x200016a4
10001a24:	200016a2 	.word	0x200016a2
10001a28:	200004e8 	.word	0x200004e8
10001a2c:	200004b8 	.word	0x200004b8
10001a30:	21fa      	movs	r1, #250	; 0xfa
10001a32:	88e8      	ldrh	r0, [r5, #6]
10001a34:	0089      	lsls	r1, r1, #2
10001a36:	f003 f971 	bl	10004d1c <__wrap___aeabi_uidiv>
10001a3a:	0003      	movs	r3, r0
10001a3c:	3330      	adds	r3, #48	; 0x30
10001a3e:	b2db      	uxtb	r3, r3
10001a40:	2201      	movs	r2, #1
10001a42:	9600      	str	r6, [sp, #0]
10001a44:	69e7      	ldr	r7, [r4, #28]
10001a46:	2101      	movs	r1, #1
10001a48:	0020      	movs	r0, r4
10001a4a:	47b8      	blx	r7
10001a4c:	88e8      	ldrh	r0, [r5, #6]
10001a4e:	2164      	movs	r1, #100	; 0x64
10001a50:	f003 f964 	bl	10004d1c <__wrap___aeabi_uidiv>
10001a54:	210a      	movs	r1, #10
10001a56:	b280      	uxth	r0, r0
10001a58:	f003 f960 	bl	10004d1c <__wrap___aeabi_uidiv>
10001a5c:	000b      	movs	r3, r1
10001a5e:	3330      	adds	r3, #48	; 0x30
10001a60:	b2db      	uxtb	r3, r3
10001a62:	2201      	movs	r2, #1
10001a64:	9600      	str	r6, [sp, #0]
10001a66:	69e7      	ldr	r7, [r4, #28]
10001a68:	2106      	movs	r1, #6
10001a6a:	0020      	movs	r0, r4
10001a6c:	47b8      	blx	r7
10001a6e:	88e8      	ldrh	r0, [r5, #6]
10001a70:	210a      	movs	r1, #10
10001a72:	f003 f953 	bl	10004d1c <__wrap___aeabi_uidiv>
10001a76:	210a      	movs	r1, #10
10001a78:	b280      	uxth	r0, r0
10001a7a:	f003 f94f 	bl	10004d1c <__wrap___aeabi_uidiv>
10001a7e:	000b      	movs	r3, r1
10001a80:	3330      	adds	r3, #48	; 0x30
10001a82:	b2db      	uxtb	r3, r3
10001a84:	9600      	str	r6, [sp, #0]
10001a86:	2201      	movs	r2, #1
10001a88:	69e7      	ldr	r7, [r4, #28]
10001a8a:	210b      	movs	r1, #11
10001a8c:	0020      	movs	r0, r4
10001a8e:	47b8      	blx	r7
10001a90:	88e8      	ldrh	r0, [r5, #6]
10001a92:	210a      	movs	r1, #10
10001a94:	f003 f942 	bl	10004d1c <__wrap___aeabi_uidiv>
10001a98:	000b      	movs	r3, r1
10001a9a:	3330      	adds	r3, #48	; 0x30
10001a9c:	9600      	str	r6, [sp, #0]
10001a9e:	69e7      	ldr	r7, [r4, #28]
10001aa0:	b2db      	uxtb	r3, r3
10001aa2:	2201      	movs	r2, #1
10001aa4:	2110      	movs	r1, #16
10001aa6:	0020      	movs	r0, r4
10001aa8:	47b8      	blx	r7
10001aaa:	9600      	str	r6, [sp, #0]
10001aac:	232d      	movs	r3, #45	; 0x2d
10001aae:	2201      	movs	r2, #1
10001ab0:	69e7      	ldr	r7, [r4, #28]
10001ab2:	2115      	movs	r1, #21
10001ab4:	0020      	movs	r0, r4
10001ab6:	47b8      	blx	r7
10001ab8:	7968      	ldrb	r0, [r5, #5]
10001aba:	210a      	movs	r1, #10
10001abc:	f003 f92e 	bl	10004d1c <__wrap___aeabi_uidiv>
10001ac0:	0003      	movs	r3, r0
10001ac2:	3330      	adds	r3, #48	; 0x30
10001ac4:	b2db      	uxtb	r3, r3
10001ac6:	9600      	str	r6, [sp, #0]
10001ac8:	2201      	movs	r2, #1
10001aca:	69e7      	ldr	r7, [r4, #28]
10001acc:	2118      	movs	r1, #24
10001ace:	0020      	movs	r0, r4
10001ad0:	47b8      	blx	r7
10001ad2:	7968      	ldrb	r0, [r5, #5]
10001ad4:	210a      	movs	r1, #10
10001ad6:	f003 f921 	bl	10004d1c <__wrap___aeabi_uidiv>
10001ada:	000b      	movs	r3, r1
10001adc:	3330      	adds	r3, #48	; 0x30
10001ade:	9600      	str	r6, [sp, #0]
10001ae0:	69e7      	ldr	r7, [r4, #28]
10001ae2:	b2db      	uxtb	r3, r3
10001ae4:	2201      	movs	r2, #1
10001ae6:	211d      	movs	r1, #29
10001ae8:	0020      	movs	r0, r4
10001aea:	47b8      	blx	r7
10001aec:	9600      	str	r6, [sp, #0]
10001aee:	232d      	movs	r3, #45	; 0x2d
10001af0:	2201      	movs	r2, #1
10001af2:	69e7      	ldr	r7, [r4, #28]
10001af4:	2122      	movs	r1, #34	; 0x22
10001af6:	0020      	movs	r0, r4
10001af8:	47b8      	blx	r7
10001afa:	7928      	ldrb	r0, [r5, #4]
10001afc:	210a      	movs	r1, #10
10001afe:	f003 f90d 	bl	10004d1c <__wrap___aeabi_uidiv>
10001b02:	0003      	movs	r3, r0
10001b04:	3330      	adds	r3, #48	; 0x30
10001b06:	b2db      	uxtb	r3, r3
10001b08:	9600      	str	r6, [sp, #0]
10001b0a:	2201      	movs	r2, #1
10001b0c:	69e7      	ldr	r7, [r4, #28]
10001b0e:	2125      	movs	r1, #37	; 0x25
10001b10:	0020      	movs	r0, r4
10001b12:	47b8      	blx	r7
10001b14:	7928      	ldrb	r0, [r5, #4]
10001b16:	210a      	movs	r1, #10
10001b18:	f003 f900 	bl	10004d1c <__wrap___aeabi_uidiv>
10001b1c:	000b      	movs	r3, r1
10001b1e:	3330      	adds	r3, #48	; 0x30
10001b20:	9600      	str	r6, [sp, #0]
10001b22:	69e7      	ldr	r7, [r4, #28]
10001b24:	b2db      	uxtb	r3, r3
10001b26:	2201      	movs	r2, #1
10001b28:	212a      	movs	r1, #42	; 0x2a
10001b2a:	0020      	movs	r0, r4
10001b2c:	47b8      	blx	r7
10001b2e:	2301      	movs	r3, #1
10001b30:	469b      	mov	fp, r3
10001b32:	9301      	str	r3, [sp, #4]
10001b34:	3301      	adds	r3, #1
10001b36:	9300      	str	r3, [sp, #0]
10001b38:	222d      	movs	r2, #45	; 0x2d
10001b3a:	3307      	adds	r3, #7
10001b3c:	2100      	movs	r1, #0
10001b3e:	2000      	movs	r0, #0
10001b40:	f7ff f8d0 	bl	10000ce4 <_Z17select_area_colorhhhhhh>
10001b44:	4b75      	ldr	r3, [pc, #468]	; (10001d1c <_Z19displayDateTimePageP13DisplayDeviceP6RTC_tmPh+0x690>)
10001b46:	69e7      	ldr	r7, [r4, #28]
10001b48:	469a      	mov	sl, r3
10001b4a:	4652      	mov	r2, sl
10001b4c:	78eb      	ldrb	r3, [r5, #3]
10001b4e:	212f      	movs	r1, #47	; 0x2f
10001b50:	3306      	adds	r3, #6
10001b52:	009b      	lsls	r3, r3, #2
10001b54:	589b      	ldr	r3, [r3, r2]
10001b56:	0020      	movs	r0, r4
10001b58:	781b      	ldrb	r3, [r3, #0]
10001b5a:	2201      	movs	r2, #1
10001b5c:	9600      	str	r6, [sp, #0]
10001b5e:	47b8      	blx	r7
10001b60:	4652      	mov	r2, sl
10001b62:	78eb      	ldrb	r3, [r5, #3]
10001b64:	2135      	movs	r1, #53	; 0x35
10001b66:	3306      	adds	r3, #6
10001b68:	009b      	lsls	r3, r3, #2
10001b6a:	589b      	ldr	r3, [r3, r2]
10001b6c:	0020      	movs	r0, r4
10001b6e:	785b      	ldrb	r3, [r3, #1]
10001b70:	2201      	movs	r2, #1
10001b72:	9600      	str	r6, [sp, #0]
10001b74:	69e7      	ldr	r7, [r4, #28]
10001b76:	47b8      	blx	r7
10001b78:	4652      	mov	r2, sl
10001b7a:	78eb      	ldrb	r3, [r5, #3]
10001b7c:	213a      	movs	r1, #58	; 0x3a
10001b7e:	3306      	adds	r3, #6
10001b80:	009b      	lsls	r3, r3, #2
10001b82:	589b      	ldr	r3, [r3, r2]
10001b84:	0020      	movs	r0, r4
10001b86:	789b      	ldrb	r3, [r3, #2]
10001b88:	2201      	movs	r2, #1
10001b8a:	9600      	str	r6, [sp, #0]
10001b8c:	69e6      	ldr	r6, [r4, #28]
10001b8e:	47b0      	blx	r6
10001b90:	465b      	mov	r3, fp
10001b92:	223f      	movs	r2, #63	; 0x3f
10001b94:	9301      	str	r3, [sp, #4]
10001b96:	9300      	str	r3, [sp, #0]
10001b98:	2100      	movs	r1, #0
10001b9a:	3308      	adds	r3, #8
10001b9c:	202e      	movs	r0, #46	; 0x2e
10001b9e:	f7ff f8a1 	bl	10000ce4 <_Z17select_area_colorhhhhhh>
10001ba2:	e63d      	b.n	10001820 <_Z19displayDateTimePageP13DisplayDeviceP6RTC_tmPh+0x194>
10001ba4:	4b5e      	ldr	r3, [pc, #376]	; (10001d20 <_Z19displayDateTimePageP13DisplayDeviceP6RTC_tmPh+0x694>)
10001ba6:	781d      	ldrb	r5, [r3, #0]
10001ba8:	002b      	movs	r3, r5
10001baa:	3b0a      	subs	r3, #10
10001bac:	2b09      	cmp	r3, #9
10001bae:	d802      	bhi.n	10001bb6 <_Z19displayDateTimePageP13DisplayDeviceP6RTC_tmPh+0x52a>
10001bb0:	220a      	movs	r2, #10
10001bb2:	4b5c      	ldr	r3, [pc, #368]	; (10001d24 <_Z19displayDateTimePageP13DisplayDeviceP6RTC_tmPh+0x698>)
10001bb4:	701a      	strb	r2, [r3, #0]
10001bb6:	4b5c      	ldr	r3, [pc, #368]	; (10001d28 <_Z19displayDateTimePageP13DisplayDeviceP6RTC_tmPh+0x69c>)
10001bb8:	200a      	movs	r0, #10
10001bba:	781e      	ldrb	r6, [r3, #0]
10001bbc:	0033      	movs	r3, r6
10001bbe:	3b0a      	subs	r3, #10
10001bc0:	2b09      	cmp	r3, #9
10001bc2:	d904      	bls.n	10001bce <_Z19displayDateTimePageP13DisplayDeviceP6RTC_tmPh+0x542>
10001bc4:	210a      	movs	r1, #10
10001bc6:	0030      	movs	r0, r6
10001bc8:	f003 f8a8 	bl	10004d1c <__wrap___aeabi_uidiv>
10001bcc:	b2c0      	uxtb	r0, r0
10001bce:	4f57      	ldr	r7, [pc, #348]	; (10001d2c <_Z19displayDateTimePageP13DisplayDeviceP6RTC_tmPh+0x6a0>)
10001bd0:	69e3      	ldr	r3, [r4, #28]
10001bd2:	7038      	strb	r0, [r7, #0]
10001bd4:	4699      	mov	r9, r3
10001bd6:	2d0a      	cmp	r5, #10
10001bd8:	d827      	bhi.n	10001c2a <_Z19displayDateTimePageP13DisplayDeviceP6RTC_tmPh+0x59e>
10001bda:	350a      	adds	r5, #10
10001bdc:	b2eb      	uxtb	r3, r5
10001bde:	2501      	movs	r5, #1
10001be0:	2216      	movs	r2, #22
10001be2:	9500      	str	r5, [sp, #0]
10001be4:	2e0a      	cmp	r6, #10
10001be6:	d961      	bls.n	10001cac <_Z19displayDateTimePageP13DisplayDeviceP6RTC_tmPh+0x620>
10001be8:	2103      	movs	r1, #3
10001bea:	0020      	movs	r0, r4
10001bec:	47c8      	blx	r9
10001bee:	9500      	str	r5, [sp, #0]
10001bf0:	69e6      	ldr	r6, [r4, #28]
10001bf2:	2317      	movs	r3, #23
10001bf4:	2216      	movs	r2, #22
10001bf6:	210c      	movs	r1, #12
10001bf8:	0020      	movs	r0, r4
10001bfa:	47b0      	blx	r6
10001bfc:	783b      	ldrb	r3, [r7, #0]
10001bfe:	2216      	movs	r2, #22
10001c00:	330a      	adds	r3, #10
10001c02:	9500      	str	r5, [sp, #0]
10001c04:	b2db      	uxtb	r3, r3
10001c06:	2116      	movs	r1, #22
10001c08:	0020      	movs	r0, r4
10001c0a:	69e6      	ldr	r6, [r4, #28]
10001c0c:	47b0      	blx	r6
10001c0e:	4b46      	ldr	r3, [pc, #280]	; (10001d28 <_Z19displayDateTimePageP13DisplayDeviceP6RTC_tmPh+0x69c>)
10001c10:	210a      	movs	r1, #10
10001c12:	7818      	ldrb	r0, [r3, #0]
10001c14:	f003 f882 	bl	10004d1c <__wrap___aeabi_uidiv>
10001c18:	310a      	adds	r1, #10
10001c1a:	b2cb      	uxtb	r3, r1
10001c1c:	9500      	str	r5, [sp, #0]
10001c1e:	2216      	movs	r2, #22
10001c20:	211f      	movs	r1, #31
10001c22:	0020      	movs	r0, r4
10001c24:	69e5      	ldr	r5, [r4, #28]
10001c26:	47a8      	blx	r5
10001c28:	e035      	b.n	10001c96 <_Z19displayDateTimePageP13DisplayDeviceP6RTC_tmPh+0x60a>
10001c2a:	2501      	movs	r5, #1
10001c2c:	4b3d      	ldr	r3, [pc, #244]	; (10001d24 <_Z19displayDateTimePageP13DisplayDeviceP6RTC_tmPh+0x698>)
10001c2e:	2216      	movs	r2, #22
10001c30:	781b      	ldrb	r3, [r3, #0]
10001c32:	9500      	str	r5, [sp, #0]
10001c34:	330a      	adds	r3, #10
10001c36:	b2db      	uxtb	r3, r3
10001c38:	2e0a      	cmp	r6, #10
10001c3a:	d94c      	bls.n	10001cd6 <_Z19displayDateTimePageP13DisplayDeviceP6RTC_tmPh+0x64a>
10001c3c:	2101      	movs	r1, #1
10001c3e:	0020      	movs	r0, r4
10001c40:	47c8      	blx	r9
10001c42:	4b37      	ldr	r3, [pc, #220]	; (10001d20 <_Z19displayDateTimePageP13DisplayDeviceP6RTC_tmPh+0x694>)
10001c44:	210a      	movs	r1, #10
10001c46:	7818      	ldrb	r0, [r3, #0]
10001c48:	f003 f868 	bl	10004d1c <__wrap___aeabi_uidiv>
10001c4c:	310a      	adds	r1, #10
10001c4e:	b2cb      	uxtb	r3, r1
10001c50:	9500      	str	r5, [sp, #0]
10001c52:	2216      	movs	r2, #22
10001c54:	2109      	movs	r1, #9
10001c56:	69e6      	ldr	r6, [r4, #28]
10001c58:	0020      	movs	r0, r4
10001c5a:	47b0      	blx	r6
10001c5c:	9500      	str	r5, [sp, #0]
10001c5e:	2317      	movs	r3, #23
10001c60:	2216      	movs	r2, #22
10001c62:	2111      	movs	r1, #17
10001c64:	69e6      	ldr	r6, [r4, #28]
10001c66:	0020      	movs	r0, r4
10001c68:	47b0      	blx	r6
10001c6a:	783b      	ldrb	r3, [r7, #0]
10001c6c:	2216      	movs	r2, #22
10001c6e:	330a      	adds	r3, #10
10001c70:	b2db      	uxtb	r3, r3
10001c72:	9500      	str	r5, [sp, #0]
10001c74:	211a      	movs	r1, #26
10001c76:	0020      	movs	r0, r4
10001c78:	69e6      	ldr	r6, [r4, #28]
10001c7a:	47b0      	blx	r6
10001c7c:	4b2a      	ldr	r3, [pc, #168]	; (10001d28 <_Z19displayDateTimePageP13DisplayDeviceP6RTC_tmPh+0x69c>)
10001c7e:	210a      	movs	r1, #10
10001c80:	7818      	ldrb	r0, [r3, #0]
10001c82:	f003 f84b 	bl	10004d1c <__wrap___aeabi_uidiv>
10001c86:	310a      	adds	r1, #10
10001c88:	b2cb      	uxtb	r3, r1
10001c8a:	9500      	str	r5, [sp, #0]
10001c8c:	2216      	movs	r2, #22
10001c8e:	2122      	movs	r1, #34	; 0x22
10001c90:	0020      	movs	r0, r4
10001c92:	69e5      	ldr	r5, [r4, #28]
10001c94:	47a8      	blx	r5
10001c96:	2300      	movs	r3, #0
10001c98:	9301      	str	r3, [sp, #4]
10001c9a:	3305      	adds	r3, #5
10001c9c:	9300      	str	r3, [sp, #0]
10001c9e:	222b      	movs	r2, #43	; 0x2b
10001ca0:	330a      	adds	r3, #10
10001ca2:	2106      	movs	r1, #6
10001ca4:	2001      	movs	r0, #1
10001ca6:	f7ff f81d 	bl	10000ce4 <_Z17select_area_colorhhhhhh>
10001caa:	e67f      	b.n	100019ac <_Z19displayDateTimePageP13DisplayDeviceP6RTC_tmPh+0x320>
10001cac:	2105      	movs	r1, #5
10001cae:	0020      	movs	r0, r4
10001cb0:	47c8      	blx	r9
10001cb2:	9500      	str	r5, [sp, #0]
10001cb4:	2317      	movs	r3, #23
10001cb6:	2216      	movs	r2, #22
10001cb8:	210f      	movs	r1, #15
10001cba:	0020      	movs	r0, r4
10001cbc:	69e6      	ldr	r6, [r4, #28]
10001cbe:	47b0      	blx	r6
10001cc0:	4b19      	ldr	r3, [pc, #100]	; (10001d28 <_Z19displayDateTimePageP13DisplayDeviceP6RTC_tmPh+0x69c>)
10001cc2:	2216      	movs	r2, #22
10001cc4:	781b      	ldrb	r3, [r3, #0]
10001cc6:	211b      	movs	r1, #27
10001cc8:	330a      	adds	r3, #10
10001cca:	9500      	str	r5, [sp, #0]
10001ccc:	b2db      	uxtb	r3, r3
10001cce:	0020      	movs	r0, r4
10001cd0:	69e5      	ldr	r5, [r4, #28]
10001cd2:	47a8      	blx	r5
10001cd4:	e7df      	b.n	10001c96 <_Z19displayDateTimePageP13DisplayDeviceP6RTC_tmPh+0x60a>
10001cd6:	2103      	movs	r1, #3
10001cd8:	0020      	movs	r0, r4
10001cda:	47c8      	blx	r9
10001cdc:	4b10      	ldr	r3, [pc, #64]	; (10001d20 <_Z19displayDateTimePageP13DisplayDeviceP6RTC_tmPh+0x694>)
10001cde:	210a      	movs	r1, #10
10001ce0:	7818      	ldrb	r0, [r3, #0]
10001ce2:	f003 f81b 	bl	10004d1c <__wrap___aeabi_uidiv>
10001ce6:	310a      	adds	r1, #10
10001ce8:	b2cb      	uxtb	r3, r1
10001cea:	9500      	str	r5, [sp, #0]
10001cec:	69e6      	ldr	r6, [r4, #28]
10001cee:	2216      	movs	r2, #22
10001cf0:	210b      	movs	r1, #11
10001cf2:	0020      	movs	r0, r4
10001cf4:	47b0      	blx	r6
10001cf6:	9500      	str	r5, [sp, #0]
10001cf8:	2317      	movs	r3, #23
10001cfa:	2216      	movs	r2, #22
10001cfc:	2113      	movs	r1, #19
10001cfe:	0020      	movs	r0, r4
10001d00:	69e6      	ldr	r6, [r4, #28]
10001d02:	47b0      	blx	r6
10001d04:	4b08      	ldr	r3, [pc, #32]	; (10001d28 <_Z19displayDateTimePageP13DisplayDeviceP6RTC_tmPh+0x69c>)
10001d06:	2216      	movs	r2, #22
10001d08:	781b      	ldrb	r3, [r3, #0]
10001d0a:	211d      	movs	r1, #29
10001d0c:	330a      	adds	r3, #10
10001d0e:	9500      	str	r5, [sp, #0]
10001d10:	b2db      	uxtb	r3, r3
10001d12:	0020      	movs	r0, r4
10001d14:	69e5      	ldr	r5, [r4, #28]
10001d16:	47a8      	blx	r5
10001d18:	e7bd      	b.n	10001c96 <_Z19displayDateTimePageP13DisplayDeviceP6RTC_tmPh+0x60a>
10001d1a:	46c0      	nop			; (mov r8, r8)
10001d1c:	200004e8 	.word	0x200004e8
10001d20:	200016a8 	.word	0x200016a8
10001d24:	200016a5 	.word	0x200016a5
10001d28:	200016a4 	.word	0x200016a4
10001d2c:	200016a6 	.word	0x200016a6

10001d30 <_Z14get_month_dateth>:
10001d30:	b570      	push	{r4, r5, r6, lr}
10001d32:	0005      	movs	r5, r0
10001d34:	000c      	movs	r4, r1
10001d36:	0783      	lsls	r3, r0, #30
10001d38:	d10b      	bne.n	10001d52 <_Z14get_month_dateth+0x22>
10001d3a:	2164      	movs	r1, #100	; 0x64
10001d3c:	f002 ffee 	bl	10004d1c <__wrap___aeabi_uidiv>
10001d40:	b289      	uxth	r1, r1
10001d42:	2900      	cmp	r1, #0
10001d44:	d005      	beq.n	10001d52 <_Z14get_month_dateth+0x22>
10001d46:	2c0c      	cmp	r4, #12
10001d48:	d859      	bhi.n	10001dfe <_Z14get_month_dateth+0xce>
10001d4a:	4b2e      	ldr	r3, [pc, #184]	; (10001e04 <_Z14get_month_dateth+0xd4>)
10001d4c:	00a4      	lsls	r4, r4, #2
10001d4e:	591b      	ldr	r3, [r3, r4]
10001d50:	469f      	mov	pc, r3
10001d52:	21c8      	movs	r1, #200	; 0xc8
10001d54:	0028      	movs	r0, r5
10001d56:	0049      	lsls	r1, r1, #1
10001d58:	f002 ffe0 	bl	10004d1c <__wrap___aeabi_uidiv>
10001d5c:	b289      	uxth	r1, r1
10001d5e:	2900      	cmp	r1, #0
10001d60:	d0f1      	beq.n	10001d46 <_Z14get_month_dateth+0x16>
10001d62:	2c0c      	cmp	r4, #12
10001d64:	d84b      	bhi.n	10001dfe <_Z14get_month_dateth+0xce>
10001d66:	4b28      	ldr	r3, [pc, #160]	; (10001e08 <_Z14get_month_dateth+0xd8>)
10001d68:	00a4      	lsls	r4, r4, #2
10001d6a:	591b      	ldr	r3, [r3, r4]
10001d6c:	469f      	mov	pc, r3
10001d6e:	4b27      	ldr	r3, [pc, #156]	; (10001e0c <_Z14get_month_dateth+0xdc>)
10001d70:	7ad8      	ldrb	r0, [r3, #11]
10001d72:	bd70      	pop	{r4, r5, r6, pc}
10001d74:	4b25      	ldr	r3, [pc, #148]	; (10001e0c <_Z14get_month_dateth+0xdc>)
10001d76:	7a98      	ldrb	r0, [r3, #10]
10001d78:	e7fb      	b.n	10001d72 <_Z14get_month_dateth+0x42>
10001d7a:	4b24      	ldr	r3, [pc, #144]	; (10001e0c <_Z14get_month_dateth+0xdc>)
10001d7c:	7a58      	ldrb	r0, [r3, #9]
10001d7e:	e7f8      	b.n	10001d72 <_Z14get_month_dateth+0x42>
10001d80:	4b22      	ldr	r3, [pc, #136]	; (10001e0c <_Z14get_month_dateth+0xdc>)
10001d82:	7a18      	ldrb	r0, [r3, #8]
10001d84:	e7f5      	b.n	10001d72 <_Z14get_month_dateth+0x42>
10001d86:	4b21      	ldr	r3, [pc, #132]	; (10001e0c <_Z14get_month_dateth+0xdc>)
10001d88:	79d8      	ldrb	r0, [r3, #7]
10001d8a:	e7f2      	b.n	10001d72 <_Z14get_month_dateth+0x42>
10001d8c:	4b1f      	ldr	r3, [pc, #124]	; (10001e0c <_Z14get_month_dateth+0xdc>)
10001d8e:	7998      	ldrb	r0, [r3, #6]
10001d90:	e7ef      	b.n	10001d72 <_Z14get_month_dateth+0x42>
10001d92:	4b1e      	ldr	r3, [pc, #120]	; (10001e0c <_Z14get_month_dateth+0xdc>)
10001d94:	7958      	ldrb	r0, [r3, #5]
10001d96:	e7ec      	b.n	10001d72 <_Z14get_month_dateth+0x42>
10001d98:	4b1c      	ldr	r3, [pc, #112]	; (10001e0c <_Z14get_month_dateth+0xdc>)
10001d9a:	7918      	ldrb	r0, [r3, #4]
10001d9c:	e7e9      	b.n	10001d72 <_Z14get_month_dateth+0x42>
10001d9e:	4b1b      	ldr	r3, [pc, #108]	; (10001e0c <_Z14get_month_dateth+0xdc>)
10001da0:	78d8      	ldrb	r0, [r3, #3]
10001da2:	e7e6      	b.n	10001d72 <_Z14get_month_dateth+0x42>
10001da4:	4b19      	ldr	r3, [pc, #100]	; (10001e0c <_Z14get_month_dateth+0xdc>)
10001da6:	7898      	ldrb	r0, [r3, #2]
10001da8:	e7e3      	b.n	10001d72 <_Z14get_month_dateth+0x42>
10001daa:	4b18      	ldr	r3, [pc, #96]	; (10001e0c <_Z14get_month_dateth+0xdc>)
10001dac:	7858      	ldrb	r0, [r3, #1]
10001dae:	e7e0      	b.n	10001d72 <_Z14get_month_dateth+0x42>
10001db0:	4b16      	ldr	r3, [pc, #88]	; (10001e0c <_Z14get_month_dateth+0xdc>)
10001db2:	7818      	ldrb	r0, [r3, #0]
10001db4:	e7dd      	b.n	10001d72 <_Z14get_month_dateth+0x42>
10001db6:	4b15      	ldr	r3, [pc, #84]	; (10001e0c <_Z14get_month_dateth+0xdc>)
10001db8:	7bd8      	ldrb	r0, [r3, #15]
10001dba:	e7da      	b.n	10001d72 <_Z14get_month_dateth+0x42>
10001dbc:	4b13      	ldr	r3, [pc, #76]	; (10001e0c <_Z14get_month_dateth+0xdc>)
10001dbe:	7dd8      	ldrb	r0, [r3, #23]
10001dc0:	e7d7      	b.n	10001d72 <_Z14get_month_dateth+0x42>
10001dc2:	4b12      	ldr	r3, [pc, #72]	; (10001e0c <_Z14get_month_dateth+0xdc>)
10001dc4:	7b18      	ldrb	r0, [r3, #12]
10001dc6:	e7d4      	b.n	10001d72 <_Z14get_month_dateth+0x42>
10001dc8:	4b10      	ldr	r3, [pc, #64]	; (10001e0c <_Z14get_month_dateth+0xdc>)
10001dca:	7b58      	ldrb	r0, [r3, #13]
10001dcc:	e7d1      	b.n	10001d72 <_Z14get_month_dateth+0x42>
10001dce:	4b0f      	ldr	r3, [pc, #60]	; (10001e0c <_Z14get_month_dateth+0xdc>)
10001dd0:	7b98      	ldrb	r0, [r3, #14]
10001dd2:	e7ce      	b.n	10001d72 <_Z14get_month_dateth+0x42>
10001dd4:	4b0d      	ldr	r3, [pc, #52]	; (10001e0c <_Z14get_month_dateth+0xdc>)
10001dd6:	7c18      	ldrb	r0, [r3, #16]
10001dd8:	e7cb      	b.n	10001d72 <_Z14get_month_dateth+0x42>
10001dda:	4b0c      	ldr	r3, [pc, #48]	; (10001e0c <_Z14get_month_dateth+0xdc>)
10001ddc:	7c58      	ldrb	r0, [r3, #17]
10001dde:	e7c8      	b.n	10001d72 <_Z14get_month_dateth+0x42>
10001de0:	4b0a      	ldr	r3, [pc, #40]	; (10001e0c <_Z14get_month_dateth+0xdc>)
10001de2:	7c98      	ldrb	r0, [r3, #18]
10001de4:	e7c5      	b.n	10001d72 <_Z14get_month_dateth+0x42>
10001de6:	4b09      	ldr	r3, [pc, #36]	; (10001e0c <_Z14get_month_dateth+0xdc>)
10001de8:	7cd8      	ldrb	r0, [r3, #19]
10001dea:	e7c2      	b.n	10001d72 <_Z14get_month_dateth+0x42>
10001dec:	4b07      	ldr	r3, [pc, #28]	; (10001e0c <_Z14get_month_dateth+0xdc>)
10001dee:	7d18      	ldrb	r0, [r3, #20]
10001df0:	e7bf      	b.n	10001d72 <_Z14get_month_dateth+0x42>
10001df2:	4b06      	ldr	r3, [pc, #24]	; (10001e0c <_Z14get_month_dateth+0xdc>)
10001df4:	7d58      	ldrb	r0, [r3, #21]
10001df6:	e7bc      	b.n	10001d72 <_Z14get_month_dateth+0x42>
10001df8:	4b04      	ldr	r3, [pc, #16]	; (10001e0c <_Z14get_month_dateth+0xdc>)
10001dfa:	7d98      	ldrb	r0, [r3, #22]
10001dfc:	e7b9      	b.n	10001d72 <_Z14get_month_dateth+0x42>
10001dfe:	20ff      	movs	r0, #255	; 0xff
10001e00:	e7b7      	b.n	10001d72 <_Z14get_month_dateth+0x42>
10001e02:	46c0      	nop			; (mov r8, r8)
10001e04:	100080cc 	.word	0x100080cc
10001e08:	10008100 	.word	0x10008100
10001e0c:	200004a0 	.word	0x200004a0

10001e10 <_Z11get_weekdaythh>:
10001e10:	1e4b      	subs	r3, r1, #1
10001e12:	b570      	push	{r4, r5, r6, lr}
10001e14:	0005      	movs	r5, r0
10001e16:	2b01      	cmp	r3, #1
10001e18:	d803      	bhi.n	10001e22 <_Z11get_weekdaythh+0x12>
10001e1a:	310c      	adds	r1, #12
10001e1c:	3d01      	subs	r5, #1
10001e1e:	b2c9      	uxtb	r1, r1
10001e20:	b2ad      	uxth	r5, r5
10001e22:	1c54      	adds	r4, r2, #1
10001e24:	0048      	lsls	r0, r1, #1
10001e26:	3101      	adds	r1, #1
10001e28:	1824      	adds	r4, r4, r0
10001e2a:	0048      	lsls	r0, r1, #1
10001e2c:	1840      	adds	r0, r0, r1
10001e2e:	2105      	movs	r1, #5
10001e30:	f002 ff4c 	bl	10004ccc <__wrap___aeabi_idiv>
10001e34:	1824      	adds	r4, r4, r0
10001e36:	1964      	adds	r4, r4, r5
10001e38:	08a8      	lsrs	r0, r5, #2
10001e3a:	1824      	adds	r4, r4, r0
10001e3c:	2164      	movs	r1, #100	; 0x64
10001e3e:	0028      	movs	r0, r5
10001e40:	f002 ff6c 	bl	10004d1c <__wrap___aeabi_uidiv>
10001e44:	21c8      	movs	r1, #200	; 0xc8
10001e46:	b280      	uxth	r0, r0
10001e48:	1a24      	subs	r4, r4, r0
10001e4a:	0049      	lsls	r1, r1, #1
10001e4c:	0028      	movs	r0, r5
10001e4e:	f002 ff65 	bl	10004d1c <__wrap___aeabi_uidiv>
10001e52:	b280      	uxth	r0, r0
10001e54:	1820      	adds	r0, r4, r0
10001e56:	2107      	movs	r1, #7
10001e58:	f002 ff38 	bl	10004ccc <__wrap___aeabi_idiv>
10001e5c:	23ff      	movs	r3, #255	; 0xff
10001e5e:	2000      	movs	r0, #0
10001e60:	4019      	ands	r1, r3
10001e62:	2906      	cmp	r1, #6
10001e64:	dc01      	bgt.n	10001e6a <_Z11get_weekdaythh+0x5a>
10001e66:	4b01      	ldr	r3, [pc, #4]	; (10001e6c <_Z11get_weekdaythh+0x5c>)
10001e68:	5c58      	ldrb	r0, [r3, r1]
10001e6a:	bd70      	pop	{r4, r5, r6, pc}
10001e6c:	10008134 	.word	0x10008134

10001e70 <_Z11fontChar4X7Phiic>:
10001e70:	b5f0      	push	{r4, r5, r6, r7, lr}
10001e72:	2407      	movs	r4, #7
10001e74:	464e      	mov	r6, r9
10001e76:	4645      	mov	r5, r8
10001e78:	46de      	mov	lr, fp
10001e7a:	4657      	mov	r7, sl
10001e7c:	4698      	mov	r8, r3
10001e7e:	0023      	movs	r3, r4
10001e80:	b5e0      	push	{r5, r6, r7, lr}
10001e82:	17ce      	asrs	r6, r1, #31
10001e84:	4033      	ands	r3, r6
10001e86:	0f76      	lsrs	r6, r6, #29
10001e88:	198d      	adds	r5, r1, r6
10001e8a:	4025      	ands	r5, r4
10001e8c:	1bad      	subs	r5, r5, r6
10001e8e:	26ff      	movs	r6, #255	; 0xff
10001e90:	0034      	movs	r4, r6
10001e92:	185b      	adds	r3, r3, r1
10001e94:	b087      	sub	sp, #28
10001e96:	b2e9      	uxtb	r1, r5
10001e98:	10db      	asrs	r3, r3, #3
10001e9a:	9003      	str	r0, [sp, #12]
10001e9c:	4689      	mov	r9, r1
10001e9e:	b2d8      	uxtb	r0, r3
10001ea0:	b2d1      	uxtb	r1, r2
10001ea2:	1d97      	adds	r7, r2, #6
10001ea4:	4683      	mov	fp, r0
10001ea6:	9101      	str	r1, [sp, #4]
10001ea8:	4014      	ands	r4, r2
10001eaa:	42bc      	cmp	r4, r7
10001eac:	dc42      	bgt.n	10001f34 <_Z11fontChar4X7Phiic+0xc4>
10001eae:	2108      	movs	r1, #8
10001eb0:	0030      	movs	r0, r6
10001eb2:	4035      	ands	r5, r6
10001eb4:	1b49      	subs	r1, r1, r5
10001eb6:	4108      	asrs	r0, r1
10001eb8:	9101      	str	r1, [sp, #4]
10001eba:	b241      	sxtb	r1, r0
10001ebc:	468c      	mov	ip, r1
10001ebe:	0031      	movs	r1, r6
10001ec0:	40a9      	lsls	r1, r5
10001ec2:	401e      	ands	r6, r3
10001ec4:	464b      	mov	r3, r9
10001ec6:	b249      	sxtb	r1, r1
10001ec8:	9102      	str	r1, [sp, #8]
10001eca:	2b00      	cmp	r3, #0
10001ecc:	d039      	beq.n	10001f42 <_Z11fontChar4X7Phiic+0xd2>
10001ece:	465b      	mov	r3, fp
10001ed0:	2b06      	cmp	r3, #6
10001ed2:	d84a      	bhi.n	10001f6a <_Z11fontChar4X7Phiic+0xfa>
10001ed4:	4b34      	ldr	r3, [pc, #208]	; (10001fa8 <_Z11fontChar4X7Phiic+0x138>)
10001ed6:	1c71      	adds	r1, r6, #1
10001ed8:	469b      	mov	fp, r3
10001eda:	4643      	mov	r3, r8
10001edc:	9104      	str	r1, [sp, #16]
10001ede:	4641      	mov	r1, r8
10001ee0:	00db      	lsls	r3, r3, #3
10001ee2:	1a5b      	subs	r3, r3, r1
10001ee4:	449b      	add	fp, r3
10001ee6:	4663      	mov	r3, ip
10001ee8:	46b1      	mov	r9, r6
10001eea:	4692      	mov	sl, r2
10001eec:	46b8      	mov	r8, r7
10001eee:	002f      	movs	r7, r5
10001ef0:	9d03      	ldr	r5, [sp, #12]
10001ef2:	b2d1      	uxtb	r1, r2
10001ef4:	9305      	str	r3, [sp, #20]
10001ef6:	464a      	mov	r2, r9
10001ef8:	00e3      	lsls	r3, r4, #3
10001efa:	1898      	adds	r0, r3, r2
10001efc:	4652      	mov	r2, sl
10001efe:	1aa4      	subs	r4, r4, r2
10001f00:	465a      	mov	r2, fp
10001f02:	1828      	adds	r0, r5, r0
10001f04:	5d12      	ldrb	r2, [r2, r4]
10001f06:	9e05      	ldr	r6, [sp, #20]
10001f08:	7804      	ldrb	r4, [r0, #0]
10001f0a:	3101      	adds	r1, #1
10001f0c:	4034      	ands	r4, r6
10001f0e:	0016      	movs	r6, r2
10001f10:	40be      	lsls	r6, r7
10001f12:	4334      	orrs	r4, r6
10001f14:	7004      	strb	r4, [r0, #0]
10001f16:	9804      	ldr	r0, [sp, #16]
10001f18:	9c02      	ldr	r4, [sp, #8]
10001f1a:	4684      	mov	ip, r0
10001f1c:	4463      	add	r3, ip
10001f1e:	18eb      	adds	r3, r5, r3
10001f20:	7818      	ldrb	r0, [r3, #0]
10001f22:	b2c9      	uxtb	r1, r1
10001f24:	4020      	ands	r0, r4
10001f26:	9c01      	ldr	r4, [sp, #4]
10001f28:	4122      	asrs	r2, r4
10001f2a:	4302      	orrs	r2, r0
10001f2c:	701a      	strb	r2, [r3, #0]
10001f2e:	000c      	movs	r4, r1
10001f30:	4541      	cmp	r1, r8
10001f32:	dde0      	ble.n	10001ef6 <_Z11fontChar4X7Phiic+0x86>
10001f34:	b007      	add	sp, #28
10001f36:	bc3c      	pop	{r2, r3, r4, r5}
10001f38:	4690      	mov	r8, r2
10001f3a:	4699      	mov	r9, r3
10001f3c:	46a2      	mov	sl, r4
10001f3e:	46ab      	mov	fp, r5
10001f40:	bdf0      	pop	{r4, r5, r6, r7, pc}
10001f42:	4b19      	ldr	r3, [pc, #100]	; (10001fa8 <_Z11fontChar4X7Phiic+0x138>)
10001f44:	4641      	mov	r1, r8
10001f46:	469b      	mov	fp, r3
10001f48:	4643      	mov	r3, r8
10001f4a:	00db      	lsls	r3, r3, #3
10001f4c:	1a5b      	subs	r3, r3, r1
10001f4e:	9803      	ldr	r0, [sp, #12]
10001f50:	445b      	add	r3, fp
10001f52:	b2d1      	uxtb	r1, r2
10001f54:	00e5      	lsls	r5, r4, #3
10001f56:	1aa4      	subs	r4, r4, r2
10001f58:	5d1c      	ldrb	r4, [r3, r4]
10001f5a:	3101      	adds	r1, #1
10001f5c:	1945      	adds	r5, r0, r5
10001f5e:	b2c9      	uxtb	r1, r1
10001f60:	55ac      	strb	r4, [r5, r6]
10001f62:	000c      	movs	r4, r1
10001f64:	42b9      	cmp	r1, r7
10001f66:	ddf5      	ble.n	10001f54 <_Z11fontChar4X7Phiic+0xe4>
10001f68:	e7e4      	b.n	10001f34 <_Z11fontChar4X7Phiic+0xc4>
10001f6a:	4b0f      	ldr	r3, [pc, #60]	; (10001fa8 <_Z11fontChar4X7Phiic+0x138>)
10001f6c:	4641      	mov	r1, r8
10001f6e:	469b      	mov	fp, r3
10001f70:	4643      	mov	r3, r8
10001f72:	00db      	lsls	r3, r3, #3
10001f74:	1a5b      	subs	r3, r3, r1
10001f76:	449b      	add	fp, r3
10001f78:	9b03      	ldr	r3, [sp, #12]
10001f7a:	b2d1      	uxtb	r1, r2
10001f7c:	4699      	mov	r9, r3
10001f7e:	0013      	movs	r3, r2
10001f80:	4662      	mov	r2, ip
10001f82:	469c      	mov	ip, r3
10001f84:	4660      	mov	r0, ip
10001f86:	00e3      	lsls	r3, r4, #3
10001f88:	1a24      	subs	r4, r4, r0
10001f8a:	4658      	mov	r0, fp
10001f8c:	5d04      	ldrb	r4, [r0, r4]
10001f8e:	199b      	adds	r3, r3, r6
10001f90:	40ac      	lsls	r4, r5
10001f92:	444b      	add	r3, r9
10001f94:	7818      	ldrb	r0, [r3, #0]
10001f96:	3101      	adds	r1, #1
10001f98:	4010      	ands	r0, r2
10001f9a:	4304      	orrs	r4, r0
10001f9c:	b2c9      	uxtb	r1, r1
10001f9e:	701c      	strb	r4, [r3, #0]
10001fa0:	000c      	movs	r4, r1
10001fa2:	428f      	cmp	r7, r1
10001fa4:	daee      	bge.n	10001f84 <_Z11fontChar4X7Phiic+0x114>
10001fa6:	e7c5      	b.n	10001f34 <_Z11fontChar4X7Phiic+0xc4>
10001fa8:	10008508 	.word	0x10008508

10001fac <_Z12fontChar8X10Phiic>:
10001fac:	b5f0      	push	{r4, r5, r6, r7, lr}
10001fae:	2407      	movs	r4, #7
10001fb0:	464e      	mov	r6, r9
10001fb2:	4645      	mov	r5, r8
10001fb4:	4657      	mov	r7, sl
10001fb6:	46de      	mov	lr, fp
10001fb8:	4698      	mov	r8, r3
10001fba:	0023      	movs	r3, r4
10001fbc:	b5e0      	push	{r5, r6, r7, lr}
10001fbe:	17ce      	asrs	r6, r1, #31
10001fc0:	4033      	ands	r3, r6
10001fc2:	185b      	adds	r3, r3, r1
10001fc4:	10db      	asrs	r3, r3, #3
10001fc6:	b087      	sub	sp, #28
10001fc8:	0f76      	lsrs	r6, r6, #29
10001fca:	b2dd      	uxtb	r5, r3
10001fcc:	9502      	str	r5, [sp, #8]
10001fce:	198d      	adds	r5, r1, r6
10001fd0:	4025      	ands	r5, r4
10001fd2:	1bad      	subs	r5, r5, r6
10001fd4:	26ff      	movs	r6, #255	; 0xff
10001fd6:	0017      	movs	r7, r2
10001fd8:	0034      	movs	r4, r6
10001fda:	b2e9      	uxtb	r1, r5
10001fdc:	4689      	mov	r9, r1
10001fde:	3709      	adds	r7, #9
10001fe0:	b2d1      	uxtb	r1, r2
10001fe2:	9001      	str	r0, [sp, #4]
10001fe4:	9100      	str	r1, [sp, #0]
10001fe6:	4014      	ands	r4, r2
10001fe8:	42bc      	cmp	r4, r7
10001fea:	dc46      	bgt.n	1000207a <_Z12fontChar8X10Phiic+0xce>
10001fec:	2108      	movs	r1, #8
10001fee:	4035      	ands	r5, r6
10001ff0:	1b49      	subs	r1, r1, r5
10001ff2:	468b      	mov	fp, r1
10001ff4:	0031      	movs	r1, r6
10001ff6:	4658      	mov	r0, fp
10001ff8:	4101      	asrs	r1, r0
10001ffa:	b249      	sxtb	r1, r1
10001ffc:	468c      	mov	ip, r1
10001ffe:	0031      	movs	r1, r6
10002000:	40a9      	lsls	r1, r5
10002002:	401e      	ands	r6, r3
10002004:	464b      	mov	r3, r9
10002006:	b249      	sxtb	r1, r1
10002008:	9100      	str	r1, [sp, #0]
1000200a:	2b00      	cmp	r3, #0
1000200c:	d03c      	beq.n	10002088 <_Z12fontChar8X10Phiic+0xdc>
1000200e:	9b02      	ldr	r3, [sp, #8]
10002010:	2b06      	cmp	r3, #6
10002012:	d84d      	bhi.n	100020b0 <_Z12fontChar8X10Phiic+0x104>
10002014:	4b36      	ldr	r3, [pc, #216]	; (100020f0 <_Z12fontChar8X10Phiic+0x144>)
10002016:	46b2      	mov	sl, r6
10002018:	4699      	mov	r9, r3
1000201a:	4643      	mov	r3, r8
1000201c:	009b      	lsls	r3, r3, #2
1000201e:	4443      	add	r3, r8
10002020:	005b      	lsls	r3, r3, #1
10002022:	444b      	add	r3, r9
10002024:	9302      	str	r3, [sp, #8]
10002026:	4663      	mov	r3, ip
10002028:	46b9      	mov	r9, r7
1000202a:	4693      	mov	fp, r2
1000202c:	1c71      	adds	r1, r6, #1
1000202e:	46a8      	mov	r8, r5
10002030:	9d01      	ldr	r5, [sp, #4]
10002032:	9103      	str	r1, [sp, #12]
10002034:	9305      	str	r3, [sp, #20]
10002036:	b2d1      	uxtb	r1, r2
10002038:	9004      	str	r0, [sp, #16]
1000203a:	4652      	mov	r2, sl
1000203c:	00e3      	lsls	r3, r4, #3
1000203e:	1898      	adds	r0, r3, r2
10002040:	465a      	mov	r2, fp
10002042:	1aa4      	subs	r4, r4, r2
10002044:	9a02      	ldr	r2, [sp, #8]
10002046:	1828      	adds	r0, r5, r0
10002048:	5d12      	ldrb	r2, [r2, r4]
1000204a:	9e05      	ldr	r6, [sp, #20]
1000204c:	7804      	ldrb	r4, [r0, #0]
1000204e:	4647      	mov	r7, r8
10002050:	4034      	ands	r4, r6
10002052:	0016      	movs	r6, r2
10002054:	40be      	lsls	r6, r7
10002056:	4334      	orrs	r4, r6
10002058:	7004      	strb	r4, [r0, #0]
1000205a:	9803      	ldr	r0, [sp, #12]
1000205c:	9c00      	ldr	r4, [sp, #0]
1000205e:	4684      	mov	ip, r0
10002060:	4463      	add	r3, ip
10002062:	18eb      	adds	r3, r5, r3
10002064:	7818      	ldrb	r0, [r3, #0]
10002066:	3101      	adds	r1, #1
10002068:	4020      	ands	r0, r4
1000206a:	9c04      	ldr	r4, [sp, #16]
1000206c:	b2c9      	uxtb	r1, r1
1000206e:	4122      	asrs	r2, r4
10002070:	4302      	orrs	r2, r0
10002072:	701a      	strb	r2, [r3, #0]
10002074:	000c      	movs	r4, r1
10002076:	4549      	cmp	r1, r9
10002078:	dddf      	ble.n	1000203a <_Z12fontChar8X10Phiic+0x8e>
1000207a:	b007      	add	sp, #28
1000207c:	bc3c      	pop	{r2, r3, r4, r5}
1000207e:	4690      	mov	r8, r2
10002080:	4699      	mov	r9, r3
10002082:	46a2      	mov	sl, r4
10002084:	46ab      	mov	fp, r5
10002086:	bdf0      	pop	{r4, r5, r6, r7, pc}
10002088:	4b19      	ldr	r3, [pc, #100]	; (100020f0 <_Z12fontChar8X10Phiic+0x144>)
1000208a:	9801      	ldr	r0, [sp, #4]
1000208c:	4699      	mov	r9, r3
1000208e:	4643      	mov	r3, r8
10002090:	009b      	lsls	r3, r3, #2
10002092:	4443      	add	r3, r8
10002094:	005b      	lsls	r3, r3, #1
10002096:	444b      	add	r3, r9
10002098:	b2d1      	uxtb	r1, r2
1000209a:	00e5      	lsls	r5, r4, #3
1000209c:	1aa4      	subs	r4, r4, r2
1000209e:	5d1c      	ldrb	r4, [r3, r4]
100020a0:	3101      	adds	r1, #1
100020a2:	1945      	adds	r5, r0, r5
100020a4:	b2c9      	uxtb	r1, r1
100020a6:	55ac      	strb	r4, [r5, r6]
100020a8:	000c      	movs	r4, r1
100020aa:	42b9      	cmp	r1, r7
100020ac:	ddf5      	ble.n	1000209a <_Z12fontChar8X10Phiic+0xee>
100020ae:	e7e4      	b.n	1000207a <_Z12fontChar8X10Phiic+0xce>
100020b0:	4b0f      	ldr	r3, [pc, #60]	; (100020f0 <_Z12fontChar8X10Phiic+0x144>)
100020b2:	b2d1      	uxtb	r1, r2
100020b4:	4699      	mov	r9, r3
100020b6:	4643      	mov	r3, r8
100020b8:	009b      	lsls	r3, r3, #2
100020ba:	4443      	add	r3, r8
100020bc:	005b      	lsls	r3, r3, #1
100020be:	4499      	add	r9, r3
100020c0:	9b01      	ldr	r3, [sp, #4]
100020c2:	469a      	mov	sl, r3
100020c4:	0013      	movs	r3, r2
100020c6:	4662      	mov	r2, ip
100020c8:	469c      	mov	ip, r3
100020ca:	4660      	mov	r0, ip
100020cc:	00e3      	lsls	r3, r4, #3
100020ce:	1a24      	subs	r4, r4, r0
100020d0:	4648      	mov	r0, r9
100020d2:	5d04      	ldrb	r4, [r0, r4]
100020d4:	199b      	adds	r3, r3, r6
100020d6:	40ac      	lsls	r4, r5
100020d8:	4453      	add	r3, sl
100020da:	7818      	ldrb	r0, [r3, #0]
100020dc:	3101      	adds	r1, #1
100020de:	4010      	ands	r0, r2
100020e0:	4304      	orrs	r4, r0
100020e2:	b2c9      	uxtb	r1, r1
100020e4:	701c      	strb	r4, [r3, #0]
100020e6:	000c      	movs	r4, r1
100020e8:	428f      	cmp	r7, r1
100020ea:	daee      	bge.n	100020ca <_Z12fontChar8X10Phiic+0x11e>
100020ec:	e7c5      	b.n	1000207a <_Z12fontChar8X10Phiic+0xce>
100020ee:	46c0      	nop			; (mov r8, r8)
100020f0:	10008888 	.word	0x10008888

100020f4 <_Z13fontChar8X10BPhiic>:
100020f4:	b5f0      	push	{r4, r5, r6, r7, lr}
100020f6:	2407      	movs	r4, #7
100020f8:	464e      	mov	r6, r9
100020fa:	4645      	mov	r5, r8
100020fc:	4657      	mov	r7, sl
100020fe:	46de      	mov	lr, fp
10002100:	4698      	mov	r8, r3
10002102:	0023      	movs	r3, r4
10002104:	b5e0      	push	{r5, r6, r7, lr}
10002106:	17ce      	asrs	r6, r1, #31
10002108:	4033      	ands	r3, r6
1000210a:	185b      	adds	r3, r3, r1
1000210c:	10db      	asrs	r3, r3, #3
1000210e:	b087      	sub	sp, #28
10002110:	0f76      	lsrs	r6, r6, #29
10002112:	b2dd      	uxtb	r5, r3
10002114:	9502      	str	r5, [sp, #8]
10002116:	198d      	adds	r5, r1, r6
10002118:	4025      	ands	r5, r4
1000211a:	1bad      	subs	r5, r5, r6
1000211c:	26ff      	movs	r6, #255	; 0xff
1000211e:	0017      	movs	r7, r2
10002120:	0034      	movs	r4, r6
10002122:	b2e9      	uxtb	r1, r5
10002124:	4689      	mov	r9, r1
10002126:	3709      	adds	r7, #9
10002128:	b2d1      	uxtb	r1, r2
1000212a:	9001      	str	r0, [sp, #4]
1000212c:	9100      	str	r1, [sp, #0]
1000212e:	4014      	ands	r4, r2
10002130:	42bc      	cmp	r4, r7
10002132:	dc46      	bgt.n	100021c2 <_Z13fontChar8X10BPhiic+0xce>
10002134:	2108      	movs	r1, #8
10002136:	4035      	ands	r5, r6
10002138:	1b49      	subs	r1, r1, r5
1000213a:	468b      	mov	fp, r1
1000213c:	0031      	movs	r1, r6
1000213e:	4658      	mov	r0, fp
10002140:	4101      	asrs	r1, r0
10002142:	b249      	sxtb	r1, r1
10002144:	468c      	mov	ip, r1
10002146:	0031      	movs	r1, r6
10002148:	40a9      	lsls	r1, r5
1000214a:	401e      	ands	r6, r3
1000214c:	464b      	mov	r3, r9
1000214e:	b249      	sxtb	r1, r1
10002150:	9100      	str	r1, [sp, #0]
10002152:	2b00      	cmp	r3, #0
10002154:	d03c      	beq.n	100021d0 <_Z13fontChar8X10BPhiic+0xdc>
10002156:	9b02      	ldr	r3, [sp, #8]
10002158:	2b06      	cmp	r3, #6
1000215a:	d84d      	bhi.n	100021f8 <_Z13fontChar8X10BPhiic+0x104>
1000215c:	4b36      	ldr	r3, [pc, #216]	; (10002238 <_Z13fontChar8X10BPhiic+0x144>)
1000215e:	46b2      	mov	sl, r6
10002160:	4699      	mov	r9, r3
10002162:	4643      	mov	r3, r8
10002164:	009b      	lsls	r3, r3, #2
10002166:	4443      	add	r3, r8
10002168:	005b      	lsls	r3, r3, #1
1000216a:	444b      	add	r3, r9
1000216c:	9302      	str	r3, [sp, #8]
1000216e:	4663      	mov	r3, ip
10002170:	46b9      	mov	r9, r7
10002172:	4693      	mov	fp, r2
10002174:	1c71      	adds	r1, r6, #1
10002176:	46a8      	mov	r8, r5
10002178:	9d01      	ldr	r5, [sp, #4]
1000217a:	9103      	str	r1, [sp, #12]
1000217c:	9305      	str	r3, [sp, #20]
1000217e:	b2d1      	uxtb	r1, r2
10002180:	9004      	str	r0, [sp, #16]
10002182:	4652      	mov	r2, sl
10002184:	00e3      	lsls	r3, r4, #3
10002186:	1898      	adds	r0, r3, r2
10002188:	465a      	mov	r2, fp
1000218a:	1aa4      	subs	r4, r4, r2
1000218c:	9a02      	ldr	r2, [sp, #8]
1000218e:	1828      	adds	r0, r5, r0
10002190:	5d12      	ldrb	r2, [r2, r4]
10002192:	9e05      	ldr	r6, [sp, #20]
10002194:	7804      	ldrb	r4, [r0, #0]
10002196:	4647      	mov	r7, r8
10002198:	4034      	ands	r4, r6
1000219a:	0016      	movs	r6, r2
1000219c:	40be      	lsls	r6, r7
1000219e:	4334      	orrs	r4, r6
100021a0:	7004      	strb	r4, [r0, #0]
100021a2:	9803      	ldr	r0, [sp, #12]
100021a4:	9c00      	ldr	r4, [sp, #0]
100021a6:	4684      	mov	ip, r0
100021a8:	4463      	add	r3, ip
100021aa:	18eb      	adds	r3, r5, r3
100021ac:	7818      	ldrb	r0, [r3, #0]
100021ae:	3101      	adds	r1, #1
100021b0:	4020      	ands	r0, r4
100021b2:	9c04      	ldr	r4, [sp, #16]
100021b4:	b2c9      	uxtb	r1, r1
100021b6:	4122      	asrs	r2, r4
100021b8:	4302      	orrs	r2, r0
100021ba:	701a      	strb	r2, [r3, #0]
100021bc:	000c      	movs	r4, r1
100021be:	4549      	cmp	r1, r9
100021c0:	dddf      	ble.n	10002182 <_Z13fontChar8X10BPhiic+0x8e>
100021c2:	b007      	add	sp, #28
100021c4:	bc3c      	pop	{r2, r3, r4, r5}
100021c6:	4690      	mov	r8, r2
100021c8:	4699      	mov	r9, r3
100021ca:	46a2      	mov	sl, r4
100021cc:	46ab      	mov	fp, r5
100021ce:	bdf0      	pop	{r4, r5, r6, r7, pc}
100021d0:	4b19      	ldr	r3, [pc, #100]	; (10002238 <_Z13fontChar8X10BPhiic+0x144>)
100021d2:	9801      	ldr	r0, [sp, #4]
100021d4:	4699      	mov	r9, r3
100021d6:	4643      	mov	r3, r8
100021d8:	009b      	lsls	r3, r3, #2
100021da:	4443      	add	r3, r8
100021dc:	005b      	lsls	r3, r3, #1
100021de:	444b      	add	r3, r9
100021e0:	b2d1      	uxtb	r1, r2
100021e2:	00e5      	lsls	r5, r4, #3
100021e4:	1aa4      	subs	r4, r4, r2
100021e6:	5d1c      	ldrb	r4, [r3, r4]
100021e8:	3101      	adds	r1, #1
100021ea:	1945      	adds	r5, r0, r5
100021ec:	b2c9      	uxtb	r1, r1
100021ee:	55ac      	strb	r4, [r5, r6]
100021f0:	000c      	movs	r4, r1
100021f2:	42b9      	cmp	r1, r7
100021f4:	ddf5      	ble.n	100021e2 <_Z13fontChar8X10BPhiic+0xee>
100021f6:	e7e4      	b.n	100021c2 <_Z13fontChar8X10BPhiic+0xce>
100021f8:	4b0f      	ldr	r3, [pc, #60]	; (10002238 <_Z13fontChar8X10BPhiic+0x144>)
100021fa:	b2d1      	uxtb	r1, r2
100021fc:	4699      	mov	r9, r3
100021fe:	4643      	mov	r3, r8
10002200:	009b      	lsls	r3, r3, #2
10002202:	4443      	add	r3, r8
10002204:	005b      	lsls	r3, r3, #1
10002206:	4499      	add	r9, r3
10002208:	9b01      	ldr	r3, [sp, #4]
1000220a:	469a      	mov	sl, r3
1000220c:	0013      	movs	r3, r2
1000220e:	4662      	mov	r2, ip
10002210:	469c      	mov	ip, r3
10002212:	4660      	mov	r0, ip
10002214:	00e3      	lsls	r3, r4, #3
10002216:	1a24      	subs	r4, r4, r0
10002218:	4648      	mov	r0, r9
1000221a:	5d04      	ldrb	r4, [r0, r4]
1000221c:	199b      	adds	r3, r3, r6
1000221e:	40ac      	lsls	r4, r5
10002220:	4453      	add	r3, sl
10002222:	7818      	ldrb	r0, [r3, #0]
10002224:	3101      	adds	r1, #1
10002226:	4010      	ands	r0, r2
10002228:	4304      	orrs	r4, r0
1000222a:	b2c9      	uxtb	r1, r1
1000222c:	701c      	strb	r4, [r3, #0]
1000222e:	000c      	movs	r4, r1
10002230:	428f      	cmp	r7, r1
10002232:	daee      	bge.n	10002212 <_Z13fontChar8X10BPhiic+0x11e>
10002234:	e7c5      	b.n	100021c2 <_Z13fontChar8X10BPhiic+0xce>
10002236:	46c0      	nop			; (mov r8, r8)
10002238:	100089a0 	.word	0x100089a0

1000223c <_Z23timer_screen_refresh_cbP15repeating_timer>:
1000223c:	4b03      	ldr	r3, [pc, #12]	; (1000224c <_Z23timer_screen_refresh_cbP15repeating_timer+0x10>)
1000223e:	b510      	push	{r4, lr}
10002240:	6818      	ldr	r0, [r3, #0]
10002242:	6983      	ldr	r3, [r0, #24]
10002244:	4798      	blx	r3
10002246:	2001      	movs	r0, #1
10002248:	bd10      	pop	{r4, pc}
1000224a:	46c0      	nop			; (mov r8, r8)
1000224c:	20000e00 	.word	0x20000e00

10002250 <_Z18timer_autolight_cbP15repeating_timer>:
10002250:	4b18      	ldr	r3, [pc, #96]	; (100022b4 <_Z18timer_autolight_cbP15repeating_timer+0x64>)
10002252:	781b      	ldrb	r3, [r3, #0]
10002254:	2b01      	cmp	r3, #1
10002256:	d001      	beq.n	1000225c <_Z18timer_autolight_cbP15repeating_timer+0xc>
10002258:	2001      	movs	r0, #1
1000225a:	4770      	bx	lr
1000225c:	4b16      	ldr	r3, [pc, #88]	; (100022b8 <_Z18timer_autolight_cbP15repeating_timer+0x68>)
1000225e:	781b      	ldrb	r3, [r3, #0]
10002260:	2b00      	cmp	r3, #0
10002262:	d1f9      	bne.n	10002258 <_Z18timer_autolight_cbP15repeating_timer+0x8>
10002264:	4b15      	ldr	r3, [pc, #84]	; (100022bc <_Z18timer_autolight_cbP15repeating_timer+0x6c>)
10002266:	881a      	ldrh	r2, [r3, #0]
10002268:	4b15      	ldr	r3, [pc, #84]	; (100022c0 <_Z18timer_autolight_cbP15repeating_timer+0x70>)
1000226a:	881b      	ldrh	r3, [r3, #0]
1000226c:	429a      	cmp	r2, r3
1000226e:	d911      	bls.n	10002294 <_Z18timer_autolight_cbP15repeating_timer+0x44>
10002270:	4a14      	ldr	r2, [pc, #80]	; (100022c4 <_Z18timer_autolight_cbP15repeating_timer+0x74>)
10002272:	4915      	ldr	r1, [pc, #84]	; (100022c8 <_Z18timer_autolight_cbP15repeating_timer+0x78>)
10002274:	8813      	ldrh	r3, [r2, #0]
10002276:	8809      	ldrh	r1, [r1, #0]
10002278:	4299      	cmp	r1, r3
1000227a:	d811      	bhi.n	100022a0 <_Z18timer_autolight_cbP15repeating_timer+0x50>
1000227c:	21d0      	movs	r1, #208	; 0xd0
1000227e:	2080      	movs	r0, #128	; 0x80
10002280:	0609      	lsls	r1, r1, #24
10002282:	0180      	lsls	r0, r0, #6
10002284:	6188      	str	r0, [r1, #24]
10002286:	4911      	ldr	r1, [pc, #68]	; (100022cc <_Z18timer_autolight_cbP15repeating_timer+0x7c>)
10002288:	8809      	ldrh	r1, [r1, #0]
1000228a:	4299      	cmp	r1, r3
1000228c:	d80e      	bhi.n	100022ac <_Z18timer_autolight_cbP15repeating_timer+0x5c>
1000228e:	2300      	movs	r3, #0
10002290:	8013      	strh	r3, [r2, #0]
10002292:	e7e1      	b.n	10002258 <_Z18timer_autolight_cbP15repeating_timer+0x8>
10002294:	23d0      	movs	r3, #208	; 0xd0
10002296:	2280      	movs	r2, #128	; 0x80
10002298:	061b      	lsls	r3, r3, #24
1000229a:	0192      	lsls	r2, r2, #6
1000229c:	619a      	str	r2, [r3, #24]
1000229e:	e7db      	b.n	10002258 <_Z18timer_autolight_cbP15repeating_timer+0x8>
100022a0:	21d0      	movs	r1, #208	; 0xd0
100022a2:	2080      	movs	r0, #128	; 0x80
100022a4:	0609      	lsls	r1, r1, #24
100022a6:	0180      	lsls	r0, r0, #6
100022a8:	6148      	str	r0, [r1, #20]
100022aa:	e7ec      	b.n	10002286 <_Z18timer_autolight_cbP15repeating_timer+0x36>
100022ac:	3301      	adds	r3, #1
100022ae:	8013      	strh	r3, [r2, #0]
100022b0:	e7d2      	b.n	10002258 <_Z18timer_autolight_cbP15repeating_timer+0x8>
100022b2:	46c0      	nop			; (mov r8, r8)
100022b4:	20000524 	.word	0x20000524
100022b8:	200016a3 	.word	0x200016a3
100022bc:	2000169a 	.word	0x2000169a
100022c0:	20000520 	.word	0x20000520
100022c4:	2000169c 	.word	0x2000169c
100022c8:	20001694 	.word	0x20001694
100022cc:	20000522 	.word	0x20000522

100022d0 <_Z17timer_get_time_cbP15repeating_timer>:
100022d0:	b570      	push	{r4, r5, r6, lr}
100022d2:	4b19      	ldr	r3, [pc, #100]	; (10002338 <_Z17timer_get_time_cbP15repeating_timer+0x68>)
100022d4:	781b      	ldrb	r3, [r3, #0]
100022d6:	b25b      	sxtb	r3, r3
100022d8:	2b00      	cmp	r3, #0
100022da:	d01d      	beq.n	10002318 <_Z17timer_get_time_cbP15repeating_timer+0x48>
100022dc:	4b17      	ldr	r3, [pc, #92]	; (1000233c <_Z17timer_get_time_cbP15repeating_timer+0x6c>)
100022de:	781b      	ldrb	r3, [r3, #0]
100022e0:	2b01      	cmp	r3, #1
100022e2:	d001      	beq.n	100022e8 <_Z17timer_get_time_cbP15repeating_timer+0x18>
100022e4:	2001      	movs	r0, #1
100022e6:	bd70      	pop	{r4, r5, r6, pc}
100022e8:	2204      	movs	r2, #4
100022ea:	2180      	movs	r1, #128	; 0x80
100022ec:	4b14      	ldr	r3, [pc, #80]	; (10002340 <_Z17timer_get_time_cbP15repeating_timer+0x70>)
100022ee:	0049      	lsls	r1, r1, #1
100022f0:	601a      	str	r2, [r3, #0]
100022f2:	4a14      	ldr	r2, [pc, #80]	; (10002344 <_Z17timer_get_time_cbP15repeating_timer+0x74>)
100022f4:	6813      	ldr	r3, [r2, #0]
100022f6:	420b      	tst	r3, r1
100022f8:	d0fc      	beq.n	100022f4 <_Z17timer_get_time_cbP15repeating_timer+0x24>
100022fa:	6850      	ldr	r0, [r2, #4]
100022fc:	4b12      	ldr	r3, [pc, #72]	; (10002348 <_Z17timer_get_time_cbP15repeating_timer+0x78>)
100022fe:	8018      	strh	r0, [r3, #0]
10002300:	4b12      	ldr	r3, [pc, #72]	; (1000234c <_Z17timer_get_time_cbP15repeating_timer+0x7c>)
10002302:	0400      	lsls	r0, r0, #16
10002304:	881b      	ldrh	r3, [r3, #0]
10002306:	0c00      	lsrs	r0, r0, #16
10002308:	1ac0      	subs	r0, r0, r3
1000230a:	4b11      	ldr	r3, [pc, #68]	; (10002350 <_Z17timer_get_time_cbP15repeating_timer+0x80>)
1000230c:	8819      	ldrh	r1, [r3, #0]
1000230e:	f002 fcdd 	bl	10004ccc <__wrap___aeabi_idiv>
10002312:	4b10      	ldr	r3, [pc, #64]	; (10002354 <_Z17timer_get_time_cbP15repeating_timer+0x84>)
10002314:	8018      	strh	r0, [r3, #0]
10002316:	e7e5      	b.n	100022e4 <_Z17timer_get_time_cbP15repeating_timer+0x14>
10002318:	4d0f      	ldr	r5, [pc, #60]	; (10002358 <_Z17timer_get_time_cbP15repeating_timer+0x88>)
1000231a:	0028      	movs	r0, r5
1000231c:	f7fe f9de 	bl	100006dc <_Z23ds3231_get_temp_integerPh>
10002320:	4c0e      	ldr	r4, [pc, #56]	; (1000235c <_Z17timer_get_time_cbP15repeating_timer+0x8c>)
10002322:	0020      	movs	r0, r4
10002324:	f7fe f96e 	bl	10000604 <_Z15ds3231_get_timeP6RTC_tm>
10002328:	4b0d      	ldr	r3, [pc, #52]	; (10002360 <_Z17timer_get_time_cbP15repeating_timer+0x90>)
1000232a:	002a      	movs	r2, r5
1000232c:	6818      	ldr	r0, [r3, #0]
1000232e:	0021      	movs	r1, r4
10002330:	f7ff f9ac 	bl	1000168c <_Z19displayDateTimePageP13DisplayDeviceP6RTC_tmPh>
10002334:	e7d2      	b.n	100022dc <_Z17timer_get_time_cbP15repeating_timer+0xc>
10002336:	46c0      	nop			; (mov r8, r8)
10002338:	200016b0 	.word	0x200016b0
1000233c:	20000524 	.word	0x20000524
10002340:	4004e000 	.word	0x4004e000
10002344:	4004c000 	.word	0x4004c000
10002348:	2000169a 	.word	0x2000169a
1000234c:	20000520 	.word	0x20000520
10002350:	20001696 	.word	0x20001696
10002354:	20001694 	.word	0x20001694
10002358:	200016b7 	.word	0x200016b7
1000235c:	20000528 	.word	0x20000528
10002360:	20000e00 	.word	0x20000e00

10002364 <_Z17K1_DOWN_OPERATIONv>:
10002364:	b570      	push	{r4, r5, r6, lr}
10002366:	4b4e      	ldr	r3, [pc, #312]	; (100024a0 <_Z17K1_DOWN_OPERATIONv+0x13c>)
10002368:	781b      	ldrb	r3, [r3, #0]
1000236a:	b25b      	sxtb	r3, r3
1000236c:	2b01      	cmp	r3, #1
1000236e:	d00f      	beq.n	10002390 <_Z17K1_DOWN_OPERATIONv+0x2c>
10002370:	2b02      	cmp	r3, #2
10002372:	d10c      	bne.n	1000238e <_Z17K1_DOWN_OPERATIONv+0x2a>
10002374:	4b4b      	ldr	r3, [pc, #300]	; (100024a4 <_Z17K1_DOWN_OPERATIONv+0x140>)
10002376:	781b      	ldrb	r3, [r3, #0]
10002378:	2b01      	cmp	r3, #1
1000237a:	d034      	beq.n	100023e6 <_Z17K1_DOWN_OPERATIONv+0x82>
1000237c:	2b02      	cmp	r3, #2
1000237e:	d016      	beq.n	100023ae <_Z17K1_DOWN_OPERATIONv+0x4a>
10002380:	2b03      	cmp	r3, #3
10002382:	d04b      	beq.n	1000241c <_Z17K1_DOWN_OPERATIONv+0xb8>
10002384:	2b04      	cmp	r3, #4
10002386:	d100      	bne.n	1000238a <_Z17K1_DOWN_OPERATIONv+0x26>
10002388:	e069      	b.n	1000245e <_Z17K1_DOWN_OPERATIONv+0xfa>
1000238a:	2b05      	cmp	r3, #5
1000238c:	d009      	beq.n	100023a2 <_Z17K1_DOWN_OPERATIONv+0x3e>
1000238e:	bd70      	pop	{r4, r5, r6, pc}
10002390:	4a44      	ldr	r2, [pc, #272]	; (100024a4 <_Z17K1_DOWN_OPERATIONv+0x140>)
10002392:	7813      	ldrb	r3, [r2, #0]
10002394:	3b01      	subs	r3, #1
10002396:	b2db      	uxtb	r3, r3
10002398:	2b00      	cmp	r3, #0
1000239a:	d106      	bne.n	100023aa <_Z17K1_DOWN_OPERATIONv+0x46>
1000239c:	2305      	movs	r3, #5
1000239e:	7013      	strb	r3, [r2, #0]
100023a0:	e7f5      	b.n	1000238e <_Z17K1_DOWN_OPERATIONv+0x2a>
100023a2:	4a41      	ldr	r2, [pc, #260]	; (100024a8 <_Z17K1_DOWN_OPERATIONv+0x144>)
100023a4:	7813      	ldrb	r3, [r2, #0]
100023a6:	4259      	negs	r1, r3
100023a8:	414b      	adcs	r3, r1
100023aa:	7013      	strb	r3, [r2, #0]
100023ac:	e7ef      	b.n	1000238e <_Z17K1_DOWN_OPERATIONv+0x2a>
100023ae:	4b3f      	ldr	r3, [pc, #252]	; (100024ac <_Z17K1_DOWN_OPERATIONv+0x148>)
100023b0:	781b      	ldrb	r3, [r3, #0]
100023b2:	b25b      	sxtb	r3, r3
100023b4:	2b00      	cmp	r3, #0
100023b6:	d137      	bne.n	10002428 <_Z17K1_DOWN_OPERATIONv+0xc4>
100023b8:	4c3d      	ldr	r4, [pc, #244]	; (100024b0 <_Z17K1_DOWN_OPERATIONv+0x14c>)
100023ba:	4b3e      	ldr	r3, [pc, #248]	; (100024b4 <_Z17K1_DOWN_OPERATIONv+0x150>)
100023bc:	8820      	ldrh	r0, [r4, #0]
100023be:	3801      	subs	r0, #1
100023c0:	b280      	uxth	r0, r0
100023c2:	4298      	cmp	r0, r3
100023c4:	d800      	bhi.n	100023c8 <_Z17K1_DOWN_OPERATIONv+0x64>
100023c6:	483c      	ldr	r0, [pc, #240]	; (100024b8 <_Z17K1_DOWN_OPERATIONv+0x154>)
100023c8:	4e3c      	ldr	r6, [pc, #240]	; (100024bc <_Z17K1_DOWN_OPERATIONv+0x158>)
100023ca:	8020      	strh	r0, [r4, #0]
100023cc:	7831      	ldrb	r1, [r6, #0]
100023ce:	f7ff fcaf 	bl	10001d30 <_Z14get_month_dateth>
100023d2:	4d3b      	ldr	r5, [pc, #236]	; (100024c0 <_Z17K1_DOWN_OPERATIONv+0x15c>)
100023d4:	782b      	ldrb	r3, [r5, #0]
100023d6:	4283      	cmp	r3, r0
100023d8:	d9d9      	bls.n	1000238e <_Z17K1_DOWN_OPERATIONv+0x2a>
100023da:	7831      	ldrb	r1, [r6, #0]
100023dc:	8820      	ldrh	r0, [r4, #0]
100023de:	f7ff fca7 	bl	10001d30 <_Z14get_month_dateth>
100023e2:	7028      	strb	r0, [r5, #0]
100023e4:	e7d3      	b.n	1000238e <_Z17K1_DOWN_OPERATIONv+0x2a>
100023e6:	4b31      	ldr	r3, [pc, #196]	; (100024ac <_Z17K1_DOWN_OPERATIONv+0x148>)
100023e8:	781b      	ldrb	r3, [r3, #0]
100023ea:	b25b      	sxtb	r3, r3
100023ec:	2b00      	cmp	r3, #0
100023ee:	d108      	bne.n	10002402 <_Z17K1_DOWN_OPERATIONv+0x9e>
100023f0:	4a34      	ldr	r2, [pc, #208]	; (100024c4 <_Z17K1_DOWN_OPERATIONv+0x160>)
100023f2:	7813      	ldrb	r3, [r2, #0]
100023f4:	3b01      	subs	r3, #1
100023f6:	b2db      	uxtb	r3, r3
100023f8:	2bff      	cmp	r3, #255	; 0xff
100023fa:	d1d6      	bne.n	100023aa <_Z17K1_DOWN_OPERATIONv+0x46>
100023fc:	2317      	movs	r3, #23
100023fe:	7013      	strb	r3, [r2, #0]
10002400:	e7c5      	b.n	1000238e <_Z17K1_DOWN_OPERATIONv+0x2a>
10002402:	2b01      	cmp	r3, #1
10002404:	d023      	beq.n	1000244e <_Z17K1_DOWN_OPERATIONv+0xea>
10002406:	2b02      	cmp	r3, #2
10002408:	d1c1      	bne.n	1000238e <_Z17K1_DOWN_OPERATIONv+0x2a>
1000240a:	4a2f      	ldr	r2, [pc, #188]	; (100024c8 <_Z17K1_DOWN_OPERATIONv+0x164>)
1000240c:	7813      	ldrb	r3, [r2, #0]
1000240e:	3b01      	subs	r3, #1
10002410:	b2db      	uxtb	r3, r3
10002412:	2bff      	cmp	r3, #255	; 0xff
10002414:	d1c9      	bne.n	100023aa <_Z17K1_DOWN_OPERATIONv+0x46>
10002416:	233b      	movs	r3, #59	; 0x3b
10002418:	7013      	strb	r3, [r2, #0]
1000241a:	e7b8      	b.n	1000238e <_Z17K1_DOWN_OPERATIONv+0x2a>
1000241c:	4a2b      	ldr	r2, [pc, #172]	; (100024cc <_Z17K1_DOWN_OPERATIONv+0x168>)
1000241e:	7813      	ldrb	r3, [r2, #0]
10002420:	4259      	negs	r1, r3
10002422:	414b      	adcs	r3, r1
10002424:	7013      	strb	r3, [r2, #0]
10002426:	e7b2      	b.n	1000238e <_Z17K1_DOWN_OPERATIONv+0x2a>
10002428:	2b01      	cmp	r3, #1
1000242a:	d01e      	beq.n	1000246a <_Z17K1_DOWN_OPERATIONv+0x106>
1000242c:	2b02      	cmp	r3, #2
1000242e:	d1ae      	bne.n	1000238e <_Z17K1_DOWN_OPERATIONv+0x2a>
10002430:	4c23      	ldr	r4, [pc, #140]	; (100024c0 <_Z17K1_DOWN_OPERATIONv+0x15c>)
10002432:	7823      	ldrb	r3, [r4, #0]
10002434:	3b01      	subs	r3, #1
10002436:	b2db      	uxtb	r3, r3
10002438:	7023      	strb	r3, [r4, #0]
1000243a:	2b00      	cmp	r3, #0
1000243c:	d1a7      	bne.n	1000238e <_Z17K1_DOWN_OPERATIONv+0x2a>
1000243e:	4b1f      	ldr	r3, [pc, #124]	; (100024bc <_Z17K1_DOWN_OPERATIONv+0x158>)
10002440:	7819      	ldrb	r1, [r3, #0]
10002442:	4b1b      	ldr	r3, [pc, #108]	; (100024b0 <_Z17K1_DOWN_OPERATIONv+0x14c>)
10002444:	8818      	ldrh	r0, [r3, #0]
10002446:	f7ff fc73 	bl	10001d30 <_Z14get_month_dateth>
1000244a:	7020      	strb	r0, [r4, #0]
1000244c:	e79f      	b.n	1000238e <_Z17K1_DOWN_OPERATIONv+0x2a>
1000244e:	4a20      	ldr	r2, [pc, #128]	; (100024d0 <_Z17K1_DOWN_OPERATIONv+0x16c>)
10002450:	7813      	ldrb	r3, [r2, #0]
10002452:	3b01      	subs	r3, #1
10002454:	b2db      	uxtb	r3, r3
10002456:	2bff      	cmp	r3, #255	; 0xff
10002458:	d0dd      	beq.n	10002416 <_Z17K1_DOWN_OPERATIONv+0xb2>
1000245a:	7013      	strb	r3, [r2, #0]
1000245c:	e797      	b.n	1000238e <_Z17K1_DOWN_OPERATIONv+0x2a>
1000245e:	4a1d      	ldr	r2, [pc, #116]	; (100024d4 <_Z17K1_DOWN_OPERATIONv+0x170>)
10002460:	7813      	ldrb	r3, [r2, #0]
10002462:	4259      	negs	r1, r3
10002464:	414b      	adcs	r3, r1
10002466:	7013      	strb	r3, [r2, #0]
10002468:	e791      	b.n	1000238e <_Z17K1_DOWN_OPERATIONv+0x2a>
1000246a:	4c14      	ldr	r4, [pc, #80]	; (100024bc <_Z17K1_DOWN_OPERATIONv+0x158>)
1000246c:	7821      	ldrb	r1, [r4, #0]
1000246e:	3901      	subs	r1, #1
10002470:	b2c9      	uxtb	r1, r1
10002472:	2900      	cmp	r1, #0
10002474:	d00f      	beq.n	10002496 <_Z17K1_DOWN_OPERATIONv+0x132>
10002476:	7021      	strb	r1, [r4, #0]
10002478:	4e0d      	ldr	r6, [pc, #52]	; (100024b0 <_Z17K1_DOWN_OPERATIONv+0x14c>)
1000247a:	8830      	ldrh	r0, [r6, #0]
1000247c:	f7ff fc58 	bl	10001d30 <_Z14get_month_dateth>
10002480:	4d0f      	ldr	r5, [pc, #60]	; (100024c0 <_Z17K1_DOWN_OPERATIONv+0x15c>)
10002482:	782b      	ldrb	r3, [r5, #0]
10002484:	4283      	cmp	r3, r0
10002486:	d800      	bhi.n	1000248a <_Z17K1_DOWN_OPERATIONv+0x126>
10002488:	e781      	b.n	1000238e <_Z17K1_DOWN_OPERATIONv+0x2a>
1000248a:	7821      	ldrb	r1, [r4, #0]
1000248c:	8830      	ldrh	r0, [r6, #0]
1000248e:	f7ff fc4f 	bl	10001d30 <_Z14get_month_dateth>
10002492:	7028      	strb	r0, [r5, #0]
10002494:	e77b      	b.n	1000238e <_Z17K1_DOWN_OPERATIONv+0x2a>
10002496:	230c      	movs	r3, #12
10002498:	210c      	movs	r1, #12
1000249a:	7023      	strb	r3, [r4, #0]
1000249c:	e7ec      	b.n	10002478 <_Z17K1_DOWN_OPERATIONv+0x114>
1000249e:	46c0      	nop			; (mov r8, r8)
100024a0:	200016b0 	.word	0x200016b0
100024a4:	20000530 	.word	0x20000530
100024a8:	200016a2 	.word	0x200016a2
100024ac:	200016b1 	.word	0x200016b1
100024b0:	2000169e 	.word	0x2000169e
100024b4:	000007cf 	.word	0x000007cf
100024b8:	00000833 	.word	0x00000833
100024bc:	200016b5 	.word	0x200016b5
100024c0:	200016b3 	.word	0x200016b3
100024c4:	200016b2 	.word	0x200016b2
100024c8:	200016b6 	.word	0x200016b6
100024cc:	20000524 	.word	0x20000524
100024d0:	200016b4 	.word	0x200016b4
100024d4:	200016a1 	.word	0x200016a1

100024d8 <_Z15K2_UP_OPERATIONv>:
100024d8:	b570      	push	{r4, r5, r6, lr}
100024da:	4b4d      	ldr	r3, [pc, #308]	; (10002610 <_Z15K2_UP_OPERATIONv+0x138>)
100024dc:	781b      	ldrb	r3, [r3, #0]
100024de:	b25b      	sxtb	r3, r3
100024e0:	2b01      	cmp	r3, #1
100024e2:	d00f      	beq.n	10002504 <_Z15K2_UP_OPERATIONv+0x2c>
100024e4:	2b02      	cmp	r3, #2
100024e6:	d10c      	bne.n	10002502 <_Z15K2_UP_OPERATIONv+0x2a>
100024e8:	4b4a      	ldr	r3, [pc, #296]	; (10002614 <_Z15K2_UP_OPERATIONv+0x13c>)
100024ea:	781b      	ldrb	r3, [r3, #0]
100024ec:	2b01      	cmp	r3, #1
100024ee:	d011      	beq.n	10002514 <_Z15K2_UP_OPERATIONv+0x3c>
100024f0:	2b02      	cmp	r3, #2
100024f2:	d01c      	beq.n	1000252e <_Z15K2_UP_OPERATIONv+0x56>
100024f4:	2b03      	cmp	r3, #3
100024f6:	d043      	beq.n	10002580 <_Z15K2_UP_OPERATIONv+0xa8>
100024f8:	2b04      	cmp	r3, #4
100024fa:	d100      	bne.n	100024fe <_Z15K2_UP_OPERATIONv+0x26>
100024fc:	e069      	b.n	100025d2 <_Z15K2_UP_OPERATIONv+0xfa>
100024fe:	2b05      	cmp	r3, #5
10002500:	d058      	beq.n	100025b4 <_Z15K2_UP_OPERATIONv+0xdc>
10002502:	bd70      	pop	{r4, r5, r6, pc}
10002504:	4943      	ldr	r1, [pc, #268]	; (10002614 <_Z15K2_UP_OPERATIONv+0x13c>)
10002506:	780a      	ldrb	r2, [r1, #0]
10002508:	3201      	adds	r2, #1
1000250a:	b2d2      	uxtb	r2, r2
1000250c:	2a05      	cmp	r2, #5
1000250e:	d90c      	bls.n	1000252a <_Z15K2_UP_OPERATIONv+0x52>
10002510:	700b      	strb	r3, [r1, #0]
10002512:	e7f6      	b.n	10002502 <_Z15K2_UP_OPERATIONv+0x2a>
10002514:	2200      	movs	r2, #0
10002516:	4b40      	ldr	r3, [pc, #256]	; (10002618 <_Z15K2_UP_OPERATIONv+0x140>)
10002518:	569a      	ldrsb	r2, [r3, r2]
1000251a:	2a00      	cmp	r2, #0
1000251c:	d124      	bne.n	10002568 <_Z15K2_UP_OPERATIONv+0x90>
1000251e:	493f      	ldr	r1, [pc, #252]	; (1000261c <_Z15K2_UP_OPERATIONv+0x144>)
10002520:	780b      	ldrb	r3, [r1, #0]
10002522:	3301      	adds	r3, #1
10002524:	b2db      	uxtb	r3, r3
10002526:	2b18      	cmp	r3, #24
10002528:	d1f2      	bne.n	10002510 <_Z15K2_UP_OPERATIONv+0x38>
1000252a:	700a      	strb	r2, [r1, #0]
1000252c:	e7e9      	b.n	10002502 <_Z15K2_UP_OPERATIONv+0x2a>
1000252e:	4b3a      	ldr	r3, [pc, #232]	; (10002618 <_Z15K2_UP_OPERATIONv+0x140>)
10002530:	781b      	ldrb	r3, [r3, #0]
10002532:	b25b      	sxtb	r3, r3
10002534:	2b00      	cmp	r3, #0
10002536:	d129      	bne.n	1000258c <_Z15K2_UP_OPERATIONv+0xb4>
10002538:	4c39      	ldr	r4, [pc, #228]	; (10002620 <_Z15K2_UP_OPERATIONv+0x148>)
1000253a:	4b3a      	ldr	r3, [pc, #232]	; (10002624 <_Z15K2_UP_OPERATIONv+0x14c>)
1000253c:	8820      	ldrh	r0, [r4, #0]
1000253e:	3001      	adds	r0, #1
10002540:	b280      	uxth	r0, r0
10002542:	4298      	cmp	r0, r3
10002544:	d101      	bne.n	1000254a <_Z15K2_UP_OPERATIONv+0x72>
10002546:	20fa      	movs	r0, #250	; 0xfa
10002548:	00c0      	lsls	r0, r0, #3
1000254a:	4e37      	ldr	r6, [pc, #220]	; (10002628 <_Z15K2_UP_OPERATIONv+0x150>)
1000254c:	8020      	strh	r0, [r4, #0]
1000254e:	7831      	ldrb	r1, [r6, #0]
10002550:	f7ff fbee 	bl	10001d30 <_Z14get_month_dateth>
10002554:	4d35      	ldr	r5, [pc, #212]	; (1000262c <_Z15K2_UP_OPERATIONv+0x154>)
10002556:	782b      	ldrb	r3, [r5, #0]
10002558:	4283      	cmp	r3, r0
1000255a:	d9d2      	bls.n	10002502 <_Z15K2_UP_OPERATIONv+0x2a>
1000255c:	7831      	ldrb	r1, [r6, #0]
1000255e:	8820      	ldrh	r0, [r4, #0]
10002560:	f7ff fbe6 	bl	10001d30 <_Z14get_month_dateth>
10002564:	7028      	strb	r0, [r5, #0]
10002566:	e7cc      	b.n	10002502 <_Z15K2_UP_OPERATIONv+0x2a>
10002568:	2a01      	cmp	r2, #1
1000256a:	d029      	beq.n	100025c0 <_Z15K2_UP_OPERATIONv+0xe8>
1000256c:	2a02      	cmp	r2, #2
1000256e:	d1c8      	bne.n	10002502 <_Z15K2_UP_OPERATIONv+0x2a>
10002570:	4a2f      	ldr	r2, [pc, #188]	; (10002630 <_Z15K2_UP_OPERATIONv+0x158>)
10002572:	7813      	ldrb	r3, [r2, #0]
10002574:	3301      	adds	r3, #1
10002576:	b2db      	uxtb	r3, r3
10002578:	2b3c      	cmp	r3, #60	; 0x3c
1000257a:	d027      	beq.n	100025cc <_Z15K2_UP_OPERATIONv+0xf4>
1000257c:	7013      	strb	r3, [r2, #0]
1000257e:	e7c0      	b.n	10002502 <_Z15K2_UP_OPERATIONv+0x2a>
10002580:	4a2c      	ldr	r2, [pc, #176]	; (10002634 <_Z15K2_UP_OPERATIONv+0x15c>)
10002582:	7813      	ldrb	r3, [r2, #0]
10002584:	4259      	negs	r1, r3
10002586:	414b      	adcs	r3, r1
10002588:	7013      	strb	r3, [r2, #0]
1000258a:	e7ba      	b.n	10002502 <_Z15K2_UP_OPERATIONv+0x2a>
1000258c:	2b01      	cmp	r3, #1
1000258e:	d026      	beq.n	100025de <_Z15K2_UP_OPERATIONv+0x106>
10002590:	2b02      	cmp	r3, #2
10002592:	d1b6      	bne.n	10002502 <_Z15K2_UP_OPERATIONv+0x2a>
10002594:	4c25      	ldr	r4, [pc, #148]	; (1000262c <_Z15K2_UP_OPERATIONv+0x154>)
10002596:	7823      	ldrb	r3, [r4, #0]
10002598:	3301      	adds	r3, #1
1000259a:	7023      	strb	r3, [r4, #0]
1000259c:	4b22      	ldr	r3, [pc, #136]	; (10002628 <_Z15K2_UP_OPERATIONv+0x150>)
1000259e:	7819      	ldrb	r1, [r3, #0]
100025a0:	4b1f      	ldr	r3, [pc, #124]	; (10002620 <_Z15K2_UP_OPERATIONv+0x148>)
100025a2:	8818      	ldrh	r0, [r3, #0]
100025a4:	f7ff fbc4 	bl	10001d30 <_Z14get_month_dateth>
100025a8:	7823      	ldrb	r3, [r4, #0]
100025aa:	4283      	cmp	r3, r0
100025ac:	d9a9      	bls.n	10002502 <_Z15K2_UP_OPERATIONv+0x2a>
100025ae:	2301      	movs	r3, #1
100025b0:	7023      	strb	r3, [r4, #0]
100025b2:	e7a6      	b.n	10002502 <_Z15K2_UP_OPERATIONv+0x2a>
100025b4:	4a20      	ldr	r2, [pc, #128]	; (10002638 <_Z15K2_UP_OPERATIONv+0x160>)
100025b6:	7813      	ldrb	r3, [r2, #0]
100025b8:	4259      	negs	r1, r3
100025ba:	414b      	adcs	r3, r1
100025bc:	7013      	strb	r3, [r2, #0]
100025be:	e7a0      	b.n	10002502 <_Z15K2_UP_OPERATIONv+0x2a>
100025c0:	4a1e      	ldr	r2, [pc, #120]	; (1000263c <_Z15K2_UP_OPERATIONv+0x164>)
100025c2:	7813      	ldrb	r3, [r2, #0]
100025c4:	3301      	adds	r3, #1
100025c6:	b2db      	uxtb	r3, r3
100025c8:	2b3c      	cmp	r3, #60	; 0x3c
100025ca:	d1d7      	bne.n	1000257c <_Z15K2_UP_OPERATIONv+0xa4>
100025cc:	2300      	movs	r3, #0
100025ce:	7013      	strb	r3, [r2, #0]
100025d0:	e797      	b.n	10002502 <_Z15K2_UP_OPERATIONv+0x2a>
100025d2:	4a1b      	ldr	r2, [pc, #108]	; (10002640 <_Z15K2_UP_OPERATIONv+0x168>)
100025d4:	7813      	ldrb	r3, [r2, #0]
100025d6:	4259      	negs	r1, r3
100025d8:	414b      	adcs	r3, r1
100025da:	7013      	strb	r3, [r2, #0]
100025dc:	e791      	b.n	10002502 <_Z15K2_UP_OPERATIONv+0x2a>
100025de:	4c12      	ldr	r4, [pc, #72]	; (10002628 <_Z15K2_UP_OPERATIONv+0x150>)
100025e0:	7821      	ldrb	r1, [r4, #0]
100025e2:	3101      	adds	r1, #1
100025e4:	b2c9      	uxtb	r1, r1
100025e6:	290d      	cmp	r1, #13
100025e8:	d00f      	beq.n	1000260a <_Z15K2_UP_OPERATIONv+0x132>
100025ea:	7021      	strb	r1, [r4, #0]
100025ec:	4e0c      	ldr	r6, [pc, #48]	; (10002620 <_Z15K2_UP_OPERATIONv+0x148>)
100025ee:	8830      	ldrh	r0, [r6, #0]
100025f0:	f7ff fb9e 	bl	10001d30 <_Z14get_month_dateth>
100025f4:	4d0d      	ldr	r5, [pc, #52]	; (1000262c <_Z15K2_UP_OPERATIONv+0x154>)
100025f6:	782b      	ldrb	r3, [r5, #0]
100025f8:	4283      	cmp	r3, r0
100025fa:	d800      	bhi.n	100025fe <_Z15K2_UP_OPERATIONv+0x126>
100025fc:	e781      	b.n	10002502 <_Z15K2_UP_OPERATIONv+0x2a>
100025fe:	7821      	ldrb	r1, [r4, #0]
10002600:	8830      	ldrh	r0, [r6, #0]
10002602:	f7ff fb95 	bl	10001d30 <_Z14get_month_dateth>
10002606:	7028      	strb	r0, [r5, #0]
10002608:	e77b      	b.n	10002502 <_Z15K2_UP_OPERATIONv+0x2a>
1000260a:	7023      	strb	r3, [r4, #0]
1000260c:	2101      	movs	r1, #1
1000260e:	e7ed      	b.n	100025ec <_Z15K2_UP_OPERATIONv+0x114>
10002610:	200016b0 	.word	0x200016b0
10002614:	20000530 	.word	0x20000530
10002618:	200016b1 	.word	0x200016b1
1000261c:	200016b2 	.word	0x200016b2
10002620:	2000169e 	.word	0x2000169e
10002624:	00000834 	.word	0x00000834
10002628:	200016b5 	.word	0x200016b5
1000262c:	200016b3 	.word	0x200016b3
10002630:	200016b6 	.word	0x200016b6
10002634:	20000524 	.word	0x20000524
10002638:	200016a2 	.word	0x200016a2
1000263c:	200016b4 	.word	0x200016b4
10002640:	200016a1 	.word	0x200016a1

10002644 <_Z18K2_PRESS_OPERATIONv>:
10002644:	b5f8      	push	{r3, r4, r5, r6, r7, lr}
10002646:	2300      	movs	r3, #0
10002648:	4c27      	ldr	r4, [pc, #156]	; (100026e8 <_Z18K2_PRESS_OPERATIONv+0xa4>)
1000264a:	56e3      	ldrsb	r3, [r4, r3]
1000264c:	2b01      	cmp	r3, #1
1000264e:	d010      	beq.n	10002672 <_Z18K2_PRESS_OPERATIONv+0x2e>
10002650:	2b02      	cmp	r3, #2
10002652:	d006      	beq.n	10002662 <_Z18K2_PRESS_OPERATIONv+0x1e>
10002654:	3b01      	subs	r3, #1
10002656:	b25b      	sxtb	r3, r3
10002658:	2b00      	cmp	r3, #0
1000265a:	da08      	bge.n	1000266e <_Z18K2_PRESS_OPERATIONv+0x2a>
1000265c:	2300      	movs	r3, #0
1000265e:	7023      	strb	r3, [r4, #0]
10002660:	e006      	b.n	10002670 <_Z18K2_PRESS_OPERATIONv+0x2c>
10002662:	4d22      	ldr	r5, [pc, #136]	; (100026ec <_Z18K2_PRESS_OPERATIONv+0xa8>)
10002664:	782b      	ldrb	r3, [r5, #0]
10002666:	1e5a      	subs	r2, r3, #1
10002668:	2a01      	cmp	r2, #1
1000266a:	d90f      	bls.n	1000268c <_Z18K2_PRESS_OPERATIONv+0x48>
1000266c:	2301      	movs	r3, #1
1000266e:	7023      	strb	r3, [r4, #0]
10002670:	bdf8      	pop	{r3, r4, r5, r6, r7, pc}
10002672:	4d1f      	ldr	r5, [pc, #124]	; (100026f0 <_Z18K2_PRESS_OPERATIONv+0xac>)
10002674:	0028      	movs	r0, r5
10002676:	f7fd ffc5 	bl	10000604 <_Z15ds3231_get_timeP6RTC_tm>
1000267a:	4b1e      	ldr	r3, [pc, #120]	; (100026f4 <_Z18K2_PRESS_OPERATIONv+0xb0>)
1000267c:	4a1e      	ldr	r2, [pc, #120]	; (100026f8 <_Z18K2_PRESS_OPERATIONv+0xb4>)
1000267e:	6818      	ldr	r0, [r3, #0]
10002680:	0029      	movs	r1, r5
10002682:	f7ff f803 	bl	1000168c <_Z19displayDateTimePageP13DisplayDeviceP6RTC_tmPh>
10002686:	2300      	movs	r3, #0
10002688:	56e3      	ldrsb	r3, [r4, r3]
1000268a:	e7e1      	b.n	10002650 <_Z18K2_PRESS_OPERATIONv+0xc>
1000268c:	2100      	movs	r1, #0
1000268e:	4a1b      	ldr	r2, [pc, #108]	; (100026fc <_Z18K2_PRESS_OPERATIONv+0xb8>)
10002690:	7011      	strb	r1, [r2, #0]
10002692:	4a1b      	ldr	r2, [pc, #108]	; (10002700 <_Z18K2_PRESS_OPERATIONv+0xbc>)
10002694:	3101      	adds	r1, #1
10002696:	7011      	strb	r1, [r2, #0]
10002698:	2b01      	cmp	r3, #1
1000269a:	d015      	beq.n	100026c8 <_Z18K2_PRESS_OPERATIONv+0x84>
1000269c:	4f19      	ldr	r7, [pc, #100]	; (10002704 <_Z18K2_PRESS_OPERATIONv+0xc0>)
1000269e:	7838      	ldrb	r0, [r7, #0]
100026a0:	f7fe f8b8 	bl	10000814 <_Z15ds3231_set_mdayh>
100026a4:	4e18      	ldr	r6, [pc, #96]	; (10002708 <_Z18K2_PRESS_OPERATIONv+0xc4>)
100026a6:	7830      	ldrb	r0, [r6, #0]
100026a8:	f7fe f8d0 	bl	1000084c <_Z14ds3231_set_monh>
100026ac:	4d17      	ldr	r5, [pc, #92]	; (1000270c <_Z18K2_PRESS_OPERATIONv+0xc8>)
100026ae:	8828      	ldrh	r0, [r5, #0]
100026b0:	f7fe f8e8 	bl	10000884 <_Z15ds3231_set_yeart>
100026b4:	783a      	ldrb	r2, [r7, #0]
100026b6:	7831      	ldrb	r1, [r6, #0]
100026b8:	8828      	ldrh	r0, [r5, #0]
100026ba:	f7ff fba9 	bl	10001e10 <_Z11get_weekdaythh>
100026be:	f7fe f88d 	bl	100007dc <_Z15ds3231_set_wdayh>
100026c2:	2300      	movs	r3, #0
100026c4:	56e3      	ldrsb	r3, [r4, r3]
100026c6:	e7c5      	b.n	10002654 <_Z18K2_PRESS_OPERATIONv+0x10>
100026c8:	4b11      	ldr	r3, [pc, #68]	; (10002710 <_Z18K2_PRESS_OPERATIONv+0xcc>)
100026ca:	7818      	ldrb	r0, [r3, #0]
100026cc:	f7fe f832 	bl	10000734 <_Z14ds3231_set_sech>
100026d0:	4b10      	ldr	r3, [pc, #64]	; (10002714 <_Z18K2_PRESS_OPERATIONv+0xd0>)
100026d2:	7818      	ldrb	r0, [r3, #0]
100026d4:	f7fe f84a 	bl	1000076c <_Z14ds3231_set_minh>
100026d8:	4b0f      	ldr	r3, [pc, #60]	; (10002718 <_Z18K2_PRESS_OPERATIONv+0xd4>)
100026da:	7818      	ldrb	r0, [r3, #0]
100026dc:	f7fe f862 	bl	100007a4 <_Z15ds3231_set_hourh>
100026e0:	782b      	ldrb	r3, [r5, #0]
100026e2:	2b02      	cmp	r3, #2
100026e4:	d1ed      	bne.n	100026c2 <_Z18K2_PRESS_OPERATIONv+0x7e>
100026e6:	e7d9      	b.n	1000269c <_Z18K2_PRESS_OPERATIONv+0x58>
100026e8:	200016b0 	.word	0x200016b0
100026ec:	20000530 	.word	0x20000530
100026f0:	20000528 	.word	0x20000528
100026f4:	20000e00 	.word	0x20000e00
100026f8:	200016b7 	.word	0x200016b7
100026fc:	200016b1 	.word	0x200016b1
10002700:	20000525 	.word	0x20000525
10002704:	200016b3 	.word	0x200016b3
10002708:	200016b5 	.word	0x200016b5
1000270c:	2000169e 	.word	0x2000169e
10002710:	200016b6 	.word	0x200016b6
10002714:	200016b4 	.word	0x200016b4
10002718:	200016b2 	.word	0x200016b2

1000271c <main>:
1000271c:	b5f0      	push	{r4, r5, r6, r7, lr}
1000271e:	46de      	mov	lr, fp
10002720:	4657      	mov	r7, sl
10002722:	464e      	mov	r6, r9
10002724:	4645      	mov	r5, r8
10002726:	b5e0      	push	{r5, r6, r7, lr}
10002728:	b085      	sub	sp, #20
1000272a:	f000 ff1b 	bl	10003564 <alarm_pool_get_default>
1000272e:	2400      	movs	r4, #0
10002730:	22fa      	movs	r2, #250	; 0xfa
10002732:	4b96      	ldr	r3, [pc, #600]	; (1000298c <main+0x270>)
10002734:	0092      	lsls	r2, r2, #2
10002736:	9302      	str	r3, [sp, #8]
10002738:	4b95      	ldr	r3, [pc, #596]	; (10002990 <main+0x274>)
1000273a:	9401      	str	r4, [sp, #4]
1000273c:	9300      	str	r3, [sp, #0]
1000273e:	2300      	movs	r3, #0
10002740:	f000 ffea 	bl	10003718 <alarm_pool_add_repeating_timer_us>
10002744:	f000 ff0e 	bl	10003564 <alarm_pool_get_default>
10002748:	4b92      	ldr	r3, [pc, #584]	; (10002994 <main+0x278>)
1000274a:	4a93      	ldr	r2, [pc, #588]	; (10002998 <main+0x27c>)
1000274c:	9302      	str	r3, [sp, #8]
1000274e:	4b93      	ldr	r3, [pc, #588]	; (1000299c <main+0x280>)
10002750:	9401      	str	r4, [sp, #4]
10002752:	9300      	str	r3, [sp, #0]
10002754:	2300      	movs	r3, #0
10002756:	f000 ffdf 	bl	10003718 <alarm_pool_add_repeating_timer_us>
1000275a:	f000 ff03 	bl	10003564 <alarm_pool_get_default>
1000275e:	4b90      	ldr	r3, [pc, #576]	; (100029a0 <main+0x284>)
10002760:	220f      	movs	r2, #15
10002762:	9302      	str	r3, [sp, #8]
10002764:	4b8f      	ldr	r3, [pc, #572]	; (100029a4 <main+0x288>)
10002766:	9401      	str	r4, [sp, #4]
10002768:	9300      	str	r3, [sp, #0]
1000276a:	2300      	movs	r3, #0
1000276c:	f000 ffd4 	bl	10003718 <alarm_pool_add_repeating_timer_us>
10002770:	f7fe fb16 	bl	10000da0 <_Z16GetDisplayDevicev>
10002774:	4b8c      	ldr	r3, [pc, #560]	; (100029a8 <main+0x28c>)
10002776:	469a      	mov	sl, r3
10002778:	6018      	str	r0, [r3, #0]
1000277a:	f7fd fe4f 	bl	1000041c <_Z21AddInputDeviceGpioKeyv>
1000277e:	f7fd fe37 	bl	100003f0 <_Z16InitInputDevicesv>
10002782:	f7fd fefd 	bl	10000580 <_Z10buzzerInitv>
10002786:	4653      	mov	r3, sl
10002788:	681b      	ldr	r3, [r3, #0]
1000278a:	695b      	ldr	r3, [r3, #20]
1000278c:	4798      	blx	r3
1000278e:	f7fd ff03 	bl	10000598 <_Z10InitDs3231v>
10002792:	f7fe f895 	bl	100008c0 <_Z8adc_Initv>
10002796:	4b85      	ldr	r3, [pc, #532]	; (100029ac <main+0x290>)
10002798:	4d85      	ldr	r5, [pc, #532]	; (100029b0 <main+0x294>)
1000279a:	4698      	mov	r8, r3
1000279c:	4b85      	ldr	r3, [pc, #532]	; (100029b4 <main+0x298>)
1000279e:	4c86      	ldr	r4, [pc, #536]	; (100029b8 <main+0x29c>)
100027a0:	4699      	mov	r9, r3
100027a2:	23d0      	movs	r3, #208	; 0xd0
100027a4:	061b      	lsls	r3, r3, #24
100027a6:	4e85      	ldr	r6, [pc, #532]	; (100029bc <main+0x2a0>)
100027a8:	4f85      	ldr	r7, [pc, #532]	; (100029c0 <main+0x2a4>)
100027aa:	469b      	mov	fp, r3
100027ac:	e005      	b.n	100027ba <main+0x9e>
100027ae:	7833      	ldrb	r3, [r6, #0]
100027b0:	2b01      	cmp	r3, #1
100027b2:	d027      	beq.n	10002804 <main+0xe8>
100027b4:	2001      	movs	r0, #1
100027b6:	f001 f9bd 	bl	10003b34 <sleep_ms>
100027ba:	782b      	ldrb	r3, [r5, #0]
100027bc:	2b01      	cmp	r3, #1
100027be:	d02f      	beq.n	10002820 <main+0x104>
100027c0:	f7fd fe42 	bl	10000448 <_Z17HAL_whichKeyPressv>
100027c4:	0020      	movs	r0, r4
100027c6:	f7fd fde9 	bl	1000039c <_Z13GetInputEventP10InputEnent>
100027ca:	2800      	cmp	r0, #0
100027cc:	d1ef      	bne.n	100027ae <main+0x92>
100027ce:	7823      	ldrb	r3, [r4, #0]
100027d0:	2b00      	cmp	r3, #0
100027d2:	d107      	bne.n	100027e4 <main+0xc8>
100027d4:	6862      	ldr	r2, [r4, #4]
100027d6:	2a00      	cmp	r2, #0
100027d8:	d04a      	beq.n	10002870 <main+0x154>
100027da:	2a01      	cmp	r2, #1
100027dc:	d100      	bne.n	100027e0 <main+0xc4>
100027de:	e08c      	b.n	100028fa <main+0x1de>
100027e0:	2a02      	cmp	r2, #2
100027e2:	d06b      	beq.n	100028bc <main+0x1a0>
100027e4:	4643      	mov	r3, r8
100027e6:	781b      	ldrb	r3, [r3, #0]
100027e8:	b25b      	sxtb	r3, r3
100027ea:	2b01      	cmp	r3, #1
100027ec:	d039      	beq.n	10002862 <main+0x146>
100027ee:	2b02      	cmp	r3, #2
100027f0:	d025      	beq.n	1000283e <main+0x122>
100027f2:	464b      	mov	r3, r9
100027f4:	781b      	ldrb	r3, [r3, #0]
100027f6:	2b01      	cmp	r3, #1
100027f8:	d1d9      	bne.n	100027ae <main+0x92>
100027fa:	2180      	movs	r1, #128	; 0x80
100027fc:	465a      	mov	r2, fp
100027fe:	0509      	lsls	r1, r1, #20
10002800:	6151      	str	r1, [r2, #20]
10002802:	7033      	strb	r3, [r6, #0]
10002804:	883b      	ldrh	r3, [r7, #0]
10002806:	3301      	adds	r3, #1
10002808:	b29b      	uxth	r3, r3
1000280a:	803b      	strh	r3, [r7, #0]
1000280c:	2b64      	cmp	r3, #100	; 0x64
1000280e:	d1d1      	bne.n	100027b4 <main+0x98>
10002810:	2280      	movs	r2, #128	; 0x80
10002812:	465b      	mov	r3, fp
10002814:	0512      	lsls	r2, r2, #20
10002816:	619a      	str	r2, [r3, #24]
10002818:	2300      	movs	r3, #0
1000281a:	7033      	strb	r3, [r6, #0]
1000281c:	803b      	strh	r3, [r7, #0]
1000281e:	e7c9      	b.n	100027b4 <main+0x98>
10002820:	4868      	ldr	r0, [pc, #416]	; (100029c4 <main+0x2a8>)
10002822:	f7fd ff5b 	bl	100006dc <_Z23ds3231_get_temp_integerPh>
10002826:	4868      	ldr	r0, [pc, #416]	; (100029c8 <main+0x2ac>)
10002828:	f7fd feec 	bl	10000604 <_Z15ds3231_get_timeP6RTC_tm>
1000282c:	4653      	mov	r3, sl
1000282e:	4a65      	ldr	r2, [pc, #404]	; (100029c4 <main+0x2a8>)
10002830:	6818      	ldr	r0, [r3, #0]
10002832:	4965      	ldr	r1, [pc, #404]	; (100029c8 <main+0x2ac>)
10002834:	f7fe ff2a 	bl	1000168c <_Z19displayDateTimePageP13DisplayDeviceP6RTC_tmPh>
10002838:	2300      	movs	r3, #0
1000283a:	702b      	strb	r3, [r5, #0]
1000283c:	e7c0      	b.n	100027c0 <main+0xa4>
1000283e:	4b63      	ldr	r3, [pc, #396]	; (100029cc <main+0x2b0>)
10002840:	7819      	ldrb	r1, [r3, #0]
10002842:	2901      	cmp	r1, #1
10002844:	d026      	beq.n	10002894 <main+0x178>
10002846:	2902      	cmp	r1, #2
10002848:	d043      	beq.n	100028d2 <main+0x1b6>
1000284a:	1ecb      	subs	r3, r1, #3
1000284c:	2b01      	cmp	r3, #1
1000284e:	d96b      	bls.n	10002928 <main+0x20c>
10002850:	2905      	cmp	r1, #5
10002852:	d1ce      	bne.n	100027f2 <main+0xd6>
10002854:	4b5e      	ldr	r3, [pc, #376]	; (100029d0 <main+0x2b4>)
10002856:	7819      	ldrb	r1, [r3, #0]
10002858:	4653      	mov	r3, sl
1000285a:	6818      	ldr	r0, [r3, #0]
1000285c:	f7fe fdc0 	bl	100013e0 <_Z22displaySetLanguagePageP13DisplayDeviceh>
10002860:	e7c7      	b.n	100027f2 <main+0xd6>
10002862:	4b5a      	ldr	r3, [pc, #360]	; (100029cc <main+0x2b0>)
10002864:	7819      	ldrb	r1, [r3, #0]
10002866:	4653      	mov	r3, sl
10002868:	6818      	ldr	r0, [r3, #0]
1000286a:	f7fe fa9d 	bl	10000da8 <_Z18displaySettingPageP13DisplayDeviceh>
1000286e:	e7c0      	b.n	100027f2 <main+0xd6>
10002870:	4643      	mov	r3, r8
10002872:	2100      	movs	r1, #0
10002874:	5659      	ldrsb	r1, [r3, r1]
10002876:	1c4b      	adds	r3, r1, #1
10002878:	b25b      	sxtb	r3, r3
1000287a:	2902      	cmp	r1, #2
1000287c:	d043      	beq.n	10002906 <main+0x1ea>
1000287e:	4642      	mov	r2, r8
10002880:	7013      	strb	r3, [r2, #0]
10002882:	2b02      	cmp	r3, #2
10002884:	ddb1      	ble.n	100027ea <main+0xce>
10002886:	4b51      	ldr	r3, [pc, #324]	; (100029cc <main+0x2b0>)
10002888:	7819      	ldrb	r1, [r3, #0]
1000288a:	2302      	movs	r3, #2
1000288c:	4642      	mov	r2, r8
1000288e:	7013      	strb	r3, [r2, #0]
10002890:	2901      	cmp	r1, #1
10002892:	d1d8      	bne.n	10002846 <main+0x12a>
10002894:	4b4f      	ldr	r3, [pc, #316]	; (100029d4 <main+0x2b8>)
10002896:	781b      	ldrb	r3, [r3, #0]
10002898:	b25b      	sxtb	r3, r3
1000289a:	2b01      	cmp	r3, #1
1000289c:	d04d      	beq.n	1000293a <main+0x21e>
1000289e:	4b4e      	ldr	r3, [pc, #312]	; (100029d8 <main+0x2bc>)
100028a0:	7819      	ldrb	r1, [r3, #0]
100028a2:	4b4e      	ldr	r3, [pc, #312]	; (100029dc <main+0x2c0>)
100028a4:	781a      	ldrb	r2, [r3, #0]
100028a6:	4b4e      	ldr	r3, [pc, #312]	; (100029e0 <main+0x2c4>)
100028a8:	781b      	ldrb	r3, [r3, #0]
100028aa:	484e      	ldr	r0, [pc, #312]	; (100029e4 <main+0x2c8>)
100028ac:	7800      	ldrb	r0, [r0, #0]
100028ae:	b240      	sxtb	r0, r0
100028b0:	9000      	str	r0, [sp, #0]
100028b2:	4650      	mov	r0, sl
100028b4:	6800      	ldr	r0, [r0, #0]
100028b6:	f7fe fbb5 	bl	10001024 <_Z18displaySetTimePageP13DisplayDevicehhha>
100028ba:	e79a      	b.n	100027f2 <main+0xd6>
100028bc:	2396      	movs	r3, #150	; 0x96
100028be:	68a2      	ldr	r2, [r4, #8]
100028c0:	005b      	lsls	r3, r3, #1
100028c2:	429a      	cmp	r2, r3
100028c4:	dd2d      	ble.n	10002922 <main+0x206>
100028c6:	f7ff febd 	bl	10002644 <_Z18K2_PRESS_OPERATIONv>
100028ca:	4643      	mov	r3, r8
100028cc:	781b      	ldrb	r3, [r3, #0]
100028ce:	b25b      	sxtb	r3, r3
100028d0:	e78b      	b.n	100027ea <main+0xce>
100028d2:	4b40      	ldr	r3, [pc, #256]	; (100029d4 <main+0x2b8>)
100028d4:	781b      	ldrb	r3, [r3, #0]
100028d6:	b25b      	sxtb	r3, r3
100028d8:	2b01      	cmp	r3, #1
100028da:	d041      	beq.n	10002960 <main+0x244>
100028dc:	4b42      	ldr	r3, [pc, #264]	; (100029e8 <main+0x2cc>)
100028de:	8819      	ldrh	r1, [r3, #0]
100028e0:	4b42      	ldr	r3, [pc, #264]	; (100029ec <main+0x2d0>)
100028e2:	781a      	ldrb	r2, [r3, #0]
100028e4:	4b42      	ldr	r3, [pc, #264]	; (100029f0 <main+0x2d4>)
100028e6:	781b      	ldrb	r3, [r3, #0]
100028e8:	483e      	ldr	r0, [pc, #248]	; (100029e4 <main+0x2c8>)
100028ea:	7800      	ldrb	r0, [r0, #0]
100028ec:	b240      	sxtb	r0, r0
100028ee:	9000      	str	r0, [sp, #0]
100028f0:	4650      	mov	r0, sl
100028f2:	6800      	ldr	r0, [r0, #0]
100028f4:	f7fe fc3a 	bl	1000116c <_Z18displaySetDatePageP13DisplayDevicethha>
100028f8:	e77b      	b.n	100027f2 <main+0xd6>
100028fa:	f7ff fd33 	bl	10002364 <_Z17K1_DOWN_OPERATIONv>
100028fe:	4643      	mov	r3, r8
10002900:	781b      	ldrb	r3, [r3, #0]
10002902:	b25b      	sxtb	r3, r3
10002904:	e771      	b.n	100027ea <main+0xce>
10002906:	4b31      	ldr	r3, [pc, #196]	; (100029cc <main+0x2b0>)
10002908:	7819      	ldrb	r1, [r3, #0]
1000290a:	1e4b      	subs	r3, r1, #1
1000290c:	2b01      	cmp	r3, #1
1000290e:	d8bc      	bhi.n	1000288a <main+0x16e>
10002910:	4b34      	ldr	r3, [pc, #208]	; (100029e4 <main+0x2c8>)
10002912:	781b      	ldrb	r3, [r3, #0]
10002914:	3301      	adds	r3, #1
10002916:	b25b      	sxtb	r3, r3
10002918:	2b02      	cmp	r3, #2
1000291a:	dc34      	bgt.n	10002986 <main+0x26a>
1000291c:	4a31      	ldr	r2, [pc, #196]	; (100029e4 <main+0x2c8>)
1000291e:	7013      	strb	r3, [r2, #0]
10002920:	e7b3      	b.n	1000288a <main+0x16e>
10002922:	f7ff fdd9 	bl	100024d8 <_Z15K2_UP_OPERATIONv>
10002926:	e75d      	b.n	100027e4 <main+0xc8>
10002928:	464b      	mov	r3, r9
1000292a:	4650      	mov	r0, sl
1000292c:	4a31      	ldr	r2, [pc, #196]	; (100029f4 <main+0x2d8>)
1000292e:	781b      	ldrb	r3, [r3, #0]
10002930:	7812      	ldrb	r2, [r2, #0]
10002932:	6800      	ldr	r0, [r0, #0]
10002934:	f7fe fcec 	bl	10001310 <_Z29displayAutoLightBeepOnOffPageP13DisplayDevicehhh>
10002938:	e75b      	b.n	100027f2 <main+0xd6>
1000293a:	2200      	movs	r2, #0
1000293c:	4b25      	ldr	r3, [pc, #148]	; (100029d4 <main+0x2b8>)
1000293e:	4822      	ldr	r0, [pc, #136]	; (100029c8 <main+0x2ac>)
10002940:	701a      	strb	r2, [r3, #0]
10002942:	f7fd fe5f 	bl	10000604 <_Z15ds3231_get_timeP6RTC_tm>
10002946:	4b20      	ldr	r3, [pc, #128]	; (100029c8 <main+0x2ac>)
10002948:	4825      	ldr	r0, [pc, #148]	; (100029e0 <main+0x2c4>)
1000294a:	7899      	ldrb	r1, [r3, #2]
1000294c:	4b22      	ldr	r3, [pc, #136]	; (100029d8 <main+0x2bc>)
1000294e:	7019      	strb	r1, [r3, #0]
10002950:	4b1d      	ldr	r3, [pc, #116]	; (100029c8 <main+0x2ac>)
10002952:	785a      	ldrb	r2, [r3, #1]
10002954:	4b21      	ldr	r3, [pc, #132]	; (100029dc <main+0x2c0>)
10002956:	701a      	strb	r2, [r3, #0]
10002958:	4b1b      	ldr	r3, [pc, #108]	; (100029c8 <main+0x2ac>)
1000295a:	781b      	ldrb	r3, [r3, #0]
1000295c:	7003      	strb	r3, [r0, #0]
1000295e:	e7a4      	b.n	100028aa <main+0x18e>
10002960:	2200      	movs	r2, #0
10002962:	4b1c      	ldr	r3, [pc, #112]	; (100029d4 <main+0x2b8>)
10002964:	4818      	ldr	r0, [pc, #96]	; (100029c8 <main+0x2ac>)
10002966:	701a      	strb	r2, [r3, #0]
10002968:	f7fd fe4c 	bl	10000604 <_Z15ds3231_get_timeP6RTC_tm>
1000296c:	4b16      	ldr	r3, [pc, #88]	; (100029c8 <main+0x2ac>)
1000296e:	4820      	ldr	r0, [pc, #128]	; (100029f0 <main+0x2d4>)
10002970:	88d9      	ldrh	r1, [r3, #6]
10002972:	4b1d      	ldr	r3, [pc, #116]	; (100029e8 <main+0x2cc>)
10002974:	8019      	strh	r1, [r3, #0]
10002976:	4b14      	ldr	r3, [pc, #80]	; (100029c8 <main+0x2ac>)
10002978:	795a      	ldrb	r2, [r3, #5]
1000297a:	4b1c      	ldr	r3, [pc, #112]	; (100029ec <main+0x2d0>)
1000297c:	701a      	strb	r2, [r3, #0]
1000297e:	4b12      	ldr	r3, [pc, #72]	; (100029c8 <main+0x2ac>)
10002980:	791b      	ldrb	r3, [r3, #4]
10002982:	7003      	strb	r3, [r0, #0]
10002984:	e7b0      	b.n	100028e8 <main+0x1cc>
10002986:	4b17      	ldr	r3, [pc, #92]	; (100029e4 <main+0x2c8>)
10002988:	701a      	strb	r2, [r3, #0]
1000298a:	e77e      	b.n	1000288a <main+0x16e>
1000298c:	20000798 	.word	0x20000798
10002990:	1000223d 	.word	0x1000223d
10002994:	20000780 	.word	0x20000780
10002998:	000f4240 	.word	0x000f4240
1000299c:	100022d1 	.word	0x100022d1
100029a0:	20000768 	.word	0x20000768
100029a4:	10002251 	.word	0x10002251
100029a8:	20000e00 	.word	0x20000e00
100029ac:	200016b0 	.word	0x200016b0
100029b0:	20000531 	.word	0x20000531
100029b4:	200016a1 	.word	0x200016a1
100029b8:	20001210 	.word	0x20001210
100029bc:	200016a0 	.word	0x200016a0
100029c0:	20001692 	.word	0x20001692
100029c4:	200016b7 	.word	0x200016b7
100029c8:	20000528 	.word	0x20000528
100029cc:	20000530 	.word	0x20000530
100029d0:	200016a2 	.word	0x200016a2
100029d4:	20000525 	.word	0x20000525
100029d8:	200016b2 	.word	0x200016b2
100029dc:	200016b4 	.word	0x200016b4
100029e0:	200016b6 	.word	0x200016b6
100029e4:	200016b1 	.word	0x200016b1
100029e8:	2000169e 	.word	0x2000169e
100029ec:	200016b5 	.word	0x200016b5
100029f0:	200016b3 	.word	0x200016b3
100029f4:	20000524 	.word	0x20000524

100029f8 <_GLOBAL__sub_I_gt_RTC_tm>:
100029f8:	4b05      	ldr	r3, [pc, #20]	; (10002a10 <_GLOBAL__sub_I_gt_RTC_tm+0x18>)
100029fa:	4806      	ldr	r0, [pc, #24]	; (10002a14 <_GLOBAL__sub_I_gt_RTC_tm+0x1c>)
100029fc:	881b      	ldrh	r3, [r3, #0]
100029fe:	b510      	push	{r4, lr}
10002a00:	1ac0      	subs	r0, r0, r3
10002a02:	4b05      	ldr	r3, [pc, #20]	; (10002a18 <_GLOBAL__sub_I_gt_RTC_tm+0x20>)
10002a04:	8819      	ldrh	r1, [r3, #0]
10002a06:	f002 f961 	bl	10004ccc <__wrap___aeabi_idiv>
10002a0a:	4b04      	ldr	r3, [pc, #16]	; (10002a1c <_GLOBAL__sub_I_gt_RTC_tm+0x24>)
10002a0c:	8018      	strh	r0, [r3, #0]
10002a0e:	bd10      	pop	{r4, pc}
10002a10:	20000520 	.word	0x20000520
10002a14:	00001004 	.word	0x00001004
10002a18:	20000522 	.word	0x20000522
10002a1c:	20001696 	.word	0x20001696

10002a20 <gpio_set_function>:
10002a20:	4a09      	ldr	r2, [pc, #36]	; (10002a48 <gpio_set_function+0x28>)
10002a22:	0083      	lsls	r3, r0, #2
10002a24:	4694      	mov	ip, r2
10002a26:	2240      	movs	r2, #64	; 0x40
10002a28:	4463      	add	r3, ip
10002a2a:	b510      	push	{r4, lr}
10002a2c:	681c      	ldr	r4, [r3, #0]
10002a2e:	00c0      	lsls	r0, r0, #3
10002a30:	4062      	eors	r2, r4
10002a32:	24c0      	movs	r4, #192	; 0xc0
10002a34:	4014      	ands	r4, r2
10002a36:	2280      	movs	r2, #128	; 0x80
10002a38:	0152      	lsls	r2, r2, #5
10002a3a:	4313      	orrs	r3, r2
10002a3c:	601c      	str	r4, [r3, #0]
10002a3e:	4b03      	ldr	r3, [pc, #12]	; (10002a4c <gpio_set_function+0x2c>)
10002a40:	469c      	mov	ip, r3
10002a42:	4460      	add	r0, ip
10002a44:	6041      	str	r1, [r0, #4]
10002a46:	bd10      	pop	{r4, pc}
10002a48:	4001c004 	.word	0x4001c004
10002a4c:	40014000 	.word	0x40014000

10002a50 <gpio_set_pulls>:
10002a50:	4b0b      	ldr	r3, [pc, #44]	; (10002a80 <gpio_set_pulls+0x30>)
10002a52:	0080      	lsls	r0, r0, #2
10002a54:	469c      	mov	ip, r3
10002a56:	4460      	add	r0, ip
10002a58:	2900      	cmp	r1, #0
10002a5a:	d00d      	beq.n	10002a78 <gpio_set_pulls+0x28>
10002a5c:	210c      	movs	r1, #12
10002a5e:	2308      	movs	r3, #8
10002a60:	2a00      	cmp	r2, #0
10002a62:	d000      	beq.n	10002a66 <gpio_set_pulls+0x16>
10002a64:	000b      	movs	r3, r1
10002a66:	6802      	ldr	r2, [r0, #0]
10002a68:	4053      	eors	r3, r2
10002a6a:	220c      	movs	r2, #12
10002a6c:	401a      	ands	r2, r3
10002a6e:	2380      	movs	r3, #128	; 0x80
10002a70:	015b      	lsls	r3, r3, #5
10002a72:	4318      	orrs	r0, r3
10002a74:	6002      	str	r2, [r0, #0]
10002a76:	4770      	bx	lr
10002a78:	2104      	movs	r1, #4
10002a7a:	2300      	movs	r3, #0
10002a7c:	e7f0      	b.n	10002a60 <gpio_set_pulls+0x10>
10002a7e:	46c0      	nop			; (mov r8, r8)
10002a80:	4001c004 	.word	0x4001c004

10002a84 <gpio_set_input_enabled>:
10002a84:	4b08      	ldr	r3, [pc, #32]	; (10002aa8 <gpio_set_input_enabled+0x24>)
10002a86:	0080      	lsls	r0, r0, #2
10002a88:	469c      	mov	ip, r3
10002a8a:	4460      	add	r0, ip
10002a8c:	2900      	cmp	r1, #0
10002a8e:	d105      	bne.n	10002a9c <gpio_set_input_enabled+0x18>
10002a90:	23c0      	movs	r3, #192	; 0xc0
10002a92:	019b      	lsls	r3, r3, #6
10002a94:	4318      	orrs	r0, r3
10002a96:	2340      	movs	r3, #64	; 0x40
10002a98:	6003      	str	r3, [r0, #0]
10002a9a:	4770      	bx	lr
10002a9c:	2380      	movs	r3, #128	; 0x80
10002a9e:	019b      	lsls	r3, r3, #6
10002aa0:	4318      	orrs	r0, r3
10002aa2:	2340      	movs	r3, #64	; 0x40
10002aa4:	6003      	str	r3, [r0, #0]
10002aa6:	e7f8      	b.n	10002a9a <gpio_set_input_enabled+0x16>
10002aa8:	4001c004 	.word	0x4001c004

10002aac <gpio_init>:
10002aac:	2301      	movs	r3, #1
10002aae:	22d0      	movs	r2, #208	; 0xd0
10002ab0:	4083      	lsls	r3, r0
10002ab2:	0612      	lsls	r2, r2, #24
10002ab4:	6293      	str	r3, [r2, #40]	; 0x28
10002ab6:	6193      	str	r3, [r2, #24]
10002ab8:	4a09      	ldr	r2, [pc, #36]	; (10002ae0 <gpio_init+0x34>)
10002aba:	0083      	lsls	r3, r0, #2
10002abc:	4694      	mov	ip, r2
10002abe:	2240      	movs	r2, #64	; 0x40
10002ac0:	4463      	add	r3, ip
10002ac2:	6819      	ldr	r1, [r3, #0]
10002ac4:	00c0      	lsls	r0, r0, #3
10002ac6:	404a      	eors	r2, r1
10002ac8:	21c0      	movs	r1, #192	; 0xc0
10002aca:	4011      	ands	r1, r2
10002acc:	2280      	movs	r2, #128	; 0x80
10002ace:	0152      	lsls	r2, r2, #5
10002ad0:	4313      	orrs	r3, r2
10002ad2:	6019      	str	r1, [r3, #0]
10002ad4:	4b03      	ldr	r3, [pc, #12]	; (10002ae4 <gpio_init+0x38>)
10002ad6:	469c      	mov	ip, r3
10002ad8:	2305      	movs	r3, #5
10002ada:	4460      	add	r0, ip
10002adc:	6043      	str	r3, [r0, #4]
10002ade:	4770      	bx	lr
10002ae0:	4001c004 	.word	0x4001c004
10002ae4:	40014000 	.word	0x40014000

10002ae8 <hw_claim_or_assert>:
10002ae8:	b5f8      	push	{r3, r4, r5, r6, r7, lr}
10002aea:	f3ef 8710 	mrs	r7, PRIMASK
10002aee:	b672      	cpsid	i
10002af0:	4e0d      	ldr	r6, [pc, #52]	; (10002b28 <hw_claim_or_assert+0x40>)
10002af2:	6833      	ldr	r3, [r6, #0]
10002af4:	2b00      	cmp	r3, #0
10002af6:	d0fc      	beq.n	10002af2 <hw_claim_or_assert+0xa>
10002af8:	f3bf 8f5f 	dmb	sy
10002afc:	2507      	movs	r5, #7
10002afe:	08cb      	lsrs	r3, r1, #3
10002b00:	18c0      	adds	r0, r0, r3
10002b02:	2301      	movs	r3, #1
10002b04:	400d      	ands	r5, r1
10002b06:	40ab      	lsls	r3, r5
10002b08:	001d      	movs	r5, r3
10002b0a:	7804      	ldrb	r4, [r0, #0]
10002b0c:	4025      	ands	r5, r4
10002b0e:	d107      	bne.n	10002b20 <hw_claim_or_assert+0x38>
10002b10:	4323      	orrs	r3, r4
10002b12:	7003      	strb	r3, [r0, #0]
10002b14:	f3bf 8f5f 	dmb	sy
10002b18:	6035      	str	r5, [r6, #0]
10002b1a:	f387 8810 	msr	PRIMASK, r7
10002b1e:	bdf8      	pop	{r3, r4, r5, r6, r7, pc}
10002b20:	0010      	movs	r0, r2
10002b22:	f001 fe3b 	bl	1000479c <panic>
10002b26:	46c0      	nop			; (mov r8, r8)
10002b28:	d000012c 	.word	0xd000012c

10002b2c <hw_claim_unused_from_range>:
10002b2c:	b5f8      	push	{r3, r4, r5, r6, r7, lr}
10002b2e:	46ce      	mov	lr, r9
10002b30:	4647      	mov	r7, r8
10002b32:	468c      	mov	ip, r1
10002b34:	b580      	push	{r7, lr}
10002b36:	f3ef 8910 	mrs	r9, PRIMASK
10002b3a:	b672      	cpsid	i
10002b3c:	4d21      	ldr	r5, [pc, #132]	; (10002bc4 <hw_claim_unused_from_range+0x98>)
10002b3e:	682c      	ldr	r4, [r5, #0]
10002b40:	2c00      	cmp	r4, #0
10002b42:	d0fc      	beq.n	10002b3e <hw_claim_unused_from_range+0x12>
10002b44:	f3bf 8f5f 	dmb	sy
10002b48:	429a      	cmp	r2, r3
10002b4a:	d82c      	bhi.n	10002ba6 <hw_claim_unused_from_range+0x7a>
10002b4c:	2107      	movs	r1, #7
10002b4e:	2501      	movs	r5, #1
10002b50:	4011      	ands	r1, r2
10002b52:	408d      	lsls	r5, r1
10002b54:	08d4      	lsrs	r4, r2, #3
10002b56:	1904      	adds	r4, r0, r4
10002b58:	7826      	ldrb	r6, [r4, #0]
10002b5a:	4235      	tst	r5, r6
10002b5c:	d01f      	beq.n	10002b9e <hw_claim_unused_from_range+0x72>
10002b5e:	2107      	movs	r1, #7
10002b60:	4688      	mov	r8, r1
10002b62:	3906      	subs	r1, #6
10002b64:	e009      	b.n	10002b7a <hw_claim_unused_from_range+0x4e>
10002b66:	4645      	mov	r5, r8
10002b68:	000f      	movs	r7, r1
10002b6a:	4015      	ands	r5, r2
10002b6c:	40af      	lsls	r7, r5
10002b6e:	08d4      	lsrs	r4, r2, #3
10002b70:	1904      	adds	r4, r0, r4
10002b72:	7826      	ldrb	r6, [r4, #0]
10002b74:	003d      	movs	r5, r7
10002b76:	4237      	tst	r7, r6
10002b78:	d011      	beq.n	10002b9e <hw_claim_unused_from_range+0x72>
10002b7a:	3201      	adds	r2, #1
10002b7c:	4293      	cmp	r3, r2
10002b7e:	d2f2      	bcs.n	10002b66 <hw_claim_unused_from_range+0x3a>
10002b80:	2001      	movs	r0, #1
10002b82:	4240      	negs	r0, r0
10002b84:	f3bf 8f5f 	dmb	sy
10002b88:	2200      	movs	r2, #0
10002b8a:	4b0e      	ldr	r3, [pc, #56]	; (10002bc4 <hw_claim_unused_from_range+0x98>)
10002b8c:	601a      	str	r2, [r3, #0]
10002b8e:	f389 8810 	msr	PRIMASK, r9
10002b92:	2800      	cmp	r0, #0
10002b94:	db0f      	blt.n	10002bb6 <hw_claim_unused_from_range+0x8a>
10002b96:	bc0c      	pop	{r2, r3}
10002b98:	4690      	mov	r8, r2
10002b9a:	4699      	mov	r9, r3
10002b9c:	bdf8      	pop	{r3, r4, r5, r6, r7, pc}
10002b9e:	4335      	orrs	r5, r6
10002ba0:	7025      	strb	r5, [r4, #0]
10002ba2:	0010      	movs	r0, r2
10002ba4:	e7ee      	b.n	10002b84 <hw_claim_unused_from_range+0x58>
10002ba6:	f3bf 8f5f 	dmb	sy
10002baa:	2300      	movs	r3, #0
10002bac:	602b      	str	r3, [r5, #0]
10002bae:	f389 8810 	msr	PRIMASK, r9
10002bb2:	2001      	movs	r0, #1
10002bb4:	4240      	negs	r0, r0
10002bb6:	4663      	mov	r3, ip
10002bb8:	2b00      	cmp	r3, #0
10002bba:	d0ec      	beq.n	10002b96 <hw_claim_unused_from_range+0x6a>
10002bbc:	9808      	ldr	r0, [sp, #32]
10002bbe:	f001 fded 	bl	1000479c <panic>
10002bc2:	46c0      	nop			; (mov r8, r8)
10002bc4:	d000012c 	.word	0xd000012c

10002bc8 <running_on_fpga>:
10002bc8:	4b02      	ldr	r3, [pc, #8]	; (10002bd4 <running_on_fpga+0xc>)
10002bca:	6818      	ldr	r0, [r3, #0]
10002bcc:	0780      	lsls	r0, r0, #30
10002bce:	0fc0      	lsrs	r0, r0, #31
10002bd0:	4770      	bx	lr
10002bd2:	46c0      	nop			; (mov r8, r8)
10002bd4:	4006c000 	.word	0x4006c000

10002bd8 <spin_locks_reset>:
10002bd8:	2100      	movs	r1, #0
10002bda:	4b04      	ldr	r3, [pc, #16]	; (10002bec <spin_locks_reset+0x14>)
10002bdc:	4a04      	ldr	r2, [pc, #16]	; (10002bf0 <spin_locks_reset+0x18>)
10002bde:	f3bf 8f5f 	dmb	sy
10002be2:	c302      	stmia	r3!, {r1}
10002be4:	4293      	cmp	r3, r2
10002be6:	d1fa      	bne.n	10002bde <spin_locks_reset+0x6>
10002be8:	4770      	bx	lr
10002bea:	46c0      	nop			; (mov r8, r8)
10002bec:	d0000100 	.word	0xd0000100
10002bf0:	d0000180 	.word	0xd0000180

10002bf4 <next_striped_spin_lock_num>:
10002bf4:	4a04      	ldr	r2, [pc, #16]	; (10002c08 <next_striped_spin_lock_num+0x14>)
10002bf6:	7810      	ldrb	r0, [r2, #0]
10002bf8:	1c43      	adds	r3, r0, #1
10002bfa:	b2db      	uxtb	r3, r3
10002bfc:	2b17      	cmp	r3, #23
10002bfe:	d900      	bls.n	10002c02 <next_striped_spin_lock_num+0xe>
10002c00:	2310      	movs	r3, #16
10002c02:	7013      	strb	r3, [r2, #0]
10002c04:	4770      	bx	lr
10002c06:	46c0      	nop			; (mov r8, r8)
10002c08:	20000532 	.word	0x20000532

10002c0c <spin_lock_claim_unused>:
10002c0c:	b500      	push	{lr}
10002c0e:	4b05      	ldr	r3, [pc, #20]	; (10002c24 <spin_lock_claim_unused+0x18>)
10002c10:	b083      	sub	sp, #12
10002c12:	0001      	movs	r1, r0
10002c14:	9300      	str	r3, [sp, #0]
10002c16:	2218      	movs	r2, #24
10002c18:	231f      	movs	r3, #31
10002c1a:	4803      	ldr	r0, [pc, #12]	; (10002c28 <spin_lock_claim_unused+0x1c>)
10002c1c:	f7ff ff86 	bl	10002b2c <hw_claim_unused_from_range>
10002c20:	b003      	add	sp, #12
10002c22:	bd00      	pop	{pc}
10002c24:	10008ab8 	.word	0x10008ab8
10002c28:	20000d6c 	.word	0x20000d6c

10002c2c <irq_set_enabled>:
10002c2c:	2301      	movs	r3, #1
10002c2e:	4083      	lsls	r3, r0
10002c30:	2900      	cmp	r1, #0
10002c32:	d102      	bne.n	10002c3a <irq_set_enabled+0xe>
10002c34:	4a03      	ldr	r2, [pc, #12]	; (10002c44 <irq_set_enabled+0x18>)
10002c36:	6013      	str	r3, [r2, #0]
10002c38:	4770      	bx	lr
10002c3a:	4a03      	ldr	r2, [pc, #12]	; (10002c48 <irq_set_enabled+0x1c>)
10002c3c:	6013      	str	r3, [r2, #0]
10002c3e:	4a03      	ldr	r2, [pc, #12]	; (10002c4c <irq_set_enabled+0x20>)
10002c40:	6013      	str	r3, [r2, #0]
10002c42:	e7f9      	b.n	10002c38 <irq_set_enabled+0xc>
10002c44:	e000e180 	.word	0xe000e180
10002c48:	e000e280 	.word	0xe000e280
10002c4c:	e000e100 	.word	0xe000e100

10002c50 <irq_set_pending>:
10002c50:	2301      	movs	r3, #1
10002c52:	4083      	lsls	r3, r0
10002c54:	4a01      	ldr	r2, [pc, #4]	; (10002c5c <irq_set_pending+0xc>)
10002c56:	6013      	str	r3, [r2, #0]
10002c58:	4770      	bx	lr
10002c5a:	46c0      	nop			; (mov r8, r8)
10002c5c:	e000e200 	.word	0xe000e200

10002c60 <irq_has_shared_handler>:
10002c60:	4b08      	ldr	r3, [pc, #32]	; (10002c84 <irq_has_shared_handler+0x24>)
10002c62:	3010      	adds	r0, #16
10002c64:	689b      	ldr	r3, [r3, #8]
10002c66:	0080      	lsls	r0, r0, #2
10002c68:	58c3      	ldr	r3, [r0, r3]
10002c6a:	2b00      	cmp	r3, #0
10002c6c:	d007      	beq.n	10002c7e <irq_has_shared_handler+0x1e>
10002c6e:	4a06      	ldr	r2, [pc, #24]	; (10002c88 <irq_has_shared_handler+0x28>)
10002c70:	2000      	movs	r0, #0
10002c72:	1a9b      	subs	r3, r3, r2
10002c74:	222f      	movs	r2, #47	; 0x2f
10002c76:	429a      	cmp	r2, r3
10002c78:	4140      	adcs	r0, r0
10002c7a:	b2c0      	uxtb	r0, r0
10002c7c:	4770      	bx	lr
10002c7e:	2000      	movs	r0, #0
10002c80:	e7fc      	b.n	10002c7c <irq_has_shared_handler+0x1c>
10002c82:	46c0      	nop			; (mov r8, r8)
10002c84:	e000ed00 	.word	0xe000ed00
10002c88:	20000534 	.word	0x20000534

10002c8c <irq_get_vtable_handler>:
10002c8c:	4b02      	ldr	r3, [pc, #8]	; (10002c98 <irq_get_vtable_handler+0xc>)
10002c8e:	3010      	adds	r0, #16
10002c90:	689b      	ldr	r3, [r3, #8]
10002c92:	0080      	lsls	r0, r0, #2
10002c94:	58c0      	ldr	r0, [r0, r3]
10002c96:	4770      	bx	lr
10002c98:	e000ed00 	.word	0xe000ed00

10002c9c <irq_set_exclusive_handler>:
10002c9c:	b570      	push	{r4, r5, r6, lr}
10002c9e:	000d      	movs	r5, r1
10002ca0:	f3ef 8610 	mrs	r6, PRIMASK
10002ca4:	b672      	cpsid	i
10002ca6:	4a0f      	ldr	r2, [pc, #60]	; (10002ce4 <irq_set_exclusive_handler+0x48>)
10002ca8:	6813      	ldr	r3, [r2, #0]
10002caa:	2b00      	cmp	r3, #0
10002cac:	d0fc      	beq.n	10002ca8 <irq_set_exclusive_handler+0xc>
10002cae:	f3bf 8f5f 	dmb	sy
10002cb2:	4b0d      	ldr	r3, [pc, #52]	; (10002ce8 <irq_set_exclusive_handler+0x4c>)
10002cb4:	3010      	adds	r0, #16
10002cb6:	689b      	ldr	r3, [r3, #8]
10002cb8:	0084      	lsls	r4, r0, #2
10002cba:	591b      	ldr	r3, [r3, r4]
10002cbc:	4a0b      	ldr	r2, [pc, #44]	; (10002cec <irq_set_exclusive_handler+0x50>)
10002cbe:	4293      	cmp	r3, r2
10002cc0:	d003      	beq.n	10002cca <irq_set_exclusive_handler+0x2e>
10002cc2:	429d      	cmp	r5, r3
10002cc4:	d001      	beq.n	10002cca <irq_set_exclusive_handler+0x2e>
10002cc6:	f001 fd81 	bl	100047cc <hard_assertion_failure>
10002cca:	4b07      	ldr	r3, [pc, #28]	; (10002ce8 <irq_set_exclusive_handler+0x4c>)
10002ccc:	689b      	ldr	r3, [r3, #8]
10002cce:	511d      	str	r5, [r3, r4]
10002cd0:	f3bf 8f5f 	dmb	sy
10002cd4:	f3bf 8f5f 	dmb	sy
10002cd8:	2200      	movs	r2, #0
10002cda:	4b02      	ldr	r3, [pc, #8]	; (10002ce4 <irq_set_exclusive_handler+0x48>)
10002cdc:	601a      	str	r2, [r3, #0]
10002cde:	f386 8810 	msr	PRIMASK, r6
10002ce2:	bd70      	pop	{r4, r5, r6, pc}
10002ce4:	d0000124 	.word	0xd0000124
10002ce8:	e000ed00 	.word	0xe000ed00
10002cec:	100001cd 	.word	0x100001cd

10002cf0 <irq_add_shared_handler>:
10002cf0:	b5f0      	push	{r4, r5, r6, r7, lr}
10002cf2:	4657      	mov	r7, sl
10002cf4:	4645      	mov	r5, r8
10002cf6:	46de      	mov	lr, fp
10002cf8:	464e      	mov	r6, r9
10002cfa:	b5e0      	push	{r5, r6, r7, lr}
10002cfc:	468a      	mov	sl, r1
10002cfe:	b083      	sub	sp, #12
10002d00:	0007      	movs	r7, r0
10002d02:	4690      	mov	r8, r2
10002d04:	f3ef 8910 	mrs	r9, PRIMASK
10002d08:	b672      	cpsid	i
10002d0a:	4a60      	ldr	r2, [pc, #384]	; (10002e8c <irq_add_shared_handler+0x19c>)
10002d0c:	6813      	ldr	r3, [r2, #0]
10002d0e:	2b00      	cmp	r3, #0
10002d10:	d0fc      	beq.n	10002d0c <irq_add_shared_handler+0x1c>
10002d12:	f3bf 8f5f 	dmb	sy
10002d16:	2000      	movs	r0, #0
10002d18:	4b5d      	ldr	r3, [pc, #372]	; (10002e90 <irq_add_shared_handler+0x1a0>)
10002d1a:	5618      	ldrsb	r0, [r3, r0]
10002d1c:	469b      	mov	fp, r3
10002d1e:	2800      	cmp	r0, #0
10002d20:	da00      	bge.n	10002d24 <irq_add_shared_handler+0x34>
10002d22:	e083      	b.n	10002e2c <irq_add_shared_handler+0x13c>
10002d24:	465a      	mov	r2, fp
10002d26:	0044      	lsls	r4, r0, #1
10002d28:	4e5a      	ldr	r6, [pc, #360]	; (10002e94 <irq_add_shared_handler+0x1a4>)
10002d2a:	1824      	adds	r4, r4, r0
10002d2c:	00a4      	lsls	r4, r4, #2
10002d2e:	1935      	adds	r5, r6, r4
10002d30:	79ab      	ldrb	r3, [r5, #6]
10002d32:	3710      	adds	r7, #16
10002d34:	7013      	strb	r3, [r2, #0]
10002d36:	4b58      	ldr	r3, [pc, #352]	; (10002e98 <irq_add_shared_handler+0x1a8>)
10002d38:	00ba      	lsls	r2, r7, #2
10002d3a:	689b      	ldr	r3, [r3, #8]
10002d3c:	4693      	mov	fp, r2
10002d3e:	589a      	ldr	r2, [r3, r2]
10002d40:	1b93      	subs	r3, r2, r6
10002d42:	2b2f      	cmp	r3, #47	; 0x2f
10002d44:	d92e      	bls.n	10002da4 <irq_add_shared_handler+0xb4>
10002d46:	4b55      	ldr	r3, [pc, #340]	; (10002e9c <irq_add_shared_handler+0x1ac>)
10002d48:	429a      	cmp	r2, r3
10002d4a:	d001      	beq.n	10002d50 <irq_add_shared_handler+0x60>
10002d4c:	f001 fd3e 	bl	100047cc <hard_assertion_failure>
10002d50:	4b53      	ldr	r3, [pc, #332]	; (10002ea0 <irq_add_shared_handler+0x1b0>)
10002d52:	3402      	adds	r4, #2
10002d54:	802b      	strh	r3, [r5, #0]
10002d56:	4b53      	ldr	r3, [pc, #332]	; (10002ea4 <irq_add_shared_handler+0x1b4>)
10002d58:	1936      	adds	r6, r6, r4
10002d5a:	3b04      	subs	r3, #4
10002d5c:	1b9e      	subs	r6, r3, r6
10002d5e:	0536      	lsls	r6, r6, #20
10002d60:	4b51      	ldr	r3, [pc, #324]	; (10002ea8 <irq_add_shared_handler+0x1b8>)
10002d62:	0d76      	lsrs	r6, r6, #21
10002d64:	431e      	orrs	r6, r3
10002d66:	4b51      	ldr	r3, [pc, #324]	; (10002eac <irq_add_shared_handler+0x1bc>)
10002d68:	2201      	movs	r2, #1
10002d6a:	80ab      	strh	r3, [r5, #4]
10002d6c:	23ff      	movs	r3, #255	; 0xff
10002d6e:	71ab      	strb	r3, [r5, #6]
10002d70:	4643      	mov	r3, r8
10002d72:	71eb      	strb	r3, [r5, #7]
10002d74:	4653      	mov	r3, sl
10002d76:	806e      	strh	r6, [r5, #2]
10002d78:	60ab      	str	r3, [r5, #8]
10002d7a:	432a      	orrs	r2, r5
10002d7c:	4659      	mov	r1, fp
10002d7e:	4b46      	ldr	r3, [pc, #280]	; (10002e98 <irq_add_shared_handler+0x1a8>)
10002d80:	689b      	ldr	r3, [r3, #8]
10002d82:	505a      	str	r2, [r3, r1]
10002d84:	f3bf 8f5f 	dmb	sy
10002d88:	f3bf 8f5f 	dmb	sy
10002d8c:	2200      	movs	r2, #0
10002d8e:	4b3f      	ldr	r3, [pc, #252]	; (10002e8c <irq_add_shared_handler+0x19c>)
10002d90:	601a      	str	r2, [r3, #0]
10002d92:	f389 8810 	msr	PRIMASK, r9
10002d96:	b003      	add	sp, #12
10002d98:	bc3c      	pop	{r2, r3, r4, r5}
10002d9a:	4690      	mov	r8, r2
10002d9c:	4699      	mov	r9, r3
10002d9e:	46a2      	mov	sl, r4
10002da0:	46ab      	mov	fp, r5
10002da2:	bdf0      	pop	{r4, r5, r6, r7, pc}
10002da4:	2301      	movs	r3, #1
10002da6:	0011      	movs	r1, r2
10002da8:	4399      	bics	r1, r3
10002daa:	79cb      	ldrb	r3, [r1, #7]
10002dac:	468c      	mov	ip, r1
10002dae:	4543      	cmp	r3, r8
10002db0:	d942      	bls.n	10002e38 <irq_add_shared_handler+0x148>
10002db2:	2706      	movs	r7, #6
10002db4:	57cf      	ldrsb	r7, [r1, r7]
10002db6:	2f00      	cmp	r7, #0
10002db8:	da05      	bge.n	10002dc6 <irq_add_shared_handler+0xd6>
10002dba:	e022      	b.n	10002e02 <irq_add_shared_handler+0x112>
10002dbc:	2706      	movs	r7, #6
10002dbe:	57df      	ldrsb	r7, [r3, r7]
10002dc0:	0019      	movs	r1, r3
10002dc2:	2f00      	cmp	r7, #0
10002dc4:	db1d      	blt.n	10002e02 <irq_add_shared_handler+0x112>
10002dc6:	007b      	lsls	r3, r7, #1
10002dc8:	19db      	adds	r3, r3, r7
10002dca:	009b      	lsls	r3, r3, #2
10002dcc:	18f3      	adds	r3, r6, r3
10002dce:	79df      	ldrb	r7, [r3, #7]
10002dd0:	4547      	cmp	r7, r8
10002dd2:	d8f3      	bhi.n	10002dbc <irq_add_shared_handler+0xcc>
10002dd4:	2900      	cmp	r1, #0
10002dd6:	d02f      	beq.n	10002e38 <irq_add_shared_handler+0x148>
10002dd8:	2706      	movs	r7, #6
10002dda:	57cf      	ldrsb	r7, [r1, r7]
10002ddc:	1d0b      	adds	r3, r1, #4
10002dde:	9301      	str	r3, [sp, #4]
10002de0:	2f00      	cmp	r7, #0
10002de2:	db4f      	blt.n	10002e84 <irq_add_shared_handler+0x194>
10002de4:	888b      	ldrh	r3, [r1, #4]
10002de6:	3404      	adds	r4, #4
10002de8:	055b      	lsls	r3, r3, #21
10002dea:	1934      	adds	r4, r6, r4
10002dec:	151b      	asrs	r3, r3, #20
10002dee:	1d0e      	adds	r6, r1, #4
10002df0:	18f6      	adds	r6, r6, r3
10002df2:	1b36      	subs	r6, r6, r4
10002df4:	24e0      	movs	r4, #224	; 0xe0
10002df6:	0536      	lsls	r6, r6, #20
10002df8:	0d76      	lsrs	r6, r6, #21
10002dfa:	0224      	lsls	r4, r4, #8
10002dfc:	4326      	orrs	r6, r4
10002dfe:	9b01      	ldr	r3, [sp, #4]
10002e00:	e003      	b.n	10002e0a <irq_add_shared_handler+0x11a>
10002e02:	26bd      	movs	r6, #189	; 0xbd
10002e04:	1d0b      	adds	r3, r1, #4
10002e06:	9301      	str	r3, [sp, #4]
10002e08:	0236      	lsls	r6, r6, #8
10002e0a:	1f2c      	subs	r4, r5, #4
10002e0c:	1ae3      	subs	r3, r4, r3
10002e0e:	051b      	lsls	r3, r3, #20
10002e10:	4c25      	ldr	r4, [pc, #148]	; (10002ea8 <irq_add_shared_handler+0x1b8>)
10002e12:	0d5b      	lsrs	r3, r3, #21
10002e14:	4323      	orrs	r3, r4
10002e16:	808b      	strh	r3, [r1, #4]
10002e18:	4b25      	ldr	r3, [pc, #148]	; (10002eb0 <irq_add_shared_handler+0x1c0>)
10002e1a:	7188      	strb	r0, [r1, #6]
10002e1c:	602b      	str	r3, [r5, #0]
10002e1e:	4643      	mov	r3, r8
10002e20:	71eb      	strb	r3, [r5, #7]
10002e22:	4653      	mov	r3, sl
10002e24:	80ae      	strh	r6, [r5, #4]
10002e26:	71af      	strb	r7, [r5, #6]
10002e28:	60ab      	str	r3, [r5, #8]
10002e2a:	e7a7      	b.n	10002d7c <irq_add_shared_handler+0x8c>
10002e2c:	f001 fcce 	bl	100047cc <hard_assertion_failure>
10002e30:	465b      	mov	r3, fp
10002e32:	2000      	movs	r0, #0
10002e34:	5618      	ldrsb	r0, [r3, r0]
10002e36:	e775      	b.n	10002d24 <irq_add_shared_handler+0x34>
10002e38:	4a1e      	ldr	r2, [pc, #120]	; (10002eb4 <irq_add_shared_handler+0x1c4>)
10002e3a:	4663      	mov	r3, ip
10002e3c:	1b9b      	subs	r3, r3, r6
10002e3e:	415b      	adcs	r3, r3
10002e40:	435a      	muls	r2, r3
10002e42:	0d12      	lsrs	r2, r2, #20
10002e44:	4b16      	ldr	r3, [pc, #88]	; (10002ea0 <irq_add_shared_handler+0x1b0>)
10002e46:	1ca1      	adds	r1, r4, #2
10002e48:	802b      	strh	r3, [r5, #0]
10002e4a:	4b16      	ldr	r3, [pc, #88]	; (10002ea4 <irq_add_shared_handler+0x1b4>)
10002e4c:	1871      	adds	r1, r6, r1
10002e4e:	3b04      	subs	r3, #4
10002e50:	1a5b      	subs	r3, r3, r1
10002e52:	051b      	lsls	r3, r3, #20
10002e54:	4914      	ldr	r1, [pc, #80]	; (10002ea8 <irq_add_shared_handler+0x1b8>)
10002e56:	0d5b      	lsrs	r3, r3, #21
10002e58:	430b      	orrs	r3, r1
10002e5a:	806b      	strh	r3, [r5, #2]
10002e5c:	4663      	mov	r3, ip
10002e5e:	3404      	adds	r4, #4
10002e60:	3b04      	subs	r3, #4
10002e62:	1936      	adds	r6, r6, r4
10002e64:	1b9e      	subs	r6, r3, r6
10002e66:	4643      	mov	r3, r8
10002e68:	71eb      	strb	r3, [r5, #7]
10002e6a:	4653      	mov	r3, sl
10002e6c:	71aa      	strb	r2, [r5, #6]
10002e6e:	4662      	mov	r2, ip
10002e70:	0536      	lsls	r6, r6, #20
10002e72:	60ab      	str	r3, [r5, #8]
10002e74:	0d76      	lsrs	r6, r6, #21
10002e76:	4b0e      	ldr	r3, [pc, #56]	; (10002eb0 <irq_add_shared_handler+0x1c0>)
10002e78:	4331      	orrs	r1, r6
10002e7a:	80a9      	strh	r1, [r5, #4]
10002e7c:	6013      	str	r3, [r2, #0]
10002e7e:	2201      	movs	r2, #1
10002e80:	432a      	orrs	r2, r5
10002e82:	e77b      	b.n	10002d7c <irq_add_shared_handler+0x8c>
10002e84:	26bd      	movs	r6, #189	; 0xbd
10002e86:	0236      	lsls	r6, r6, #8
10002e88:	e7bf      	b.n	10002e0a <irq_add_shared_handler+0x11a>
10002e8a:	46c0      	nop			; (mov r8, r8)
10002e8c:	d0000124 	.word	0xd0000124
10002e90:	200016ad 	.word	0x200016ad
10002e94:	20000534 	.word	0x20000534
10002e98:	e000ed00 	.word	0xe000ed00
10002e9c:	100001cd 	.word	0x100001cd
10002ea0:	ffffa100 	.word	0xffffa100
10002ea4:	20000564 	.word	0x20000564
10002ea8:	ffffe000 	.word	0xffffe000
10002eac:	ffffbd00 	.word	0xffffbd00
10002eb0:	47804801 	.word	0x47804801
10002eb4:	0000aaaa 	.word	0x0000aaaa

10002eb8 <irq_remove_handler>:
10002eb8:	b5f0      	push	{r4, r5, r6, r7, lr}
10002eba:	4645      	mov	r5, r8
10002ebc:	46de      	mov	lr, fp
10002ebe:	4657      	mov	r7, sl
10002ec0:	464e      	mov	r6, r9
10002ec2:	b5e0      	push	{r5, r6, r7, lr}
10002ec4:	000d      	movs	r5, r1
10002ec6:	b083      	sub	sp, #12
10002ec8:	f3ef 8a10 	mrs	sl, PRIMASK
10002ecc:	b672      	cpsid	i
10002ece:	4a5a      	ldr	r2, [pc, #360]	; (10003038 <irq_remove_handler+0x180>)
10002ed0:	6813      	ldr	r3, [r2, #0]
10002ed2:	2b00      	cmp	r3, #0
10002ed4:	d0fc      	beq.n	10002ed0 <irq_remove_handler+0x18>
10002ed6:	f3bf 8f5f 	dmb	sy
10002eda:	2210      	movs	r2, #16
10002edc:	4691      	mov	r9, r2
10002ede:	4481      	add	r9, r0
10002ee0:	464a      	mov	r2, r9
10002ee2:	4b56      	ldr	r3, [pc, #344]	; (1000303c <irq_remove_handler+0x184>)
10002ee4:	0096      	lsls	r6, r2, #2
10002ee6:	689b      	ldr	r3, [r3, #8]
10002ee8:	599c      	ldr	r4, [r3, r6]
10002eea:	4b55      	ldr	r3, [pc, #340]	; (10003040 <irq_remove_handler+0x188>)
10002eec:	4698      	mov	r8, r3
10002eee:	429c      	cmp	r4, r3
10002ef0:	d005      	beq.n	10002efe <irq_remove_handler+0x46>
10002ef2:	42ac      	cmp	r4, r5
10002ef4:	d048      	beq.n	10002f88 <irq_remove_handler+0xd0>
10002ef6:	4f53      	ldr	r7, [pc, #332]	; (10003044 <irq_remove_handler+0x18c>)
10002ef8:	1be3      	subs	r3, r4, r7
10002efa:	2b2f      	cmp	r3, #47	; 0x2f
10002efc:	d912      	bls.n	10002f24 <irq_remove_handler+0x6c>
10002efe:	4b4f      	ldr	r3, [pc, #316]	; (1000303c <irq_remove_handler+0x184>)
10002f00:	689b      	ldr	r3, [r3, #8]
10002f02:	519c      	str	r4, [r3, r6]
10002f04:	f3bf 8f5f 	dmb	sy
10002f08:	f3bf 8f5f 	dmb	sy
10002f0c:	2200      	movs	r2, #0
10002f0e:	4b4a      	ldr	r3, [pc, #296]	; (10003038 <irq_remove_handler+0x180>)
10002f10:	601a      	str	r2, [r3, #0]
10002f12:	f38a 8810 	msr	PRIMASK, sl
10002f16:	b003      	add	sp, #12
10002f18:	bc3c      	pop	{r2, r3, r4, r5}
10002f1a:	4690      	mov	r8, r2
10002f1c:	4699      	mov	r9, r3
10002f1e:	46a2      	mov	sl, r4
10002f20:	46ab      	mov	fp, r5
10002f22:	bdf0      	pop	{r4, r5, r6, r7, pc}
10002f24:	2301      	movs	r3, #1
10002f26:	4083      	lsls	r3, r0
10002f28:	469b      	mov	fp, r3
10002f2a:	465a      	mov	r2, fp
10002f2c:	4b46      	ldr	r3, [pc, #280]	; (10003048 <irq_remove_handler+0x190>)
10002f2e:	681b      	ldr	r3, [r3, #0]
10002f30:	401a      	ands	r2, r3
10002f32:	9200      	str	r2, [sp, #0]
10002f34:	465a      	mov	r2, fp
10002f36:	4b45      	ldr	r3, [pc, #276]	; (1000304c <irq_remove_handler+0x194>)
10002f38:	601a      	str	r2, [r3, #0]
10002f3a:	f3bf 8f5f 	dmb	sy
10002f3e:	f7fd f992 	bl	10000266 <__get_current_exception>
10002f42:	9001      	str	r0, [sp, #4]
10002f44:	2800      	cmp	r0, #0
10002f46:	d003      	beq.n	10002f50 <irq_remove_handler+0x98>
10002f48:	4581      	cmp	r9, r0
10002f4a:	d001      	beq.n	10002f50 <irq_remove_handler+0x98>
10002f4c:	f001 fc3e 	bl	100047cc <hard_assertion_failure>
10002f50:	2301      	movs	r3, #1
10002f52:	0022      	movs	r2, r4
10002f54:	2106      	movs	r1, #6
10002f56:	439a      	bics	r2, r3
10002f58:	6893      	ldr	r3, [r2, #8]
10002f5a:	5651      	ldrsb	r1, [r2, r1]
10002f5c:	429d      	cmp	r5, r3
10002f5e:	d10a      	bne.n	10002f76 <irq_remove_handler+0xbe>
10002f60:	e055      	b.n	1000300e <irq_remove_handler+0x156>
10002f62:	004b      	lsls	r3, r1, #1
10002f64:	185b      	adds	r3, r3, r1
10002f66:	2106      	movs	r1, #6
10002f68:	009b      	lsls	r3, r3, #2
10002f6a:	18fb      	adds	r3, r7, r3
10002f6c:	6898      	ldr	r0, [r3, #8]
10002f6e:	5659      	ldrsb	r1, [r3, r1]
10002f70:	42a8      	cmp	r0, r5
10002f72:	d011      	beq.n	10002f98 <irq_remove_handler+0xe0>
10002f74:	001a      	movs	r2, r3
10002f76:	2900      	cmp	r1, #0
10002f78:	daf3      	bge.n	10002f62 <irq_remove_handler+0xaa>
10002f7a:	9b00      	ldr	r3, [sp, #0]
10002f7c:	2b00      	cmp	r3, #0
10002f7e:	d105      	bne.n	10002f8c <irq_remove_handler+0xd4>
10002f80:	465a      	mov	r2, fp
10002f82:	4b32      	ldr	r3, [pc, #200]	; (1000304c <irq_remove_handler+0x194>)
10002f84:	601a      	str	r2, [r3, #0]
10002f86:	e7ba      	b.n	10002efe <irq_remove_handler+0x46>
10002f88:	001c      	movs	r4, r3
10002f8a:	e7b8      	b.n	10002efe <irq_remove_handler+0x46>
10002f8c:	465a      	mov	r2, fp
10002f8e:	4b30      	ldr	r3, [pc, #192]	; (10003050 <irq_remove_handler+0x198>)
10002f90:	601a      	str	r2, [r3, #0]
10002f92:	4b2d      	ldr	r3, [pc, #180]	; (10003048 <irq_remove_handler+0x190>)
10002f94:	601a      	str	r2, [r3, #0]
10002f96:	e7b2      	b.n	10002efe <irq_remove_handler+0x46>
10002f98:	2900      	cmp	r1, #0
10002f9a:	db25      	blt.n	10002fe8 <irq_remove_handler+0x130>
10002f9c:	004a      	lsls	r2, r1, #1
10002f9e:	1850      	adds	r0, r2, r1
10002fa0:	0080      	lsls	r0, r0, #2
10002fa2:	183d      	adds	r5, r7, r0
10002fa4:	4680      	mov	r8, r0
10002fa6:	68a8      	ldr	r0, [r5, #8]
10002fa8:	6098      	str	r0, [r3, #8]
10002faa:	79e8      	ldrb	r0, [r5, #7]
10002fac:	71d8      	strb	r0, [r3, #7]
10002fae:	2006      	movs	r0, #6
10002fb0:	5628      	ldrsb	r0, [r5, r0]
10002fb2:	7198      	strb	r0, [r3, #6]
10002fb4:	79a8      	ldrb	r0, [r5, #6]
10002fb6:	287f      	cmp	r0, #127	; 0x7f
10002fb8:	d813      	bhi.n	10002fe2 <irq_remove_handler+0x12a>
10002fba:	88ad      	ldrh	r5, [r5, #4]
10002fbc:	1af8      	subs	r0, r7, r3
10002fbe:	056d      	lsls	r5, r5, #21
10002fc0:	152d      	asrs	r5, r5, #20
10002fc2:	4445      	add	r5, r8
10002fc4:	1940      	adds	r0, r0, r5
10002fc6:	25e0      	movs	r5, #224	; 0xe0
10002fc8:	0500      	lsls	r0, r0, #20
10002fca:	0d40      	lsrs	r0, r0, #21
10002fcc:	022d      	lsls	r5, r5, #8
10002fce:	4328      	orrs	r0, r5
10002fd0:	8098      	strh	r0, [r3, #4]
10002fd2:	1852      	adds	r2, r2, r1
10002fd4:	4b1f      	ldr	r3, [pc, #124]	; (10003054 <irq_remove_handler+0x19c>)
10002fd6:	0092      	lsls	r2, r2, #2
10002fd8:	18bf      	adds	r7, r7, r2
10002fda:	781a      	ldrb	r2, [r3, #0]
10002fdc:	7019      	strb	r1, [r3, #0]
10002fde:	71ba      	strb	r2, [r7, #6]
10002fe0:	e7cb      	b.n	10002f7a <irq_remove_handler+0xc2>
10002fe2:	20bd      	movs	r0, #189	; 0xbd
10002fe4:	0200      	lsls	r0, r0, #8
10002fe6:	e7f3      	b.n	10002fd0 <irq_remove_handler+0x118>
10002fe8:	9901      	ldr	r1, [sp, #4]
10002fea:	2900      	cmp	r1, #0
10002fec:	d117      	bne.n	1000301e <irq_remove_handler+0x166>
10002fee:	2a00      	cmp	r2, #0
10002ff0:	d013      	beq.n	1000301a <irq_remove_handler+0x162>
10002ff2:	31ff      	adds	r1, #255	; 0xff
10002ff4:	7191      	strb	r1, [r2, #6]
10002ff6:	4918      	ldr	r1, [pc, #96]	; (10003058 <irq_remove_handler+0x1a0>)
10002ff8:	8091      	strh	r1, [r2, #4]
10002ffa:	4916      	ldr	r1, [pc, #88]	; (10003054 <irq_remove_handler+0x19c>)
10002ffc:	780a      	ldrb	r2, [r1, #0]
10002ffe:	719a      	strb	r2, [r3, #6]
10003000:	4a16      	ldr	r2, [pc, #88]	; (1000305c <irq_remove_handler+0x1a4>)
10003002:	1bdb      	subs	r3, r3, r7
10003004:	415b      	adcs	r3, r3
10003006:	435a      	muls	r2, r3
10003008:	0d12      	lsrs	r2, r2, #20
1000300a:	700a      	strb	r2, [r1, #0]
1000300c:	e7b5      	b.n	10002f7a <irq_remove_handler+0xc2>
1000300e:	0013      	movs	r3, r2
10003010:	2900      	cmp	r1, #0
10003012:	dac3      	bge.n	10002f9c <irq_remove_handler+0xe4>
10003014:	9a01      	ldr	r2, [sp, #4]
10003016:	2a00      	cmp	r2, #0
10003018:	d101      	bne.n	1000301e <irq_remove_handler+0x166>
1000301a:	4644      	mov	r4, r8
1000301c:	e7ed      	b.n	10002ffa <irq_remove_handler+0x142>
1000301e:	4a10      	ldr	r2, [pc, #64]	; (10003060 <irq_remove_handler+0x1a8>)
10003020:	4910      	ldr	r1, [pc, #64]	; (10003064 <irq_remove_handler+0x1ac>)
10003022:	1ad2      	subs	r2, r2, r3
10003024:	3a08      	subs	r2, #8
10003026:	0250      	lsls	r0, r2, #9
10003028:	0d40      	lsrs	r0, r0, #21
1000302a:	4301      	orrs	r1, r0
1000302c:	8099      	strh	r1, [r3, #4]
1000302e:	490e      	ldr	r1, [pc, #56]	; (10003068 <irq_remove_handler+0x1b0>)
10003030:	0852      	lsrs	r2, r2, #1
10003032:	430a      	orrs	r2, r1
10003034:	80da      	strh	r2, [r3, #6]
10003036:	e7a0      	b.n	10002f7a <irq_remove_handler+0xc2>
10003038:	d0000124 	.word	0xd0000124
1000303c:	e000ed00 	.word	0xe000ed00
10003040:	100001cd 	.word	0x100001cd
10003044:	20000534 	.word	0x20000534
10003048:	e000e100 	.word	0xe000e100
1000304c:	e000e180 	.word	0xe000e180
10003050:	e000e280 	.word	0xe000e280
10003054:	200016ad 	.word	0x200016ad
10003058:	ffffbd00 	.word	0xffffbd00
1000305c:	0000aaaa 	.word	0x0000aaaa
10003060:	2000056e 	.word	0x2000056e
10003064:	fffff000 	.word	0xfffff000
10003068:	fffff800 	.word	0xfffff800

1000306c <irq_add_tail_to_free_list>:
1000306c:	b5f8      	push	{r3, r4, r5, r6, r7, lr}
1000306e:	2501      	movs	r5, #1
10003070:	0004      	movs	r4, r0
10003072:	4305      	orrs	r5, r0
10003074:	f7fd f8f7 	bl	10000266 <__get_current_exception>
10003078:	f3ef 8610 	mrs	r6, PRIMASK
1000307c:	b672      	cpsid	i
1000307e:	4a21      	ldr	r2, [pc, #132]	; (10003104 <irq_add_tail_to_free_list+0x98>)
10003080:	6813      	ldr	r3, [r2, #0]
10003082:	2b00      	cmp	r3, #0
10003084:	d0fc      	beq.n	10003080 <irq_add_tail_to_free_list+0x14>
10003086:	f3bf 8f5f 	dmb	sy
1000308a:	4b1f      	ldr	r3, [pc, #124]	; (10003108 <irq_add_tail_to_free_list+0x9c>)
1000308c:	4a1f      	ldr	r2, [pc, #124]	; (1000310c <irq_add_tail_to_free_list+0xa0>)
1000308e:	0021      	movs	r1, r4
10003090:	1ac9      	subs	r1, r1, r3
10003092:	4149      	adcs	r1, r1
10003094:	434a      	muls	r2, r1
10003096:	0d12      	lsrs	r2, r2, #20
10003098:	491d      	ldr	r1, [pc, #116]	; (10003110 <irq_add_tail_to_free_list+0xa4>)
1000309a:	0080      	lsls	r0, r0, #2
1000309c:	688f      	ldr	r7, [r1, #8]
1000309e:	b252      	sxtb	r2, r2
100030a0:	583f      	ldr	r7, [r7, r0]
100030a2:	42af      	cmp	r7, r5
100030a4:	d01c      	beq.n	100030e0 <irq_add_tail_to_free_list+0x74>
100030a6:	2106      	movs	r1, #6
100030a8:	5659      	ldrsb	r1, [r3, r1]
100030aa:	4291      	cmp	r1, r2
100030ac:	d026      	beq.n	100030fc <irq_add_tail_to_free_list+0x90>
100030ae:	2112      	movs	r1, #18
100030b0:	5659      	ldrsb	r1, [r3, r1]
100030b2:	4291      	cmp	r1, r2
100030b4:	d024      	beq.n	10003100 <irq_add_tail_to_free_list+0x94>
100030b6:	211e      	movs	r1, #30
100030b8:	5659      	ldrsb	r1, [r3, r1]
100030ba:	4291      	cmp	r1, r2
100030bc:	d014      	beq.n	100030e8 <irq_add_tail_to_free_list+0x7c>
100030be:	212a      	movs	r1, #42	; 0x2a
100030c0:	5659      	ldrsb	r1, [r3, r1]
100030c2:	2003      	movs	r0, #3
100030c4:	4291      	cmp	r1, r2
100030c6:	d010      	beq.n	100030ea <irq_add_tail_to_free_list+0x7e>
100030c8:	4b12      	ldr	r3, [pc, #72]	; (10003114 <irq_add_tail_to_free_list+0xa8>)
100030ca:	7819      	ldrb	r1, [r3, #0]
100030cc:	701a      	strb	r2, [r3, #0]
100030ce:	71a1      	strb	r1, [r4, #6]
100030d0:	f3bf 8f5f 	dmb	sy
100030d4:	2200      	movs	r2, #0
100030d6:	4b0b      	ldr	r3, [pc, #44]	; (10003104 <irq_add_tail_to_free_list+0x98>)
100030d8:	601a      	str	r2, [r3, #0]
100030da:	f386 8810 	msr	PRIMASK, r6
100030de:	bdf8      	pop	{r3, r4, r5, r6, r7, pc}
100030e0:	688b      	ldr	r3, [r1, #8]
100030e2:	490d      	ldr	r1, [pc, #52]	; (10003118 <irq_add_tail_to_free_list+0xac>)
100030e4:	5019      	str	r1, [r3, r0]
100030e6:	e7ef      	b.n	100030c8 <irq_add_tail_to_free_list+0x5c>
100030e8:	2002      	movs	r0, #2
100030ea:	0041      	lsls	r1, r0, #1
100030ec:	1809      	adds	r1, r1, r0
100030ee:	0089      	lsls	r1, r1, #2
100030f0:	185b      	adds	r3, r3, r1
100030f2:	21ff      	movs	r1, #255	; 0xff
100030f4:	7199      	strb	r1, [r3, #6]
100030f6:	4909      	ldr	r1, [pc, #36]	; (1000311c <irq_add_tail_to_free_list+0xb0>)
100030f8:	8099      	strh	r1, [r3, #4]
100030fa:	e7e5      	b.n	100030c8 <irq_add_tail_to_free_list+0x5c>
100030fc:	2000      	movs	r0, #0
100030fe:	e7f4      	b.n	100030ea <irq_add_tail_to_free_list+0x7e>
10003100:	2001      	movs	r0, #1
10003102:	e7f2      	b.n	100030ea <irq_add_tail_to_free_list+0x7e>
10003104:	d0000124 	.word	0xd0000124
10003108:	20000534 	.word	0x20000534
1000310c:	0000aaaa 	.word	0x0000aaaa
10003110:	e000ed00 	.word	0xe000ed00
10003114:	200016ad 	.word	0x200016ad
10003118:	100001cd 	.word	0x100001cd
1000311c:	ffffbd00 	.word	0xffffbd00

10003120 <irq_init_priorities>:
10003120:	4b05      	ldr	r3, [pc, #20]	; (10003138 <irq_init_priorities+0x18>)
10003122:	4a06      	ldr	r2, [pc, #24]	; (1000313c <irq_init_priorities+0x1c>)
10003124:	6013      	str	r3, [r2, #0]
10003126:	4a06      	ldr	r2, [pc, #24]	; (10003140 <irq_init_priorities+0x20>)
10003128:	6013      	str	r3, [r2, #0]
1000312a:	6053      	str	r3, [r2, #4]
1000312c:	6093      	str	r3, [r2, #8]
1000312e:	60d3      	str	r3, [r2, #12]
10003130:	6113      	str	r3, [r2, #16]
10003132:	6153      	str	r3, [r2, #20]
10003134:	6193      	str	r3, [r2, #24]
10003136:	4770      	bx	lr
10003138:	80808080 	.word	0x80808080
1000313c:	e000e400 	.word	0xe000e400
10003140:	e000e404 	.word	0xe000e404

10003144 <user_irq_claim_unused>:
10003144:	23d0      	movs	r3, #208	; 0xd0
10003146:	b500      	push	{lr}
10003148:	061b      	lsls	r3, r3, #24
1000314a:	0001      	movs	r1, r0
1000314c:	6818      	ldr	r0, [r3, #0]
1000314e:	4b07      	ldr	r3, [pc, #28]	; (1000316c <user_irq_claim_unused+0x28>)
10003150:	b083      	sub	sp, #12
10003152:	1818      	adds	r0, r3, r0
10003154:	4b06      	ldr	r3, [pc, #24]	; (10003170 <user_irq_claim_unused+0x2c>)
10003156:	2200      	movs	r2, #0
10003158:	9300      	str	r3, [sp, #0]
1000315a:	2305      	movs	r3, #5
1000315c:	f7ff fce6 	bl	10002b2c <hw_claim_unused_from_range>
10003160:	2800      	cmp	r0, #0
10003162:	db01      	blt.n	10003168 <user_irq_claim_unused+0x24>
10003164:	231f      	movs	r3, #31
10003166:	1a18      	subs	r0, r3, r0
10003168:	b003      	add	sp, #12
1000316a:	bd00      	pop	{pc}
1000316c:	20001690 	.word	0x20001690
10003170:	10008ad4 	.word	0x10008ad4

10003174 <lock_init>:
10003174:	4b02      	ldr	r3, [pc, #8]	; (10003180 <lock_init+0xc>)
10003176:	469c      	mov	ip, r3
10003178:	4461      	add	r1, ip
1000317a:	0089      	lsls	r1, r1, #2
1000317c:	6001      	str	r1, [r0, #0]
1000317e:	4770      	bx	lr
10003180:	34000040 	.word	0x34000040

10003184 <timer_pool_entry_comparator>:
10003184:	6883      	ldr	r3, [r0, #8]
10003186:	480b      	ldr	r0, [pc, #44]	; (100031b4 <timer_pool_entry_comparator+0x30>)
10003188:	b510      	push	{r4, lr}
1000318a:	4684      	mov	ip, r0
1000318c:	4461      	add	r1, ip
1000318e:	4462      	add	r2, ip
10003190:	0109      	lsls	r1, r1, #4
10003192:	0112      	lsls	r2, r2, #4
10003194:	189a      	adds	r2, r3, r2
10003196:	1859      	adds	r1, r3, r1
10003198:	6854      	ldr	r4, [r2, #4]
1000319a:	684b      	ldr	r3, [r1, #4]
1000319c:	2001      	movs	r0, #1
1000319e:	429c      	cmp	r4, r3
100031a0:	d801      	bhi.n	100031a6 <timer_pool_entry_comparator+0x22>
100031a2:	d002      	beq.n	100031aa <timer_pool_entry_comparator+0x26>
100031a4:	2000      	movs	r0, #0
100031a6:	b2c0      	uxtb	r0, r0
100031a8:	bd10      	pop	{r4, pc}
100031aa:	6812      	ldr	r2, [r2, #0]
100031ac:	680b      	ldr	r3, [r1, #0]
100031ae:	429a      	cmp	r2, r3
100031b0:	d8f9      	bhi.n	100031a6 <timer_pool_entry_comparator+0x22>
100031b2:	e7f7      	b.n	100031a4 <timer_pool_entry_comparator+0x20>
100031b4:	0fffffff 	.word	0x0fffffff

100031b8 <repeating_timer_callback>:
100031b8:	b510      	push	{r4, lr}
100031ba:	0008      	movs	r0, r1
100031bc:	690b      	ldr	r3, [r1, #16]
100031be:	000c      	movs	r4, r1
100031c0:	4798      	blx	r3
100031c2:	2800      	cmp	r0, #0
100031c4:	d103      	bne.n	100031ce <repeating_timer_callback+0x16>
100031c6:	60e0      	str	r0, [r4, #12]
100031c8:	2100      	movs	r1, #0
100031ca:	2000      	movs	r0, #0
100031cc:	bd10      	pop	{r4, pc}
100031ce:	6820      	ldr	r0, [r4, #0]
100031d0:	6861      	ldr	r1, [r4, #4]
100031d2:	e7fb      	b.n	100031cc <repeating_timer_callback+0x14>

100031d4 <sleep_until_callback>:
100031d4:	4b0a      	ldr	r3, [pc, #40]	; (10003200 <sleep_until_callback+0x2c>)
100031d6:	6819      	ldr	r1, [r3, #0]
100031d8:	f3ef 8010 	mrs	r0, PRIMASK
100031dc:	b672      	cpsid	i
100031de:	680a      	ldr	r2, [r1, #0]
100031e0:	2a00      	cmp	r2, #0
100031e2:	d0fc      	beq.n	100031de <sleep_until_callback+0xa>
100031e4:	f3bf 8f5f 	dmb	sy
100031e8:	681b      	ldr	r3, [r3, #0]
100031ea:	f3bf 8f5f 	dmb	sy
100031ee:	2200      	movs	r2, #0
100031f0:	601a      	str	r2, [r3, #0]
100031f2:	f380 8810 	msr	PRIMASK, r0
100031f6:	bf40      	sev
100031f8:	2000      	movs	r0, #0
100031fa:	2100      	movs	r1, #0
100031fc:	4770      	bx	lr
100031fe:	46c0      	nop			; (mov r8, r8)
10003200:	20001658 	.word	0x20001658

10003204 <add_alarm_under_lock>:
10003204:	b5f8      	push	{r3, r4, r5, r6, r7, lr}
10003206:	4657      	mov	r7, sl
10003208:	464e      	mov	r6, r9
1000320a:	4645      	mov	r5, r8
1000320c:	46de      	mov	lr, fp
1000320e:	b5e0      	push	{r5, r6, r7, lr}
10003210:	001f      	movs	r7, r3
10003212:	ab0c      	add	r3, sp, #48	; 0x30
10003214:	781d      	ldrb	r5, [r3, #0]
10003216:	ab0d      	add	r3, sp, #52	; 0x34
10003218:	781b      	ldrb	r3, [r3, #0]
1000321a:	4681      	mov	r9, r0
1000321c:	469a      	mov	sl, r3
1000321e:	6803      	ldr	r3, [r0, #0]
10003220:	0016      	movs	r6, r2
10003222:	4698      	mov	r8, r3
10003224:	2d00      	cmp	r5, #0
10003226:	d13b      	bne.n	100032a0 <add_alarm_under_lock+0x9c>
10003228:	7b98      	ldrb	r0, [r3, #14]
1000322a:	2800      	cmp	r0, #0
1000322c:	d032      	beq.n	10003294 <add_alarm_under_lock+0x90>
1000322e:	4642      	mov	r2, r8
10003230:	4645      	mov	r5, r8
10003232:	0044      	lsls	r4, r0, #1
10003234:	6812      	ldr	r2, [r2, #0]
10003236:	1824      	adds	r4, r4, r0
10003238:	3c03      	subs	r4, #3
1000323a:	1912      	adds	r2, r2, r4
1000323c:	7851      	ldrb	r1, [r2, #1]
1000323e:	0003      	movs	r3, r0
10003240:	73a9      	strb	r1, [r5, #14]
10003242:	2900      	cmp	r1, #0
10003244:	d100      	bne.n	10003248 <add_alarm_under_lock+0x44>
10003246:	73e9      	strb	r1, [r5, #15]
10003248:	2100      	movs	r1, #0
1000324a:	0005      	movs	r5, r0
1000324c:	7091      	strb	r1, [r2, #2]
1000324e:	7051      	strb	r1, [r2, #1]
10003250:	7011      	strb	r1, [r2, #0]
10003252:	e029      	b.n	100032a8 <add_alarm_under_lock+0xa4>
10003254:	18d3      	adds	r3, r2, r3
10003256:	1914      	adds	r4, r2, r4
10003258:	709d      	strb	r5, [r3, #2]
1000325a:	7822      	ldrb	r2, [r4, #0]
1000325c:	2a00      	cmp	r2, #0
1000325e:	d000      	beq.n	10003262 <add_alarm_under_lock+0x5e>
10003260:	705a      	strb	r2, [r3, #1]
10003262:	465b      	mov	r3, fp
10003264:	7023      	strb	r3, [r4, #0]
10003266:	4643      	mov	r3, r8
10003268:	735d      	strb	r5, [r3, #13]
1000326a:	464b      	mov	r3, r9
1000326c:	0032      	movs	r2, r6
1000326e:	7d18      	ldrb	r0, [r3, #20]
10003270:	003b      	movs	r3, r7
10003272:	f000 fe1b 	bl	10003eac <hardware_alarm_set_target>
10003276:	1e04      	subs	r4, r0, #0
10003278:	d007      	beq.n	1000328a <add_alarm_under_lock+0x86>
1000327a:	4653      	mov	r3, sl
1000327c:	2b00      	cmp	r3, #0
1000327e:	d104      	bne.n	1000328a <add_alarm_under_lock+0x86>
10003280:	464b      	mov	r3, r9
10003282:	0029      	movs	r1, r5
10003284:	6818      	ldr	r0, [r3, #0]
10003286:	f000 ffcd 	bl	10004224 <ph_remove_and_free_node>
1000328a:	9b0e      	ldr	r3, [sp, #56]	; 0x38
1000328c:	2b00      	cmp	r3, #0
1000328e:	d044      	beq.n	1000331a <add_alarm_under_lock+0x116>
10003290:	0028      	movs	r0, r5
10003292:	701c      	strb	r4, [r3, #0]
10003294:	bc3c      	pop	{r2, r3, r4, r5}
10003296:	4690      	mov	r8, r2
10003298:	4699      	mov	r9, r3
1000329a:	46a2      	mov	sl, r4
1000329c:	46ab      	mov	fp, r5
1000329e:	bdf8      	pop	{r3, r4, r5, r6, r7, pc}
100032a0:	002b      	movs	r3, r5
100032a2:	006c      	lsls	r4, r5, #1
100032a4:	1964      	adds	r4, r4, r5
100032a6:	3c03      	subs	r4, #3
100032a8:	4a1d      	ldr	r2, [pc, #116]	; (10003320 <add_alarm_under_lock+0x11c>)
100032aa:	4694      	mov	ip, r2
100032ac:	464a      	mov	r2, r9
100032ae:	6892      	ldr	r2, [r2, #8]
100032b0:	4463      	add	r3, ip
100032b2:	4694      	mov	ip, r2
100032b4:	011b      	lsls	r3, r3, #4
100032b6:	9a0a      	ldr	r2, [sp, #40]	; 0x28
100032b8:	4463      	add	r3, ip
100032ba:	609a      	str	r2, [r3, #8]
100032bc:	9a0b      	ldr	r2, [sp, #44]	; 0x2c
100032be:	601e      	str	r6, [r3, #0]
100032c0:	605f      	str	r7, [r3, #4]
100032c2:	60da      	str	r2, [r3, #12]
100032c4:	4643      	mov	r3, r8
100032c6:	2200      	movs	r2, #0
100032c8:	681b      	ldr	r3, [r3, #0]
100032ca:	191b      	adds	r3, r3, r4
100032cc:	709a      	strb	r2, [r3, #2]
100032ce:	705a      	strb	r2, [r3, #1]
100032d0:	701a      	strb	r2, [r3, #0]
100032d2:	4643      	mov	r3, r8
100032d4:	7b5b      	ldrb	r3, [r3, #13]
100032d6:	469b      	mov	fp, r3
100032d8:	2b00      	cmp	r3, #0
100032da:	d0c4      	beq.n	10003266 <add_alarm_under_lock+0x62>
100032dc:	4643      	mov	r3, r8
100032de:	002a      	movs	r2, r5
100032e0:	6898      	ldr	r0, [r3, #8]
100032e2:	4659      	mov	r1, fp
100032e4:	685b      	ldr	r3, [r3, #4]
100032e6:	4798      	blx	r3
100032e8:	465b      	mov	r3, fp
100032ea:	4642      	mov	r2, r8
100032ec:	005b      	lsls	r3, r3, #1
100032ee:	445b      	add	r3, fp
100032f0:	3b03      	subs	r3, #3
100032f2:	6812      	ldr	r2, [r2, #0]
100032f4:	2800      	cmp	r0, #0
100032f6:	d0ad      	beq.n	10003254 <add_alarm_under_lock+0x50>
100032f8:	18d3      	adds	r3, r2, r3
100032fa:	1914      	adds	r4, r2, r4
100032fc:	465a      	mov	r2, fp
100032fe:	70a2      	strb	r2, [r4, #2]
10003300:	781a      	ldrb	r2, [r3, #0]
10003302:	2a00      	cmp	r2, #0
10003304:	d107      	bne.n	10003316 <add_alarm_under_lock+0x112>
10003306:	701d      	strb	r5, [r3, #0]
10003308:	465a      	mov	r2, fp
1000330a:	4643      	mov	r3, r8
1000330c:	0028      	movs	r0, r5
1000330e:	735a      	strb	r2, [r3, #13]
10003310:	45ab      	cmp	fp, r5
10003312:	d1bf      	bne.n	10003294 <add_alarm_under_lock+0x90>
10003314:	e7a9      	b.n	1000326a <add_alarm_under_lock+0x66>
10003316:	7062      	strb	r2, [r4, #1]
10003318:	e7f5      	b.n	10003306 <add_alarm_under_lock+0x102>
1000331a:	0028      	movs	r0, r5
1000331c:	e7ba      	b.n	10003294 <add_alarm_under_lock+0x90>
1000331e:	46c0      	nop			; (mov r8, r8)
10003320:	0fffffff 	.word	0x0fffffff

10003324 <alarm_pool_alarm_callback>:
10003324:	b5f0      	push	{r4, r5, r6, r7, lr}
10003326:	46de      	mov	lr, fp
10003328:	4645      	mov	r5, r8
1000332a:	4657      	mov	r7, sl
1000332c:	464e      	mov	r6, r9
1000332e:	4b72      	ldr	r3, [pc, #456]	; (100034f8 <alarm_pool_alarm_callback+0x1d4>)
10003330:	0082      	lsls	r2, r0, #2
10003332:	b5e0      	push	{r5, r6, r7, lr}
10003334:	58d5      	ldr	r5, [r2, r3]
10003336:	2300      	movs	r3, #0
10003338:	b08d      	sub	sp, #52	; 0x34
1000333a:	900b      	str	r0, [sp, #44]	; 0x2c
1000333c:	469b      	mov	fp, r3
1000333e:	e027      	b.n	10003390 <alarm_pool_alarm_callback+0x6c>
10003340:	9a06      	ldr	r2, [sp, #24]
10003342:	9b07      	ldr	r3, [sp, #28]
10003344:	0011      	movs	r1, r2
10003346:	4319      	orrs	r1, r3
10003348:	d003      	beq.n	10003352 <alarm_pool_alarm_callback+0x2e>
1000334a:	692b      	ldr	r3, [r5, #16]
1000334c:	2b00      	cmp	r3, #0
1000334e:	d000      	beq.n	10003352 <alarm_pool_alarm_callback+0x2e>
10003350:	e093      	b.n	1000347a <alarm_pool_alarm_callback+0x156>
10003352:	682b      	ldr	r3, [r5, #0]
10003354:	7bda      	ldrb	r2, [r3, #15]
10003356:	2a00      	cmp	r2, #0
10003358:	d007      	beq.n	1000336a <alarm_pool_alarm_callback+0x46>
1000335a:	0051      	lsls	r1, r2, #1
1000335c:	188a      	adds	r2, r1, r2
1000335e:	6819      	ldr	r1, [r3, #0]
10003360:	468c      	mov	ip, r1
10003362:	4649      	mov	r1, r9
10003364:	4462      	add	r2, ip
10003366:	3a03      	subs	r2, #3
10003368:	7051      	strb	r1, [r2, #1]
1000336a:	464a      	mov	r2, r9
1000336c:	73da      	strb	r2, [r3, #15]
1000336e:	68ea      	ldr	r2, [r5, #12]
10003370:	464b      	mov	r3, r9
10003372:	4694      	mov	ip, r2
10003374:	3b01      	subs	r3, #1
10003376:	4463      	add	r3, ip
10003378:	781a      	ldrb	r2, [r3, #0]
1000337a:	3201      	adds	r2, #1
1000337c:	701a      	strb	r2, [r3, #0]
1000337e:	465b      	mov	r3, fp
10003380:	612b      	str	r3, [r5, #16]
10003382:	686b      	ldr	r3, [r5, #4]
10003384:	f3bf 8f5f 	dmb	sy
10003388:	465a      	mov	r2, fp
1000338a:	601a      	str	r2, [r3, #0]
1000338c:	f384 8810 	msr	PRIMASK, r4
10003390:	f000 fd2a 	bl	10003de8 <time_us_64>
10003394:	686a      	ldr	r2, [r5, #4]
10003396:	f3ef 8410 	mrs	r4, PRIMASK
1000339a:	b672      	cpsid	i
1000339c:	6813      	ldr	r3, [r2, #0]
1000339e:	2b00      	cmp	r3, #0
100033a0:	d0fc      	beq.n	1000339c <alarm_pool_alarm_callback+0x78>
100033a2:	f3bf 8f5f 	dmb	sy
100033a6:	682b      	ldr	r3, [r5, #0]
100033a8:	469c      	mov	ip, r3
100033aa:	7b5b      	ldrb	r3, [r3, #13]
100033ac:	4699      	mov	r9, r3
100033ae:	2b00      	cmp	r3, #0
100033b0:	d05b      	beq.n	1000346a <alarm_pool_alarm_callback+0x146>
100033b2:	68aa      	ldr	r2, [r5, #8]
100033b4:	4b51      	ldr	r3, [pc, #324]	; (100034fc <alarm_pool_alarm_callback+0x1d8>)
100033b6:	4690      	mov	r8, r2
100033b8:	444b      	add	r3, r9
100033ba:	011b      	lsls	r3, r3, #4
100033bc:	4498      	add	r8, r3
100033be:	4643      	mov	r3, r8
100033c0:	681a      	ldr	r2, [r3, #0]
100033c2:	685b      	ldr	r3, [r3, #4]
100033c4:	0016      	movs	r6, r2
100033c6:	001f      	movs	r7, r3
100033c8:	1a36      	subs	r6, r6, r0
100033ca:	418f      	sbcs	r7, r1
100033cc:	2f00      	cmp	r7, #0
100033ce:	dd6e      	ble.n	100034ae <alarm_pool_alarm_callback+0x18a>
100033d0:	980b      	ldr	r0, [sp, #44]	; 0x2c
100033d2:	f000 fd6b 	bl	10003eac <hardware_alarm_set_target>
100033d6:	2200      	movs	r2, #0
100033d8:	2300      	movs	r3, #0
100033da:	2700      	movs	r7, #0
100033dc:	2600      	movs	r6, #0
100033de:	9208      	str	r2, [sp, #32]
100033e0:	9309      	str	r3, [sp, #36]	; 0x24
100033e2:	686b      	ldr	r3, [r5, #4]
100033e4:	f3bf 8f5f 	dmb	sy
100033e8:	465a      	mov	r2, fp
100033ea:	601a      	str	r2, [r3, #0]
100033ec:	f384 8810 	msr	PRIMASK, r4
100033f0:	2e00      	cmp	r6, #0
100033f2:	d076      	beq.n	100034e2 <alarm_pool_alarm_callback+0x1be>
100033f4:	4653      	mov	r3, sl
100033f6:	0218      	lsls	r0, r3, #8
100033f8:	464b      	mov	r3, r9
100033fa:	0039      	movs	r1, r7
100033fc:	4318      	orrs	r0, r3
100033fe:	47b0      	blx	r6
10003400:	686a      	ldr	r2, [r5, #4]
10003402:	9006      	str	r0, [sp, #24]
10003404:	9107      	str	r1, [sp, #28]
10003406:	f3ef 8410 	mrs	r4, PRIMASK
1000340a:	b672      	cpsid	i
1000340c:	6813      	ldr	r3, [r2, #0]
1000340e:	2b00      	cmp	r3, #0
10003410:	d0fc      	beq.n	1000340c <alarm_pool_alarm_callback+0xe8>
10003412:	f3bf 8f5f 	dmb	sy
10003416:	9b07      	ldr	r3, [sp, #28]
10003418:	2b00      	cmp	r3, #0
1000341a:	da91      	bge.n	10003340 <alarm_pool_alarm_callback+0x1c>
1000341c:	692b      	ldr	r3, [r5, #16]
1000341e:	2b00      	cmp	r3, #0
10003420:	d097      	beq.n	10003352 <alarm_pool_alarm_callback+0x2e>
10003422:	9806      	ldr	r0, [sp, #24]
10003424:	9907      	ldr	r1, [sp, #28]
10003426:	9a08      	ldr	r2, [sp, #32]
10003428:	9b09      	ldr	r3, [sp, #36]	; 0x24
1000342a:	1a12      	subs	r2, r2, r0
1000342c:	418b      	sbcs	r3, r1
1000342e:	9808      	ldr	r0, [sp, #32]
10003430:	9909      	ldr	r1, [sp, #36]	; 0x24
10003432:	9206      	str	r2, [sp, #24]
10003434:	9307      	str	r3, [sp, #28]
10003436:	9a07      	ldr	r2, [sp, #28]
10003438:	4291      	cmp	r1, r2
1000343a:	d803      	bhi.n	10003444 <alarm_pool_alarm_callback+0x120>
1000343c:	d107      	bne.n	1000344e <alarm_pool_alarm_callback+0x12a>
1000343e:	9a06      	ldr	r2, [sp, #24]
10003440:	4290      	cmp	r0, r2
10003442:	d904      	bls.n	1000344e <alarm_pool_alarm_callback+0x12a>
10003444:	2201      	movs	r2, #1
10003446:	4252      	negs	r2, r2
10003448:	17d3      	asrs	r3, r2, #31
1000344a:	9206      	str	r2, [sp, #24]
1000344c:	9307      	str	r3, [sp, #28]
1000344e:	465b      	mov	r3, fp
10003450:	2101      	movs	r1, #1
10003452:	9304      	str	r3, [sp, #16]
10003454:	464b      	mov	r3, r9
10003456:	9103      	str	r1, [sp, #12]
10003458:	9302      	str	r3, [sp, #8]
1000345a:	9701      	str	r7, [sp, #4]
1000345c:	9600      	str	r6, [sp, #0]
1000345e:	9a06      	ldr	r2, [sp, #24]
10003460:	9b07      	ldr	r3, [sp, #28]
10003462:	0028      	movs	r0, r5
10003464:	f7ff fece 	bl	10003204 <add_alarm_under_lock>
10003468:	e789      	b.n	1000337e <alarm_pool_alarm_callback+0x5a>
1000346a:	2200      	movs	r2, #0
1000346c:	2300      	movs	r3, #0
1000346e:	2700      	movs	r7, #0
10003470:	9208      	str	r2, [sp, #32]
10003472:	9309      	str	r3, [sp, #36]	; 0x24
10003474:	2600      	movs	r6, #0
10003476:	2000      	movs	r0, #0
10003478:	e7b3      	b.n	100033e2 <alarm_pool_alarm_callback+0xbe>
1000347a:	f000 fcb5 	bl	10003de8 <time_us_64>
1000347e:	9a06      	ldr	r2, [sp, #24]
10003480:	9b07      	ldr	r3, [sp, #28]
10003482:	1812      	adds	r2, r2, r0
10003484:	414b      	adcs	r3, r1
10003486:	4299      	cmp	r1, r3
10003488:	d802      	bhi.n	10003490 <alarm_pool_alarm_callback+0x16c>
1000348a:	d104      	bne.n	10003496 <alarm_pool_alarm_callback+0x172>
1000348c:	4290      	cmp	r0, r2
1000348e:	d902      	bls.n	10003496 <alarm_pool_alarm_callback+0x172>
10003490:	2201      	movs	r2, #1
10003492:	4252      	negs	r2, r2
10003494:	17d3      	asrs	r3, r2, #31
10003496:	4659      	mov	r1, fp
10003498:	9104      	str	r1, [sp, #16]
1000349a:	2101      	movs	r1, #1
1000349c:	9103      	str	r1, [sp, #12]
1000349e:	4649      	mov	r1, r9
100034a0:	9701      	str	r7, [sp, #4]
100034a2:	9102      	str	r1, [sp, #8]
100034a4:	9600      	str	r6, [sp, #0]
100034a6:	0028      	movs	r0, r5
100034a8:	f7ff feac 	bl	10003204 <add_alarm_under_lock>
100034ac:	e767      	b.n	1000337e <alarm_pool_alarm_callback+0x5a>
100034ae:	2f00      	cmp	r7, #0
100034b0:	d101      	bne.n	100034b6 <alarm_pool_alarm_callback+0x192>
100034b2:	2e00      	cmp	r6, #0
100034b4:	d18c      	bne.n	100033d0 <alarm_pool_alarm_callback+0xac>
100034b6:	2100      	movs	r1, #0
100034b8:	4660      	mov	r0, ip
100034ba:	f000 fe07 	bl	100040cc <ph_remove_head>
100034be:	4643      	mov	r3, r8
100034c0:	681a      	ldr	r2, [r3, #0]
100034c2:	685b      	ldr	r3, [r3, #4]
100034c4:	9208      	str	r2, [sp, #32]
100034c6:	9309      	str	r3, [sp, #36]	; 0x24
100034c8:	4643      	mov	r3, r8
100034ca:	689e      	ldr	r6, [r3, #8]
100034cc:	68df      	ldr	r7, [r3, #12]
100034ce:	68eb      	ldr	r3, [r5, #12]
100034d0:	444b      	add	r3, r9
100034d2:	3b01      	subs	r3, #1
100034d4:	781b      	ldrb	r3, [r3, #0]
100034d6:	469a      	mov	sl, r3
100034d8:	021b      	lsls	r3, r3, #8
100034da:	4318      	orrs	r0, r3
100034dc:	6128      	str	r0, [r5, #16]
100034de:	2000      	movs	r0, #0
100034e0:	e77f      	b.n	100033e2 <alarm_pool_alarm_callback+0xbe>
100034e2:	2800      	cmp	r0, #0
100034e4:	d000      	beq.n	100034e8 <alarm_pool_alarm_callback+0x1c4>
100034e6:	e753      	b.n	10003390 <alarm_pool_alarm_callback+0x6c>
100034e8:	b00d      	add	sp, #52	; 0x34
100034ea:	bc3c      	pop	{r2, r3, r4, r5}
100034ec:	4690      	mov	r8, r2
100034ee:	4699      	mov	r9, r3
100034f0:	46a2      	mov	sl, r4
100034f2:	46ab      	mov	fp, r5
100034f4:	bdf0      	pop	{r4, r5, r6, r7, pc}
100034f6:	46c0      	nop			; (mov r8, r8)
100034f8:	2000163c 	.word	0x2000163c
100034fc:	0fffffff 	.word	0x0fffffff

10003500 <alarm_pool_init_default>:
10003500:	b510      	push	{r4, lr}
10003502:	4c12      	ldr	r4, [pc, #72]	; (1000354c <alarm_pool_init_default+0x4c>)
10003504:	6863      	ldr	r3, [r4, #4]
10003506:	2b00      	cmp	r3, #0
10003508:	d004      	beq.n	10003514 <alarm_pool_init_default+0x14>
1000350a:	210a      	movs	r1, #10
1000350c:	4810      	ldr	r0, [pc, #64]	; (10003550 <alarm_pool_init_default+0x50>)
1000350e:	f7ff fe31 	bl	10003174 <lock_init>
10003512:	bd10      	pop	{r4, pc}
10003514:	0023      	movs	r3, r4
10003516:	4a0f      	ldr	r2, [pc, #60]	; (10003554 <alarm_pool_init_default+0x54>)
10003518:	2110      	movs	r1, #16
1000351a:	6820      	ldr	r0, [r4, #0]
1000351c:	f000 fdb8 	bl	10004090 <ph_post_alloc_init>
10003520:	2003      	movs	r0, #3
10003522:	f000 fc55 	bl	10003dd0 <hardware_alarm_claim>
10003526:	2003      	movs	r0, #3
10003528:	f000 fd2c 	bl	10003f84 <hardware_alarm_cancel>
1000352c:	490a      	ldr	r1, [pc, #40]	; (10003558 <alarm_pool_init_default+0x58>)
1000352e:	2003      	movs	r0, #3
10003530:	f000 fc76 	bl	10003e20 <hardware_alarm_set_callback>
10003534:	f7ff fb5e 	bl	10002bf4 <next_striped_spin_lock_num>
10003538:	4b08      	ldr	r3, [pc, #32]	; (1000355c <alarm_pool_init_default+0x5c>)
1000353a:	469c      	mov	ip, r3
1000353c:	2303      	movs	r3, #3
1000353e:	4460      	add	r0, ip
10003540:	7523      	strb	r3, [r4, #20]
10003542:	4b07      	ldr	r3, [pc, #28]	; (10003560 <alarm_pool_init_default+0x60>)
10003544:	0080      	lsls	r0, r0, #2
10003546:	6060      	str	r0, [r4, #4]
10003548:	60dc      	str	r4, [r3, #12]
1000354a:	e7de      	b.n	1000350a <alarm_pool_init_default+0xa>
1000354c:	2000057c 	.word	0x2000057c
10003550:	20001658 	.word	0x20001658
10003554:	10003185 	.word	0x10003185
10003558:	10003325 	.word	0x10003325
1000355c:	34000040 	.word	0x34000040
10003560:	2000163c 	.word	0x2000163c

10003564 <alarm_pool_get_default>:
10003564:	4800      	ldr	r0, [pc, #0]	; (10003568 <alarm_pool_get_default+0x4>)
10003566:	4770      	bx	lr
10003568:	2000057c 	.word	0x2000057c

1000356c <alarm_pool_add_alarm_at>:
1000356c:	b5f0      	push	{r4, r5, r6, r7, lr}
1000356e:	4645      	mov	r5, r8
10003570:	46de      	mov	lr, fp
10003572:	4657      	mov	r7, sl
10003574:	464e      	mov	r6, r9
10003576:	b5e0      	push	{r5, r6, r7, lr}
10003578:	b085      	sub	sp, #20
1000357a:	9200      	str	r2, [sp, #0]
1000357c:	9301      	str	r3, [sp, #4]
1000357e:	ab10      	add	r3, sp, #64	; 0x40
10003580:	781b      	ldrb	r3, [r3, #0]
10003582:	0005      	movs	r5, r0
10003584:	469b      	mov	fp, r3
10003586:	2300      	movs	r3, #0
10003588:	469a      	mov	sl, r3
1000358a:	4698      	mov	r8, r3
1000358c:	686a      	ldr	r2, [r5, #4]
1000358e:	f3ef 8910 	mrs	r9, PRIMASK
10003592:	b672      	cpsid	i
10003594:	6813      	ldr	r3, [r2, #0]
10003596:	2b00      	cmp	r3, #0
10003598:	d0fc      	beq.n	10003594 <alarm_pool_add_alarm_at+0x28>
1000359a:	f3bf 8f5f 	dmb	sy
1000359e:	682e      	ldr	r6, [r5, #0]
100035a0:	7bb4      	ldrb	r4, [r6, #14]
100035a2:	2c00      	cmp	r4, #0
100035a4:	d050      	beq.n	10003648 <alarm_pool_add_alarm_at+0xdc>
100035a6:	0067      	lsls	r7, r4, #1
100035a8:	193f      	adds	r7, r7, r4
100035aa:	6833      	ldr	r3, [r6, #0]
100035ac:	3f03      	subs	r7, #3
100035ae:	19db      	adds	r3, r3, r7
100035b0:	785a      	ldrb	r2, [r3, #1]
100035b2:	73b2      	strb	r2, [r6, #14]
100035b4:	2a00      	cmp	r2, #0
100035b6:	d100      	bne.n	100035ba <alarm_pool_add_alarm_at+0x4e>
100035b8:	73f2      	strb	r2, [r6, #15]
100035ba:	4642      	mov	r2, r8
100035bc:	709a      	strb	r2, [r3, #2]
100035be:	705a      	strb	r2, [r3, #1]
100035c0:	701a      	strb	r2, [r3, #0]
100035c2:	68aa      	ldr	r2, [r5, #8]
100035c4:	4b53      	ldr	r3, [pc, #332]	; (10003714 <alarm_pool_add_alarm_at+0x1a8>)
100035c6:	4694      	mov	ip, r2
100035c8:	9900      	ldr	r1, [sp, #0]
100035ca:	9a01      	ldr	r2, [sp, #4]
100035cc:	18e3      	adds	r3, r4, r3
100035ce:	011b      	lsls	r3, r3, #4
100035d0:	4463      	add	r3, ip
100035d2:	6019      	str	r1, [r3, #0]
100035d4:	605a      	str	r2, [r3, #4]
100035d6:	9a0e      	ldr	r2, [sp, #56]	; 0x38
100035d8:	609a      	str	r2, [r3, #8]
100035da:	9a0f      	ldr	r2, [sp, #60]	; 0x3c
100035dc:	60da      	str	r2, [r3, #12]
100035de:	4642      	mov	r2, r8
100035e0:	6833      	ldr	r3, [r6, #0]
100035e2:	19db      	adds	r3, r3, r7
100035e4:	709a      	strb	r2, [r3, #2]
100035e6:	705a      	strb	r2, [r3, #1]
100035e8:	701a      	strb	r2, [r3, #0]
100035ea:	7b73      	ldrb	r3, [r6, #13]
100035ec:	9303      	str	r3, [sp, #12]
100035ee:	2b00      	cmp	r3, #0
100035f0:	d040      	beq.n	10003674 <alarm_pool_add_alarm_at+0x108>
100035f2:	0019      	movs	r1, r3
100035f4:	6873      	ldr	r3, [r6, #4]
100035f6:	0022      	movs	r2, r4
100035f8:	469c      	mov	ip, r3
100035fa:	68b0      	ldr	r0, [r6, #8]
100035fc:	47e0      	blx	ip
100035fe:	9903      	ldr	r1, [sp, #12]
10003600:	6832      	ldr	r2, [r6, #0]
10003602:	468c      	mov	ip, r1
10003604:	004b      	lsls	r3, r1, #1
10003606:	4463      	add	r3, ip
10003608:	3b03      	subs	r3, #3
1000360a:	2800      	cmp	r0, #0
1000360c:	d02b      	beq.n	10003666 <alarm_pool_add_alarm_at+0xfa>
1000360e:	19d7      	adds	r7, r2, r7
10003610:	18d3      	adds	r3, r2, r3
10003612:	70b9      	strb	r1, [r7, #2]
10003614:	781a      	ldrb	r2, [r3, #0]
10003616:	2a00      	cmp	r2, #0
10003618:	d000      	beq.n	1000361c <alarm_pool_add_alarm_at+0xb0>
1000361a:	e073      	b.n	10003704 <alarm_pool_add_alarm_at+0x198>
1000361c:	701c      	strb	r4, [r3, #0]
1000361e:	9b03      	ldr	r3, [sp, #12]
10003620:	7373      	strb	r3, [r6, #13]
10003622:	429c      	cmp	r4, r3
10003624:	d027      	beq.n	10003676 <alarm_pool_add_alarm_at+0x10a>
10003626:	68eb      	ldr	r3, [r5, #12]
10003628:	191b      	adds	r3, r3, r4
1000362a:	3b01      	subs	r3, #1
1000362c:	7818      	ldrb	r0, [r3, #0]
1000362e:	686b      	ldr	r3, [r5, #4]
10003630:	f3bf 8f5f 	dmb	sy
10003634:	4642      	mov	r2, r8
10003636:	601a      	str	r2, [r3, #0]
10003638:	f389 8810 	msr	PRIMASK, r9
1000363c:	4653      	mov	r3, sl
1000363e:	2b00      	cmp	r3, #0
10003640:	d126      	bne.n	10003690 <alarm_pool_add_alarm_at+0x124>
10003642:	0200      	lsls	r0, r0, #8
10003644:	4320      	orrs	r0, r4
10003646:	e007      	b.n	10003658 <alarm_pool_add_alarm_at+0xec>
10003648:	686b      	ldr	r3, [r5, #4]
1000364a:	f3bf 8f5f 	dmb	sy
1000364e:	601c      	str	r4, [r3, #0]
10003650:	f389 8810 	msr	PRIMASK, r9
10003654:	2001      	movs	r0, #1
10003656:	4240      	negs	r0, r0
10003658:	b005      	add	sp, #20
1000365a:	bc3c      	pop	{r2, r3, r4, r5}
1000365c:	4690      	mov	r8, r2
1000365e:	4699      	mov	r9, r3
10003660:	46a2      	mov	sl, r4
10003662:	46ab      	mov	fp, r5
10003664:	bdf0      	pop	{r4, r5, r6, r7, pc}
10003666:	18d3      	adds	r3, r2, r3
10003668:	19d7      	adds	r7, r2, r7
1000366a:	709c      	strb	r4, [r3, #2]
1000366c:	783a      	ldrb	r2, [r7, #0]
1000366e:	2a00      	cmp	r2, #0
10003670:	d144      	bne.n	100036fc <alarm_pool_add_alarm_at+0x190>
10003672:	7039      	strb	r1, [r7, #0]
10003674:	7374      	strb	r4, [r6, #13]
10003676:	7d28      	ldrb	r0, [r5, #20]
10003678:	9a00      	ldr	r2, [sp, #0]
1000367a:	9b01      	ldr	r3, [sp, #4]
1000367c:	f000 fc16 	bl	10003eac <hardware_alarm_set_target>
10003680:	4682      	mov	sl, r0
10003682:	2800      	cmp	r0, #0
10003684:	d0cf      	beq.n	10003626 <alarm_pool_add_alarm_at+0xba>
10003686:	0021      	movs	r1, r4
10003688:	6828      	ldr	r0, [r5, #0]
1000368a:	f000 fdcb 	bl	10004224 <ph_remove_and_free_node>
1000368e:	e7ca      	b.n	10003626 <alarm_pool_add_alarm_at+0xba>
10003690:	465b      	mov	r3, fp
10003692:	2b00      	cmp	r3, #0
10003694:	d030      	beq.n	100036f8 <alarm_pool_add_alarm_at+0x18c>
10003696:	9b0e      	ldr	r3, [sp, #56]	; 0x38
10003698:	990f      	ldr	r1, [sp, #60]	; 0x3c
1000369a:	2000      	movs	r0, #0
1000369c:	4798      	blx	r3
1000369e:	0003      	movs	r3, r0
100036a0:	430b      	orrs	r3, r1
100036a2:	d029      	beq.n	100036f8 <alarm_pool_add_alarm_at+0x18c>
100036a4:	0006      	movs	r6, r0
100036a6:	1e0f      	subs	r7, r1, #0
100036a8:	da15      	bge.n	100036d6 <alarm_pool_add_alarm_at+0x16a>
100036aa:	9800      	ldr	r0, [sp, #0]
100036ac:	9901      	ldr	r1, [sp, #4]
100036ae:	0002      	movs	r2, r0
100036b0:	000b      	movs	r3, r1
100036b2:	1b92      	subs	r2, r2, r6
100036b4:	41bb      	sbcs	r3, r7
100036b6:	4299      	cmp	r1, r3
100036b8:	d802      	bhi.n	100036c0 <alarm_pool_add_alarm_at+0x154>
100036ba:	d108      	bne.n	100036ce <alarm_pool_add_alarm_at+0x162>
100036bc:	4290      	cmp	r0, r2
100036be:	d906      	bls.n	100036ce <alarm_pool_add_alarm_at+0x162>
100036c0:	2301      	movs	r3, #1
100036c2:	425b      	negs	r3, r3
100036c4:	17dc      	asrs	r4, r3, #31
100036c6:	9300      	str	r3, [sp, #0]
100036c8:	9401      	str	r4, [sp, #4]
100036ca:	46da      	mov	sl, fp
100036cc:	e75e      	b.n	1000358c <alarm_pool_add_alarm_at+0x20>
100036ce:	9200      	str	r2, [sp, #0]
100036d0:	9301      	str	r3, [sp, #4]
100036d2:	46da      	mov	sl, fp
100036d4:	e75a      	b.n	1000358c <alarm_pool_add_alarm_at+0x20>
100036d6:	f000 fb87 	bl	10003de8 <time_us_64>
100036da:	1836      	adds	r6, r6, r0
100036dc:	414f      	adcs	r7, r1
100036de:	9600      	str	r6, [sp, #0]
100036e0:	9701      	str	r7, [sp, #4]
100036e2:	42b9      	cmp	r1, r7
100036e4:	d8ec      	bhi.n	100036c0 <alarm_pool_add_alarm_at+0x154>
100036e6:	d1f0      	bne.n	100036ca <alarm_pool_add_alarm_at+0x15e>
100036e8:	42b0      	cmp	r0, r6
100036ea:	d9ee      	bls.n	100036ca <alarm_pool_add_alarm_at+0x15e>
100036ec:	2301      	movs	r3, #1
100036ee:	425b      	negs	r3, r3
100036f0:	17dc      	asrs	r4, r3, #31
100036f2:	9300      	str	r3, [sp, #0]
100036f4:	9401      	str	r4, [sp, #4]
100036f6:	e7e8      	b.n	100036ca <alarm_pool_add_alarm_at+0x15e>
100036f8:	2000      	movs	r0, #0
100036fa:	e7ad      	b.n	10003658 <alarm_pool_add_alarm_at+0xec>
100036fc:	705a      	strb	r2, [r3, #1]
100036fe:	9b03      	ldr	r3, [sp, #12]
10003700:	703b      	strb	r3, [r7, #0]
10003702:	e7b7      	b.n	10003674 <alarm_pool_add_alarm_at+0x108>
10003704:	707a      	strb	r2, [r7, #1]
10003706:	701c      	strb	r4, [r3, #0]
10003708:	9b03      	ldr	r3, [sp, #12]
1000370a:	7373      	strb	r3, [r6, #13]
1000370c:	429c      	cmp	r4, r3
1000370e:	d000      	beq.n	10003712 <alarm_pool_add_alarm_at+0x1a6>
10003710:	e789      	b.n	10003626 <alarm_pool_add_alarm_at+0xba>
10003712:	e7b0      	b.n	10003676 <alarm_pool_add_alarm_at+0x10a>
10003714:	0fffffff 	.word	0x0fffffff

10003718 <alarm_pool_add_repeating_timer_us>:
10003718:	b5f0      	push	{r4, r5, r6, r7, lr}
1000371a:	4645      	mov	r5, r8
1000371c:	46de      	mov	lr, fp
1000371e:	4657      	mov	r7, sl
10003720:	464e      	mov	r6, r9
10003722:	b5e0      	push	{r5, r6, r7, lr}
10003724:	b085      	sub	sp, #20
10003726:	9910      	ldr	r1, [sp, #64]	; 0x40
10003728:	0005      	movs	r5, r0
1000372a:	4688      	mov	r8, r1
1000372c:	0011      	movs	r1, r2
1000372e:	4319      	orrs	r1, r3
10003730:	d100      	bne.n	10003734 <alarm_pool_add_repeating_timer_us+0x1c>
10003732:	e0cf      	b.n	100038d4 <alarm_pool_add_repeating_timer_us+0x1bc>
10003734:	17d8      	asrs	r0, r3, #31
10003736:	0004      	movs	r4, r0
10003738:	4054      	eors	r4, r2
1000373a:	0026      	movs	r6, r4
1000373c:	0004      	movs	r4, r0
1000373e:	405c      	eors	r4, r3
10003740:	0001      	movs	r1, r0
10003742:	0027      	movs	r7, r4
10003744:	1a36      	subs	r6, r6, r0
10003746:	418f      	sbcs	r7, r1
10003748:	4641      	mov	r1, r8
1000374a:	980e      	ldr	r0, [sp, #56]	; 0x38
1000374c:	600a      	str	r2, [r1, #0]
1000374e:	9a0f      	ldr	r2, [sp, #60]	; 0x3c
10003750:	608d      	str	r5, [r1, #8]
10003752:	6108      	str	r0, [r1, #16]
10003754:	604b      	str	r3, [r1, #4]
10003756:	614a      	str	r2, [r1, #20]
10003758:	f000 fb46 	bl	10003de8 <time_us_64>
1000375c:	1836      	adds	r6, r6, r0
1000375e:	414f      	adcs	r7, r1
10003760:	9600      	str	r6, [sp, #0]
10003762:	9701      	str	r7, [sp, #4]
10003764:	42b9      	cmp	r1, r7
10003766:	d800      	bhi.n	1000376a <alarm_pool_add_repeating_timer_us+0x52>
10003768:	e0b9      	b.n	100038de <alarm_pool_add_repeating_timer_us+0x1c6>
1000376a:	2301      	movs	r3, #1
1000376c:	425b      	negs	r3, r3
1000376e:	17dc      	asrs	r4, r3, #31
10003770:	9300      	str	r3, [sp, #0]
10003772:	9401      	str	r4, [sp, #4]
10003774:	2300      	movs	r3, #0
10003776:	469b      	mov	fp, r3
10003778:	4699      	mov	r9, r3
1000377a:	686a      	ldr	r2, [r5, #4]
1000377c:	f3ef 8a10 	mrs	sl, PRIMASK
10003780:	b672      	cpsid	i
10003782:	6813      	ldr	r3, [r2, #0]
10003784:	2b00      	cmp	r3, #0
10003786:	d0fc      	beq.n	10003782 <alarm_pool_add_repeating_timer_us+0x6a>
10003788:	f3bf 8f5f 	dmb	sy
1000378c:	682e      	ldr	r6, [r5, #0]
1000378e:	7bb4      	ldrb	r4, [r6, #14]
10003790:	2c00      	cmp	r4, #0
10003792:	d051      	beq.n	10003838 <alarm_pool_add_repeating_timer_us+0x120>
10003794:	0067      	lsls	r7, r4, #1
10003796:	193f      	adds	r7, r7, r4
10003798:	6833      	ldr	r3, [r6, #0]
1000379a:	3f03      	subs	r7, #3
1000379c:	19db      	adds	r3, r3, r7
1000379e:	785a      	ldrb	r2, [r3, #1]
100037a0:	73b2      	strb	r2, [r6, #14]
100037a2:	2a00      	cmp	r2, #0
100037a4:	d100      	bne.n	100037a8 <alarm_pool_add_repeating_timer_us+0x90>
100037a6:	73f2      	strb	r2, [r6, #15]
100037a8:	464a      	mov	r2, r9
100037aa:	709a      	strb	r2, [r3, #2]
100037ac:	705a      	strb	r2, [r3, #1]
100037ae:	701a      	strb	r2, [r3, #0]
100037b0:	68aa      	ldr	r2, [r5, #8]
100037b2:	4b57      	ldr	r3, [pc, #348]	; (10003910 <alarm_pool_add_repeating_timer_us+0x1f8>)
100037b4:	4694      	mov	ip, r2
100037b6:	9900      	ldr	r1, [sp, #0]
100037b8:	9a01      	ldr	r2, [sp, #4]
100037ba:	18e3      	adds	r3, r4, r3
100037bc:	011b      	lsls	r3, r3, #4
100037be:	4463      	add	r3, ip
100037c0:	6019      	str	r1, [r3, #0]
100037c2:	605a      	str	r2, [r3, #4]
100037c4:	4a53      	ldr	r2, [pc, #332]	; (10003914 <alarm_pool_add_repeating_timer_us+0x1fc>)
100037c6:	609a      	str	r2, [r3, #8]
100037c8:	4642      	mov	r2, r8
100037ca:	60da      	str	r2, [r3, #12]
100037cc:	464a      	mov	r2, r9
100037ce:	6833      	ldr	r3, [r6, #0]
100037d0:	19db      	adds	r3, r3, r7
100037d2:	709a      	strb	r2, [r3, #2]
100037d4:	705a      	strb	r2, [r3, #1]
100037d6:	701a      	strb	r2, [r3, #0]
100037d8:	7b73      	ldrb	r3, [r6, #13]
100037da:	9303      	str	r3, [sp, #12]
100037dc:	2b00      	cmp	r3, #0
100037de:	d047      	beq.n	10003870 <alarm_pool_add_repeating_timer_us+0x158>
100037e0:	0019      	movs	r1, r3
100037e2:	6873      	ldr	r3, [r6, #4]
100037e4:	0022      	movs	r2, r4
100037e6:	469c      	mov	ip, r3
100037e8:	68b0      	ldr	r0, [r6, #8]
100037ea:	47e0      	blx	ip
100037ec:	9903      	ldr	r1, [sp, #12]
100037ee:	6832      	ldr	r2, [r6, #0]
100037f0:	468c      	mov	ip, r1
100037f2:	004b      	lsls	r3, r1, #1
100037f4:	4463      	add	r3, ip
100037f6:	3b03      	subs	r3, #3
100037f8:	2800      	cmp	r0, #0
100037fa:	d030      	beq.n	1000385e <alarm_pool_add_repeating_timer_us+0x146>
100037fc:	19d7      	adds	r7, r2, r7
100037fe:	18d3      	adds	r3, r2, r3
10003800:	70b9      	strb	r1, [r7, #2]
10003802:	781a      	ldrb	r2, [r3, #0]
10003804:	2a00      	cmp	r2, #0
10003806:	d000      	beq.n	1000380a <alarm_pool_add_repeating_timer_us+0xf2>
10003808:	707a      	strb	r2, [r7, #1]
1000380a:	701c      	strb	r4, [r3, #0]
1000380c:	9b03      	ldr	r3, [sp, #12]
1000380e:	7373      	strb	r3, [r6, #13]
10003810:	465e      	mov	r6, fp
10003812:	429c      	cmp	r4, r3
10003814:	d02d      	beq.n	10003872 <alarm_pool_add_repeating_timer_us+0x15a>
10003816:	68eb      	ldr	r3, [r5, #12]
10003818:	686a      	ldr	r2, [r5, #4]
1000381a:	191b      	adds	r3, r3, r4
1000381c:	3b01      	subs	r3, #1
1000381e:	781b      	ldrb	r3, [r3, #0]
10003820:	f3bf 8f5f 	dmb	sy
10003824:	4649      	mov	r1, r9
10003826:	6011      	str	r1, [r2, #0]
10003828:	f38a 8810 	msr	PRIMASK, sl
1000382c:	2e00      	cmp	r6, #0
1000382e:	d12c      	bne.n	1000388a <alarm_pool_add_repeating_timer_us+0x172>
10003830:	021b      	lsls	r3, r3, #8
10003832:	431c      	orrs	r4, r3
10003834:	2601      	movs	r6, #1
10003836:	e008      	b.n	1000384a <alarm_pool_add_repeating_timer_us+0x132>
10003838:	686b      	ldr	r3, [r5, #4]
1000383a:	f3bf 8f5f 	dmb	sy
1000383e:	601c      	str	r4, [r3, #0]
10003840:	f38a 8810 	msr	PRIMASK, sl
10003844:	2401      	movs	r4, #1
10003846:	2600      	movs	r6, #0
10003848:	4264      	negs	r4, r4
1000384a:	4643      	mov	r3, r8
1000384c:	0030      	movs	r0, r6
1000384e:	60dc      	str	r4, [r3, #12]
10003850:	b005      	add	sp, #20
10003852:	bc3c      	pop	{r2, r3, r4, r5}
10003854:	4690      	mov	r8, r2
10003856:	4699      	mov	r9, r3
10003858:	46a2      	mov	sl, r4
1000385a:	46ab      	mov	fp, r5
1000385c:	bdf0      	pop	{r4, r5, r6, r7, pc}
1000385e:	18d3      	adds	r3, r2, r3
10003860:	19d7      	adds	r7, r2, r7
10003862:	709c      	strb	r4, [r3, #2]
10003864:	783a      	ldrb	r2, [r7, #0]
10003866:	2a00      	cmp	r2, #0
10003868:	d040      	beq.n	100038ec <alarm_pool_add_repeating_timer_us+0x1d4>
1000386a:	705a      	strb	r2, [r3, #1]
1000386c:	9b03      	ldr	r3, [sp, #12]
1000386e:	703b      	strb	r3, [r7, #0]
10003870:	7374      	strb	r4, [r6, #13]
10003872:	7d28      	ldrb	r0, [r5, #20]
10003874:	9a00      	ldr	r2, [sp, #0]
10003876:	9b01      	ldr	r3, [sp, #4]
10003878:	f000 fb18 	bl	10003eac <hardware_alarm_set_target>
1000387c:	1e06      	subs	r6, r0, #0
1000387e:	d0ca      	beq.n	10003816 <alarm_pool_add_repeating_timer_us+0xfe>
10003880:	0021      	movs	r1, r4
10003882:	6828      	ldr	r0, [r5, #0]
10003884:	f000 fcce 	bl	10004224 <ph_remove_and_free_node>
10003888:	e7c5      	b.n	10003816 <alarm_pool_add_repeating_timer_us+0xfe>
1000388a:	4640      	mov	r0, r8
1000388c:	6903      	ldr	r3, [r0, #16]
1000388e:	4798      	blx	r3
10003890:	4683      	mov	fp, r0
10003892:	1e01      	subs	r1, r0, #0
10003894:	d101      	bne.n	1000389a <alarm_pool_add_repeating_timer_us+0x182>
10003896:	2400      	movs	r4, #0
10003898:	e7d7      	b.n	1000384a <alarm_pool_add_repeating_timer_us+0x132>
1000389a:	4643      	mov	r3, r8
1000389c:	681a      	ldr	r2, [r3, #0]
1000389e:	685b      	ldr	r3, [r3, #4]
100038a0:	0010      	movs	r0, r2
100038a2:	4318      	orrs	r0, r3
100038a4:	d024      	beq.n	100038f0 <alarm_pool_add_repeating_timer_us+0x1d8>
100038a6:	0016      	movs	r6, r2
100038a8:	1e1f      	subs	r7, r3, #0
100038aa:	da24      	bge.n	100038f6 <alarm_pool_add_repeating_timer_us+0x1de>
100038ac:	9800      	ldr	r0, [sp, #0]
100038ae:	9901      	ldr	r1, [sp, #4]
100038b0:	0002      	movs	r2, r0
100038b2:	000b      	movs	r3, r1
100038b4:	1b92      	subs	r2, r2, r6
100038b6:	41bb      	sbcs	r3, r7
100038b8:	4299      	cmp	r1, r3
100038ba:	d802      	bhi.n	100038c2 <alarm_pool_add_repeating_timer_us+0x1aa>
100038bc:	d107      	bne.n	100038ce <alarm_pool_add_repeating_timer_us+0x1b6>
100038be:	4290      	cmp	r0, r2
100038c0:	d905      	bls.n	100038ce <alarm_pool_add_repeating_timer_us+0x1b6>
100038c2:	2301      	movs	r3, #1
100038c4:	425b      	negs	r3, r3
100038c6:	17dc      	asrs	r4, r3, #31
100038c8:	9300      	str	r3, [sp, #0]
100038ca:	9401      	str	r4, [sp, #4]
100038cc:	e755      	b.n	1000377a <alarm_pool_add_repeating_timer_us+0x62>
100038ce:	9200      	str	r2, [sp, #0]
100038d0:	9301      	str	r3, [sp, #4]
100038d2:	e752      	b.n	1000377a <alarm_pool_add_repeating_timer_us+0x62>
100038d4:	2601      	movs	r6, #1
100038d6:	2700      	movs	r7, #0
100038d8:	2201      	movs	r2, #1
100038da:	2300      	movs	r3, #0
100038dc:	e734      	b.n	10003748 <alarm_pool_add_repeating_timer_us+0x30>
100038de:	42b9      	cmp	r1, r7
100038e0:	d000      	beq.n	100038e4 <alarm_pool_add_repeating_timer_us+0x1cc>
100038e2:	e747      	b.n	10003774 <alarm_pool_add_repeating_timer_us+0x5c>
100038e4:	42b0      	cmp	r0, r6
100038e6:	d900      	bls.n	100038ea <alarm_pool_add_repeating_timer_us+0x1d2>
100038e8:	e73f      	b.n	1000376a <alarm_pool_add_repeating_timer_us+0x52>
100038ea:	e743      	b.n	10003774 <alarm_pool_add_repeating_timer_us+0x5c>
100038ec:	7039      	strb	r1, [r7, #0]
100038ee:	e7bf      	b.n	10003870 <alarm_pool_add_repeating_timer_us+0x158>
100038f0:	000e      	movs	r6, r1
100038f2:	2400      	movs	r4, #0
100038f4:	e7a9      	b.n	1000384a <alarm_pool_add_repeating_timer_us+0x132>
100038f6:	f000 fa77 	bl	10003de8 <time_us_64>
100038fa:	1836      	adds	r6, r6, r0
100038fc:	414f      	adcs	r7, r1
100038fe:	9600      	str	r6, [sp, #0]
10003900:	9701      	str	r7, [sp, #4]
10003902:	42b9      	cmp	r1, r7
10003904:	d8dd      	bhi.n	100038c2 <alarm_pool_add_repeating_timer_us+0x1aa>
10003906:	d000      	beq.n	1000390a <alarm_pool_add_repeating_timer_us+0x1f2>
10003908:	e737      	b.n	1000377a <alarm_pool_add_repeating_timer_us+0x62>
1000390a:	42b0      	cmp	r0, r6
1000390c:	d8d9      	bhi.n	100038c2 <alarm_pool_add_repeating_timer_us+0x1aa>
1000390e:	e734      	b.n	1000377a <alarm_pool_add_repeating_timer_us+0x62>
10003910:	0fffffff 	.word	0x0fffffff
10003914:	100031b9 	.word	0x100031b9

10003918 <sleep_until>:
10003918:	b5f0      	push	{r4, r5, r6, r7, lr}
1000391a:	4657      	mov	r7, sl
1000391c:	464e      	mov	r6, r9
1000391e:	4645      	mov	r5, r8
10003920:	46de      	mov	lr, fp
10003922:	0004      	movs	r4, r0
10003924:	b5e0      	push	{r5, r6, r7, lr}
10003926:	000d      	movs	r5, r1
10003928:	2606      	movs	r6, #6
1000392a:	4276      	negs	r6, r6
1000392c:	17f7      	asrs	r7, r6, #31
1000392e:	1936      	adds	r6, r6, r4
10003930:	416f      	adcs	r7, r5
10003932:	b085      	sub	sp, #20
10003934:	428f      	cmp	r7, r1
10003936:	d900      	bls.n	1000393a <sleep_until+0x22>
10003938:	e087      	b.n	10003a4a <sleep_until+0x132>
1000393a:	d100      	bne.n	1000393e <sleep_until+0x26>
1000393c:	e082      	b.n	10003a44 <sleep_until+0x12c>
1000393e:	f000 fa53 	bl	10003de8 <time_us_64>
10003942:	0032      	movs	r2, r6
10003944:	003b      	movs	r3, r7
10003946:	1a12      	subs	r2, r2, r0
10003948:	418b      	sbcs	r3, r1
1000394a:	2b00      	cmp	r3, #0
1000394c:	dc00      	bgt.n	10003950 <sleep_until+0x38>
1000394e:	e087      	b.n	10003a60 <sleep_until+0x148>
10003950:	4b67      	ldr	r3, [pc, #412]	; (10003af0 <sleep_until+0x1d8>)
10003952:	4699      	mov	r9, r3
10003954:	685a      	ldr	r2, [r3, #4]
10003956:	f3ef 8b10 	mrs	fp, PRIMASK
1000395a:	b672      	cpsid	i
1000395c:	6813      	ldr	r3, [r2, #0]
1000395e:	2b00      	cmp	r3, #0
10003960:	d0fc      	beq.n	1000395c <sleep_until+0x44>
10003962:	f3bf 8f5f 	dmb	sy
10003966:	464b      	mov	r3, r9
10003968:	681b      	ldr	r3, [r3, #0]
1000396a:	4698      	mov	r8, r3
1000396c:	7b9b      	ldrb	r3, [r3, #14]
1000396e:	469a      	mov	sl, r3
10003970:	2b00      	cmp	r3, #0
10003972:	d07b      	beq.n	10003a6c <sleep_until+0x154>
10003974:	005b      	lsls	r3, r3, #1
10003976:	4453      	add	r3, sl
10003978:	4642      	mov	r2, r8
1000397a:	3b03      	subs	r3, #3
1000397c:	469c      	mov	ip, r3
1000397e:	4641      	mov	r1, r8
10003980:	6812      	ldr	r2, [r2, #0]
10003982:	9300      	str	r3, [sp, #0]
10003984:	4462      	add	r2, ip
10003986:	7853      	ldrb	r3, [r2, #1]
10003988:	738b      	strb	r3, [r1, #14]
1000398a:	2b00      	cmp	r3, #0
1000398c:	d100      	bne.n	10003990 <sleep_until+0x78>
1000398e:	73cb      	strb	r3, [r1, #15]
10003990:	2300      	movs	r3, #0
10003992:	4649      	mov	r1, r9
10003994:	7093      	strb	r3, [r2, #2]
10003996:	7053      	strb	r3, [r2, #1]
10003998:	7013      	strb	r3, [r2, #0]
1000399a:	6889      	ldr	r1, [r1, #8]
1000399c:	4a55      	ldr	r2, [pc, #340]	; (10003af4 <sleep_until+0x1dc>)
1000399e:	468c      	mov	ip, r1
100039a0:	4452      	add	r2, sl
100039a2:	4955      	ldr	r1, [pc, #340]	; (10003af8 <sleep_until+0x1e0>)
100039a4:	0112      	lsls	r2, r2, #4
100039a6:	4462      	add	r2, ip
100039a8:	6016      	str	r6, [r2, #0]
100039aa:	6057      	str	r7, [r2, #4]
100039ac:	6091      	str	r1, [r2, #8]
100039ae:	60d3      	str	r3, [r2, #12]
100039b0:	9900      	ldr	r1, [sp, #0]
100039b2:	4642      	mov	r2, r8
100039b4:	468c      	mov	ip, r1
100039b6:	6812      	ldr	r2, [r2, #0]
100039b8:	4462      	add	r2, ip
100039ba:	7093      	strb	r3, [r2, #2]
100039bc:	7053      	strb	r3, [r2, #1]
100039be:	7013      	strb	r3, [r2, #0]
100039c0:	4643      	mov	r3, r8
100039c2:	7b5b      	ldrb	r3, [r3, #13]
100039c4:	9303      	str	r3, [sp, #12]
100039c6:	2b00      	cmp	r3, #0
100039c8:	d100      	bne.n	100039cc <sleep_until+0xb4>
100039ca:	e06f      	b.n	10003aac <sleep_until+0x194>
100039cc:	0019      	movs	r1, r3
100039ce:	4640      	mov	r0, r8
100039d0:	4643      	mov	r3, r8
100039d2:	4652      	mov	r2, sl
100039d4:	685b      	ldr	r3, [r3, #4]
100039d6:	6880      	ldr	r0, [r0, #8]
100039d8:	4798      	blx	r3
100039da:	9b03      	ldr	r3, [sp, #12]
100039dc:	469c      	mov	ip, r3
100039de:	005a      	lsls	r2, r3, #1
100039e0:	4462      	add	r2, ip
100039e2:	3a03      	subs	r2, #3
100039e4:	2800      	cmp	r0, #0
100039e6:	d054      	beq.n	10003a92 <sleep_until+0x17a>
100039e8:	9900      	ldr	r1, [sp, #0]
100039ea:	4640      	mov	r0, r8
100039ec:	468c      	mov	ip, r1
100039ee:	6803      	ldr	r3, [r0, #0]
100039f0:	9903      	ldr	r1, [sp, #12]
100039f2:	189a      	adds	r2, r3, r2
100039f4:	4463      	add	r3, ip
100039f6:	7099      	strb	r1, [r3, #2]
100039f8:	7811      	ldrb	r1, [r2, #0]
100039fa:	2900      	cmp	r1, #0
100039fc:	d000      	beq.n	10003a00 <sleep_until+0xe8>
100039fe:	7059      	strb	r1, [r3, #1]
10003a00:	4653      	mov	r3, sl
10003a02:	7013      	strb	r3, [r2, #0]
10003a04:	4642      	mov	r2, r8
10003a06:	9b03      	ldr	r3, [sp, #12]
10003a08:	7353      	strb	r3, [r2, #13]
10003a0a:	459a      	cmp	sl, r3
10003a0c:	d051      	beq.n	10003ab2 <sleep_until+0x19a>
10003a0e:	464b      	mov	r3, r9
10003a10:	685b      	ldr	r3, [r3, #4]
10003a12:	f3bf 8f5f 	dmb	sy
10003a16:	2200      	movs	r2, #0
10003a18:	601a      	str	r2, [r3, #0]
10003a1a:	f38b 8810 	msr	PRIMASK, fp
10003a1e:	46bc      	mov	ip, r7
10003a20:	46b0      	mov	r8, r6
10003a22:	9400      	str	r4, [sp, #0]
10003a24:	9501      	str	r5, [sp, #4]
10003a26:	2600      	movs	r6, #0
10003a28:	4665      	mov	r5, ip
10003a2a:	4f34      	ldr	r7, [pc, #208]	; (10003afc <sleep_until+0x1e4>)
10003a2c:	4a34      	ldr	r2, [pc, #208]	; (10003b00 <sleep_until+0x1e8>)
10003a2e:	6a7b      	ldr	r3, [r7, #36]	; 0x24
10003a30:	429d      	cmp	r5, r3
10003a32:	d84c      	bhi.n	10003ace <sleep_until+0x1b6>
10003a34:	6ab9      	ldr	r1, [r7, #40]	; 0x28
10003a36:	4541      	cmp	r1, r8
10003a38:	d201      	bcs.n	10003a3e <sleep_until+0x126>
10003a3a:	429d      	cmp	r5, r3
10003a3c:	d047      	beq.n	10003ace <sleep_until+0x1b6>
10003a3e:	9c00      	ldr	r4, [sp, #0]
10003a40:	9d01      	ldr	r5, [sp, #4]
10003a42:	e01b      	b.n	10003a7c <sleep_until+0x164>
10003a44:	4286      	cmp	r6, r0
10003a46:	d800      	bhi.n	10003a4a <sleep_until+0x132>
10003a48:	e779      	b.n	1000393e <sleep_until+0x26>
10003a4a:	2600      	movs	r6, #0
10003a4c:	2700      	movs	r7, #0
10003a4e:	f000 f9cb 	bl	10003de8 <time_us_64>
10003a52:	0032      	movs	r2, r6
10003a54:	003b      	movs	r3, r7
10003a56:	1a12      	subs	r2, r2, r0
10003a58:	418b      	sbcs	r3, r1
10003a5a:	2b00      	cmp	r3, #0
10003a5c:	dd00      	ble.n	10003a60 <sleep_until+0x148>
10003a5e:	e777      	b.n	10003950 <sleep_until+0x38>
10003a60:	2b00      	cmp	r3, #0
10003a62:	d10b      	bne.n	10003a7c <sleep_until+0x164>
10003a64:	2a00      	cmp	r2, #0
10003a66:	d000      	beq.n	10003a6a <sleep_until+0x152>
10003a68:	e772      	b.n	10003950 <sleep_until+0x38>
10003a6a:	e007      	b.n	10003a7c <sleep_until+0x164>
10003a6c:	464b      	mov	r3, r9
10003a6e:	685b      	ldr	r3, [r3, #4]
10003a70:	f3bf 8f5f 	dmb	sy
10003a74:	4652      	mov	r2, sl
10003a76:	601a      	str	r2, [r3, #0]
10003a78:	f38b 8810 	msr	PRIMASK, fp
10003a7c:	0020      	movs	r0, r4
10003a7e:	0029      	movs	r1, r5
10003a80:	f000 f9be 	bl	10003e00 <busy_wait_until>
10003a84:	b005      	add	sp, #20
10003a86:	bc3c      	pop	{r2, r3, r4, r5}
10003a88:	4690      	mov	r8, r2
10003a8a:	4699      	mov	r9, r3
10003a8c:	46a2      	mov	sl, r4
10003a8e:	46ab      	mov	fp, r5
10003a90:	bdf0      	pop	{r4, r5, r6, r7, pc}
10003a92:	4643      	mov	r3, r8
10003a94:	6819      	ldr	r1, [r3, #0]
10003a96:	9b00      	ldr	r3, [sp, #0]
10003a98:	188a      	adds	r2, r1, r2
10003a9a:	18cb      	adds	r3, r1, r3
10003a9c:	4651      	mov	r1, sl
10003a9e:	7091      	strb	r1, [r2, #2]
10003aa0:	7819      	ldrb	r1, [r3, #0]
10003aa2:	2900      	cmp	r1, #0
10003aa4:	d000      	beq.n	10003aa8 <sleep_until+0x190>
10003aa6:	7051      	strb	r1, [r2, #1]
10003aa8:	9a03      	ldr	r2, [sp, #12]
10003aaa:	701a      	strb	r2, [r3, #0]
10003aac:	4643      	mov	r3, r8
10003aae:	4652      	mov	r2, sl
10003ab0:	735a      	strb	r2, [r3, #13]
10003ab2:	464b      	mov	r3, r9
10003ab4:	0032      	movs	r2, r6
10003ab6:	7d18      	ldrb	r0, [r3, #20]
10003ab8:	003b      	movs	r3, r7
10003aba:	f000 f9f7 	bl	10003eac <hardware_alarm_set_target>
10003abe:	2800      	cmp	r0, #0
10003ac0:	d0a5      	beq.n	10003a0e <sleep_until+0xf6>
10003ac2:	464b      	mov	r3, r9
10003ac4:	4651      	mov	r1, sl
10003ac6:	6818      	ldr	r0, [r3, #0]
10003ac8:	f000 fbac 	bl	10004224 <ph_remove_and_free_node>
10003acc:	e79f      	b.n	10003a0e <sleep_until+0xf6>
10003ace:	6811      	ldr	r1, [r2, #0]
10003ad0:	f3ef 8010 	mrs	r0, PRIMASK
10003ad4:	b672      	cpsid	i
10003ad6:	680b      	ldr	r3, [r1, #0]
10003ad8:	2b00      	cmp	r3, #0
10003ada:	d0fc      	beq.n	10003ad6 <sleep_until+0x1be>
10003adc:	f3bf 8f5f 	dmb	sy
10003ae0:	6813      	ldr	r3, [r2, #0]
10003ae2:	f3bf 8f5f 	dmb	sy
10003ae6:	601e      	str	r6, [r3, #0]
10003ae8:	f380 8810 	msr	PRIMASK, r0
10003aec:	bf20      	wfe
10003aee:	e79e      	b.n	10003a2e <sleep_until+0x116>
10003af0:	2000057c 	.word	0x2000057c
10003af4:	0fffffff 	.word	0x0fffffff
10003af8:	100031d5 	.word	0x100031d5
10003afc:	40054000 	.word	0x40054000
10003b00:	20001658 	.word	0x20001658

10003b04 <sleep_us>:
10003b04:	b570      	push	{r4, r5, r6, lr}
10003b06:	0004      	movs	r4, r0
10003b08:	000d      	movs	r5, r1
10003b0a:	f000 f96d 	bl	10003de8 <time_us_64>
10003b0e:	0002      	movs	r2, r0
10003b10:	000b      	movs	r3, r1
10003b12:	0020      	movs	r0, r4
10003b14:	0029      	movs	r1, r5
10003b16:	1880      	adds	r0, r0, r2
10003b18:	4159      	adcs	r1, r3
10003b1a:	428b      	cmp	r3, r1
10003b1c:	d905      	bls.n	10003b2a <sleep_us+0x26>
10003b1e:	2001      	movs	r0, #1
10003b20:	4240      	negs	r0, r0
10003b22:	17c1      	asrs	r1, r0, #31
10003b24:	f7ff fef8 	bl	10003918 <sleep_until>
10003b28:	bd70      	pop	{r4, r5, r6, pc}
10003b2a:	428b      	cmp	r3, r1
10003b2c:	d1fa      	bne.n	10003b24 <sleep_us+0x20>
10003b2e:	4282      	cmp	r2, r0
10003b30:	d8f5      	bhi.n	10003b1e <sleep_us+0x1a>
10003b32:	e7f7      	b.n	10003b24 <sleep_us+0x20>

10003b34 <sleep_ms>:
10003b34:	b570      	push	{r4, r5, r6, lr}
10003b36:	0006      	movs	r6, r0
10003b38:	f000 f956 	bl	10003de8 <time_us_64>
10003b3c:	22fa      	movs	r2, #250	; 0xfa
10003b3e:	0004      	movs	r4, r0
10003b40:	000d      	movs	r5, r1
10003b42:	0092      	lsls	r2, r2, #2
10003b44:	2300      	movs	r3, #0
10003b46:	0030      	movs	r0, r6
10003b48:	2100      	movs	r1, #0
10003b4a:	f001 f953 	bl	10004df4 <__wrap___aeabi_lmul>
10003b4e:	1900      	adds	r0, r0, r4
10003b50:	4169      	adcs	r1, r5
10003b52:	428d      	cmp	r5, r1
10003b54:	d905      	bls.n	10003b62 <sleep_ms+0x2e>
10003b56:	2001      	movs	r0, #1
10003b58:	4240      	negs	r0, r0
10003b5a:	17c1      	asrs	r1, r0, #31
10003b5c:	f7ff fedc 	bl	10003918 <sleep_until>
10003b60:	bd70      	pop	{r4, r5, r6, pc}
10003b62:	428d      	cmp	r5, r1
10003b64:	d1fa      	bne.n	10003b5c <sleep_ms+0x28>
10003b66:	4284      	cmp	r4, r0
10003b68:	d8f5      	bhi.n	10003b56 <sleep_ms+0x22>
10003b6a:	e7f7      	b.n	10003b5c <sleep_ms+0x28>

10003b6c <best_effort_wfe_or_timeout>:
10003b6c:	b5f8      	push	{r3, r4, r5, r6, r7, lr}
10003b6e:	4657      	mov	r7, sl
10003b70:	464e      	mov	r6, r9
10003b72:	46de      	mov	lr, fp
10003b74:	4645      	mov	r5, r8
10003b76:	4c66      	ldr	r4, [pc, #408]	; (10003d10 <best_effort_wfe_or_timeout+0x1a4>)
10003b78:	b5e0      	push	{r5, r6, r7, lr}
10003b7a:	4681      	mov	r9, r0
10003b7c:	000f      	movs	r7, r1
10003b7e:	6862      	ldr	r2, [r4, #4]
10003b80:	f3ef 8810 	mrs	r8, PRIMASK
10003b84:	b672      	cpsid	i
10003b86:	6813      	ldr	r3, [r2, #0]
10003b88:	2b00      	cmp	r3, #0
10003b8a:	d0fc      	beq.n	10003b86 <best_effort_wfe_or_timeout+0x1a>
10003b8c:	f3bf 8f5f 	dmb	sy
10003b90:	6826      	ldr	r6, [r4, #0]
10003b92:	7bb5      	ldrb	r5, [r6, #14]
10003b94:	2d00      	cmp	r5, #0
10003b96:	d100      	bne.n	10003b9a <best_effort_wfe_or_timeout+0x2e>
10003b98:	e09f      	b.n	10003cda <best_effort_wfe_or_timeout+0x16e>
10003b9a:	006b      	lsls	r3, r5, #1
10003b9c:	195b      	adds	r3, r3, r5
10003b9e:	3b03      	subs	r3, #3
10003ba0:	469a      	mov	sl, r3
10003ba2:	6833      	ldr	r3, [r6, #0]
10003ba4:	4453      	add	r3, sl
10003ba6:	001a      	movs	r2, r3
10003ba8:	785b      	ldrb	r3, [r3, #1]
10003baa:	73b3      	strb	r3, [r6, #14]
10003bac:	2b00      	cmp	r3, #0
10003bae:	d100      	bne.n	10003bb2 <best_effort_wfe_or_timeout+0x46>
10003bb0:	73f3      	strb	r3, [r6, #15]
10003bb2:	2300      	movs	r3, #0
10003bb4:	7093      	strb	r3, [r2, #2]
10003bb6:	7053      	strb	r3, [r2, #1]
10003bb8:	7013      	strb	r3, [r2, #0]
10003bba:	68a1      	ldr	r1, [r4, #8]
10003bbc:	4a55      	ldr	r2, [pc, #340]	; (10003d14 <best_effort_wfe_or_timeout+0x1a8>)
10003bbe:	468c      	mov	ip, r1
10003bc0:	4649      	mov	r1, r9
10003bc2:	18aa      	adds	r2, r5, r2
10003bc4:	0112      	lsls	r2, r2, #4
10003bc6:	4462      	add	r2, ip
10003bc8:	6011      	str	r1, [r2, #0]
10003bca:	4953      	ldr	r1, [pc, #332]	; (10003d18 <best_effort_wfe_or_timeout+0x1ac>)
10003bcc:	60d3      	str	r3, [r2, #12]
10003bce:	6057      	str	r7, [r2, #4]
10003bd0:	6091      	str	r1, [r2, #8]
10003bd2:	6832      	ldr	r2, [r6, #0]
10003bd4:	4452      	add	r2, sl
10003bd6:	7093      	strb	r3, [r2, #2]
10003bd8:	7053      	strb	r3, [r2, #1]
10003bda:	7013      	strb	r3, [r2, #0]
10003bdc:	7b73      	ldrb	r3, [r6, #13]
10003bde:	469b      	mov	fp, r3
10003be0:	2b00      	cmp	r3, #0
10003be2:	d06d      	beq.n	10003cc0 <best_effort_wfe_or_timeout+0x154>
10003be4:	002a      	movs	r2, r5
10003be6:	0019      	movs	r1, r3
10003be8:	68b0      	ldr	r0, [r6, #8]
10003bea:	6873      	ldr	r3, [r6, #4]
10003bec:	4798      	blx	r3
10003bee:	465b      	mov	r3, fp
10003bf0:	005a      	lsls	r2, r3, #1
10003bf2:	445a      	add	r2, fp
10003bf4:	3a03      	subs	r2, #3
10003bf6:	2800      	cmp	r0, #0
10003bf8:	d057      	beq.n	10003caa <best_effort_wfe_or_timeout+0x13e>
10003bfa:	4659      	mov	r1, fp
10003bfc:	6833      	ldr	r3, [r6, #0]
10003bfe:	189a      	adds	r2, r3, r2
10003c00:	4453      	add	r3, sl
10003c02:	7099      	strb	r1, [r3, #2]
10003c04:	7811      	ldrb	r1, [r2, #0]
10003c06:	2900      	cmp	r1, #0
10003c08:	d000      	beq.n	10003c0c <best_effort_wfe_or_timeout+0xa0>
10003c0a:	7059      	strb	r1, [r3, #1]
10003c0c:	465b      	mov	r3, fp
10003c0e:	7015      	strb	r5, [r2, #0]
10003c10:	7373      	strb	r3, [r6, #13]
10003c12:	455d      	cmp	r5, fp
10003c14:	d055      	beq.n	10003cc2 <best_effort_wfe_or_timeout+0x156>
10003c16:	2600      	movs	r6, #0
10003c18:	68e3      	ldr	r3, [r4, #12]
10003c1a:	6862      	ldr	r2, [r4, #4]
10003c1c:	195b      	adds	r3, r3, r5
10003c1e:	3b01      	subs	r3, #1
10003c20:	781b      	ldrb	r3, [r3, #0]
10003c22:	f3bf 8f5f 	dmb	sy
10003c26:	2100      	movs	r1, #0
10003c28:	6011      	str	r1, [r2, #0]
10003c2a:	f388 8810 	msr	PRIMASK, r8
10003c2e:	2e00      	cmp	r6, #0
10003c30:	d159      	bne.n	10003ce6 <best_effort_wfe_or_timeout+0x17a>
10003c32:	021b      	lsls	r3, r3, #8
10003c34:	431d      	orrs	r5, r3
10003c36:	bf20      	wfe
10003c38:	6862      	ldr	r2, [r4, #4]
10003c3a:	f3ef 8810 	mrs	r8, PRIMASK
10003c3e:	b672      	cpsid	i
10003c40:	6813      	ldr	r3, [r2, #0]
10003c42:	2b00      	cmp	r3, #0
10003c44:	d0fc      	beq.n	10003c40 <best_effort_wfe_or_timeout+0xd4>
10003c46:	f3bf 8f5f 	dmb	sy
10003c4a:	23ff      	movs	r3, #255	; 0xff
10003c4c:	6820      	ldr	r0, [r4, #0]
10003c4e:	b2e9      	uxtb	r1, r5
10003c50:	7b42      	ldrb	r2, [r0, #13]
10003c52:	402b      	ands	r3, r5
10003c54:	428a      	cmp	r2, r1
10003c56:	d050      	beq.n	10003cfa <best_effort_wfe_or_timeout+0x18e>
10003c58:	005a      	lsls	r2, r3, #1
10003c5a:	4692      	mov	sl, r2
10003c5c:	6802      	ldr	r2, [r0, #0]
10003c5e:	449a      	add	sl, r3
10003c60:	4694      	mov	ip, r2
10003c62:	4652      	mov	r2, sl
10003c64:	4462      	add	r2, ip
10003c66:	3a03      	subs	r2, #3
10003c68:	7892      	ldrb	r2, [r2, #2]
10003c6a:	2a00      	cmp	r2, #0
10003c6c:	d145      	bne.n	10003cfa <best_effort_wfe_or_timeout+0x18e>
10003c6e:	6923      	ldr	r3, [r4, #16]
10003c70:	429d      	cmp	r5, r3
10003c72:	d100      	bne.n	10003c76 <best_effort_wfe_or_timeout+0x10a>
10003c74:	6122      	str	r2, [r4, #16]
10003c76:	6863      	ldr	r3, [r4, #4]
10003c78:	f3bf 8f5f 	dmb	sy
10003c7c:	2200      	movs	r2, #0
10003c7e:	601a      	str	r2, [r3, #0]
10003c80:	f388 8810 	msr	PRIMASK, r8
10003c84:	4a25      	ldr	r2, [pc, #148]	; (10003d1c <best_effort_wfe_or_timeout+0x1b0>)
10003c86:	6a53      	ldr	r3, [r2, #36]	; 0x24
10003c88:	429f      	cmp	r7, r3
10003c8a:	d807      	bhi.n	10003c9c <best_effort_wfe_or_timeout+0x130>
10003c8c:	6a92      	ldr	r2, [r2, #40]	; 0x28
10003c8e:	2601      	movs	r6, #1
10003c90:	454a      	cmp	r2, r9
10003c92:	d203      	bcs.n	10003c9c <best_effort_wfe_or_timeout+0x130>
10003c94:	1aff      	subs	r7, r7, r3
10003c96:	1e7b      	subs	r3, r7, #1
10003c98:	419f      	sbcs	r7, r3
10003c9a:	b2fe      	uxtb	r6, r7
10003c9c:	0030      	movs	r0, r6
10003c9e:	bc3c      	pop	{r2, r3, r4, r5}
10003ca0:	4690      	mov	r8, r2
10003ca2:	4699      	mov	r9, r3
10003ca4:	46a2      	mov	sl, r4
10003ca6:	46ab      	mov	fp, r5
10003ca8:	bdf8      	pop	{r3, r4, r5, r6, r7, pc}
10003caa:	4653      	mov	r3, sl
10003cac:	6831      	ldr	r1, [r6, #0]
10003cae:	188a      	adds	r2, r1, r2
10003cb0:	18cb      	adds	r3, r1, r3
10003cb2:	7095      	strb	r5, [r2, #2]
10003cb4:	7819      	ldrb	r1, [r3, #0]
10003cb6:	2900      	cmp	r1, #0
10003cb8:	d000      	beq.n	10003cbc <best_effort_wfe_or_timeout+0x150>
10003cba:	7051      	strb	r1, [r2, #1]
10003cbc:	465a      	mov	r2, fp
10003cbe:	701a      	strb	r2, [r3, #0]
10003cc0:	7375      	strb	r5, [r6, #13]
10003cc2:	7d20      	ldrb	r0, [r4, #20]
10003cc4:	464a      	mov	r2, r9
10003cc6:	003b      	movs	r3, r7
10003cc8:	f000 f8f0 	bl	10003eac <hardware_alarm_set_target>
10003ccc:	1e06      	subs	r6, r0, #0
10003cce:	d0a2      	beq.n	10003c16 <best_effort_wfe_or_timeout+0xaa>
10003cd0:	0029      	movs	r1, r5
10003cd2:	6820      	ldr	r0, [r4, #0]
10003cd4:	f000 faa6 	bl	10004224 <ph_remove_and_free_node>
10003cd8:	e79e      	b.n	10003c18 <best_effort_wfe_or_timeout+0xac>
10003cda:	6863      	ldr	r3, [r4, #4]
10003cdc:	f3bf 8f5f 	dmb	sy
10003ce0:	601d      	str	r5, [r3, #0]
10003ce2:	f388 8810 	msr	PRIMASK, r8
10003ce6:	4a0d      	ldr	r2, [pc, #52]	; (10003d1c <best_effort_wfe_or_timeout+0x1b0>)
10003ce8:	2600      	movs	r6, #0
10003cea:	6a53      	ldr	r3, [r2, #36]	; 0x24
10003cec:	429f      	cmp	r7, r3
10003cee:	d8d5      	bhi.n	10003c9c <best_effort_wfe_or_timeout+0x130>
10003cf0:	6a92      	ldr	r2, [r2, #40]	; 0x28
10003cf2:	3601      	adds	r6, #1
10003cf4:	454a      	cmp	r2, r9
10003cf6:	d3cd      	bcc.n	10003c94 <best_effort_wfe_or_timeout+0x128>
10003cf8:	e7d0      	b.n	10003c9c <best_effort_wfe_or_timeout+0x130>
10003cfa:	68e2      	ldr	r2, [r4, #12]
10003cfc:	0a2d      	lsrs	r5, r5, #8
10003cfe:	4694      	mov	ip, r2
10003d00:	4463      	add	r3, ip
10003d02:	3b01      	subs	r3, #1
10003d04:	781b      	ldrb	r3, [r3, #0]
10003d06:	42ab      	cmp	r3, r5
10003d08:	d1b5      	bne.n	10003c76 <best_effort_wfe_or_timeout+0x10a>
10003d0a:	f000 fa8b 	bl	10004224 <ph_remove_and_free_node>
10003d0e:	e7b2      	b.n	10003c76 <best_effort_wfe_or_timeout+0x10a>
10003d10:	2000057c 	.word	0x2000057c
10003d14:	0fffffff 	.word	0x0fffffff
10003d18:	100031d5 	.word	0x100031d5
10003d1c:	40054000 	.word	0x40054000

10003d20 <hardware_alarm_irq_handler>:
10003d20:	b5f0      	push	{r4, r5, r6, r7, lr}
10003d22:	46c6      	mov	lr, r8
10003d24:	b500      	push	{lr}
10003d26:	f3ef 8305 	mrs	r3, IPSR
10003d2a:	223f      	movs	r2, #63	; 0x3f
10003d2c:	4013      	ands	r3, r2
10003d2e:	0018      	movs	r0, r3
10003d30:	3810      	subs	r0, #16
10003d32:	f3ef 8710 	mrs	r7, PRIMASK
10003d36:	b672      	cpsid	i
10003d38:	4d1f      	ldr	r5, [pc, #124]	; (10003db8 <hardware_alarm_irq_handler+0x98>)
10003d3a:	682a      	ldr	r2, [r5, #0]
10003d3c:	2a00      	cmp	r2, #0
10003d3e:	d0fc      	beq.n	10003d3a <hardware_alarm_irq_handler+0x1a>
10003d40:	f3bf 8f5f 	dmb	sy
10003d44:	2201      	movs	r2, #1
10003d46:	0011      	movs	r1, r2
10003d48:	4081      	lsls	r1, r0
10003d4a:	4688      	mov	r8, r1
10003d4c:	4644      	mov	r4, r8
10003d4e:	491b      	ldr	r1, [pc, #108]	; (10003dbc <hardware_alarm_irq_handler+0x9c>)
10003d50:	634c      	str	r4, [r1, #52]	; 0x34
10003d52:	4c1b      	ldr	r4, [pc, #108]	; (10003dc0 <hardware_alarm_irq_handler+0xa0>)
10003d54:	7826      	ldrb	r6, [r4, #0]
10003d56:	46a4      	mov	ip, r4
10003d58:	0034      	movs	r4, r6
10003d5a:	40c4      	lsrs	r4, r0
10003d5c:	4022      	ands	r2, r4
10003d5e:	d107      	bne.n	10003d70 <hardware_alarm_irq_handler+0x50>
10003d60:	f3bf 8f5f 	dmb	sy
10003d64:	602a      	str	r2, [r5, #0]
10003d66:	f387 8810 	msr	PRIMASK, r7
10003d6a:	bc04      	pop	{r2}
10003d6c:	4690      	mov	r8, r2
10003d6e:	bdf0      	pop	{r4, r5, r6, r7, pc}
10003d70:	6a4c      	ldr	r4, [r1, #36]	; 0x24
10003d72:	4914      	ldr	r1, [pc, #80]	; (10003dc4 <hardware_alarm_irq_handler+0xa4>)
10003d74:	0082      	lsls	r2, r0, #2
10003d76:	5851      	ldr	r1, [r2, r1]
10003d78:	428c      	cmp	r4, r1
10003d7a:	d30f      	bcc.n	10003d9c <hardware_alarm_irq_handler+0x7c>
10003d7c:	4b12      	ldr	r3, [pc, #72]	; (10003dc8 <hardware_alarm_irq_handler+0xa8>)
10003d7e:	58d2      	ldr	r2, [r2, r3]
10003d80:	4643      	mov	r3, r8
10003d82:	439e      	bics	r6, r3
10003d84:	4663      	mov	r3, ip
10003d86:	701e      	strb	r6, [r3, #0]
10003d88:	f3bf 8f5f 	dmb	sy
10003d8c:	2300      	movs	r3, #0
10003d8e:	602b      	str	r3, [r5, #0]
10003d90:	f387 8810 	msr	PRIMASK, r7
10003d94:	2a00      	cmp	r2, #0
10003d96:	d0e8      	beq.n	10003d6a <hardware_alarm_irq_handler+0x4a>
10003d98:	4790      	blx	r2
10003d9a:	e7e6      	b.n	10003d6a <hardware_alarm_irq_handler+0x4a>
10003d9c:	4a0b      	ldr	r2, [pc, #44]	; (10003dcc <hardware_alarm_irq_handler+0xac>)
10003d9e:	009b      	lsls	r3, r3, #2
10003da0:	4694      	mov	ip, r2
10003da2:	4463      	add	r3, ip
10003da4:	681a      	ldr	r2, [r3, #0]
10003da6:	601a      	str	r2, [r3, #0]
10003da8:	f3bf 8f5f 	dmb	sy
10003dac:	2300      	movs	r3, #0
10003dae:	602b      	str	r3, [r5, #0]
10003db0:	f387 8810 	msr	PRIMASK, r7
10003db4:	e7d9      	b.n	10003d6a <hardware_alarm_irq_handler+0x4a>
10003db6:	46c0      	nop			; (mov r8, r8)
10003db8:	d0000128 	.word	0xd0000128
10003dbc:	40054000 	.word	0x40054000
10003dc0:	200016b8 	.word	0x200016b8
10003dc4:	20001664 	.word	0x20001664
10003dc8:	20000c5c 	.word	0x20000c5c
10003dcc:	40053fd0 	.word	0x40053fd0

10003dd0 <hardware_alarm_claim>:
10003dd0:	b510      	push	{r4, lr}
10003dd2:	0001      	movs	r1, r0
10003dd4:	4a02      	ldr	r2, [pc, #8]	; (10003de0 <hardware_alarm_claim+0x10>)
10003dd6:	4803      	ldr	r0, [pc, #12]	; (10003de4 <hardware_alarm_claim+0x14>)
10003dd8:	f7fe fe86 	bl	10002ae8 <hw_claim_or_assert>
10003ddc:	bd10      	pop	{r4, pc}
10003dde:	46c0      	nop			; (mov r8, r8)
10003de0:	10008af0 	.word	0x10008af0
10003de4:	200016ac 	.word	0x200016ac

10003de8 <time_us_64>:
10003de8:	4a04      	ldr	r2, [pc, #16]	; (10003dfc <time_us_64+0x14>)
10003dea:	6a51      	ldr	r1, [r2, #36]	; 0x24
10003dec:	e000      	b.n	10003df0 <time_us_64+0x8>
10003dee:	0019      	movs	r1, r3
10003df0:	6a90      	ldr	r0, [r2, #40]	; 0x28
10003df2:	6a53      	ldr	r3, [r2, #36]	; 0x24
10003df4:	4299      	cmp	r1, r3
10003df6:	d1fa      	bne.n	10003dee <time_us_64+0x6>
10003df8:	4770      	bx	lr
10003dfa:	46c0      	nop			; (mov r8, r8)
10003dfc:	40054000 	.word	0x40054000

10003e00 <busy_wait_until>:
10003e00:	4a06      	ldr	r2, [pc, #24]	; (10003e1c <busy_wait_until+0x1c>)
10003e02:	6a53      	ldr	r3, [r2, #36]	; 0x24
10003e04:	4299      	cmp	r1, r3
10003e06:	d8fc      	bhi.n	10003e02 <busy_wait_until+0x2>
10003e08:	d107      	bne.n	10003e1a <busy_wait_until+0x1a>
10003e0a:	4b04      	ldr	r3, [pc, #16]	; (10003e1c <busy_wait_until+0x1c>)
10003e0c:	e002      	b.n	10003e14 <busy_wait_until+0x14>
10003e0e:	6a5a      	ldr	r2, [r3, #36]	; 0x24
10003e10:	4291      	cmp	r1, r2
10003e12:	d102      	bne.n	10003e1a <busy_wait_until+0x1a>
10003e14:	6a9a      	ldr	r2, [r3, #40]	; 0x28
10003e16:	4282      	cmp	r2, r0
10003e18:	d3f9      	bcc.n	10003e0e <busy_wait_until+0xe>
10003e1a:	4770      	bx	lr
10003e1c:	40054000 	.word	0x40054000

10003e20 <hardware_alarm_set_callback>:
10003e20:	b570      	push	{r4, r5, r6, lr}
10003e22:	0004      	movs	r4, r0
10003e24:	000d      	movs	r5, r1
10003e26:	f3ef 8610 	mrs	r6, PRIMASK
10003e2a:	b672      	cpsid	i
10003e2c:	4a1a      	ldr	r2, [pc, #104]	; (10003e98 <hardware_alarm_set_callback+0x78>)
10003e2e:	6813      	ldr	r3, [r2, #0]
10003e30:	2b00      	cmp	r3, #0
10003e32:	d0fc      	beq.n	10003e2e <hardware_alarm_set_callback+0xe>
10003e34:	f3bf 8f5f 	dmb	sy
10003e38:	2d00      	cmp	r5, #0
10003e3a:	d01b      	beq.n	10003e74 <hardware_alarm_set_callback+0x54>
10003e3c:	0020      	movs	r0, r4
10003e3e:	f7fe ff25 	bl	10002c8c <irq_get_vtable_handler>
10003e42:	4916      	ldr	r1, [pc, #88]	; (10003e9c <hardware_alarm_set_callback+0x7c>)
10003e44:	4288      	cmp	r0, r1
10003e46:	d00a      	beq.n	10003e5e <hardware_alarm_set_callback+0x3e>
10003e48:	0020      	movs	r0, r4
10003e4a:	f7fe ff27 	bl	10002c9c <irq_set_exclusive_handler>
10003e4e:	2101      	movs	r1, #1
10003e50:	0020      	movs	r0, r4
10003e52:	f7fe feeb 	bl	10002c2c <irq_set_enabled>
10003e56:	2301      	movs	r3, #1
10003e58:	40a3      	lsls	r3, r4
10003e5a:	4a11      	ldr	r2, [pc, #68]	; (10003ea0 <hardware_alarm_set_callback+0x80>)
10003e5c:	6013      	str	r3, [r2, #0]
10003e5e:	4b11      	ldr	r3, [pc, #68]	; (10003ea4 <hardware_alarm_set_callback+0x84>)
10003e60:	00a4      	lsls	r4, r4, #2
10003e62:	50e5      	str	r5, [r4, r3]
10003e64:	f3bf 8f5f 	dmb	sy
10003e68:	2200      	movs	r2, #0
10003e6a:	4b0b      	ldr	r3, [pc, #44]	; (10003e98 <hardware_alarm_set_callback+0x78>)
10003e6c:	601a      	str	r2, [r3, #0]
10003e6e:	f386 8810 	msr	PRIMASK, r6
10003e72:	bd70      	pop	{r4, r5, r6, pc}
10003e74:	4b0b      	ldr	r3, [pc, #44]	; (10003ea4 <hardware_alarm_set_callback+0x84>)
10003e76:	00a2      	lsls	r2, r4, #2
10003e78:	50d5      	str	r5, [r2, r3]
10003e7a:	2201      	movs	r2, #1
10003e7c:	40a2      	lsls	r2, r4
10003e7e:	490a      	ldr	r1, [pc, #40]	; (10003ea8 <hardware_alarm_set_callback+0x88>)
10003e80:	0020      	movs	r0, r4
10003e82:	780b      	ldrb	r3, [r1, #0]
10003e84:	4393      	bics	r3, r2
10003e86:	700b      	strb	r3, [r1, #0]
10003e88:	4904      	ldr	r1, [pc, #16]	; (10003e9c <hardware_alarm_set_callback+0x7c>)
10003e8a:	f7ff f815 	bl	10002eb8 <irq_remove_handler>
10003e8e:	2100      	movs	r1, #0
10003e90:	0020      	movs	r0, r4
10003e92:	f7fe fecb 	bl	10002c2c <irq_set_enabled>
10003e96:	e7e5      	b.n	10003e64 <hardware_alarm_set_callback+0x44>
10003e98:	d0000128 	.word	0xd0000128
10003e9c:	10003d21 	.word	0x10003d21
10003ea0:	40056038 	.word	0x40056038
10003ea4:	20000c5c 	.word	0x20000c5c
10003ea8:	200016b8 	.word	0x200016b8

10003eac <hardware_alarm_set_target>:
10003eac:	b5f0      	push	{r4, r5, r6, r7, lr}
10003eae:	46d6      	mov	lr, sl
10003eb0:	464f      	mov	r7, r9
10003eb2:	4646      	mov	r6, r8
10003eb4:	4c2e      	ldr	r4, [pc, #184]	; (10003f70 <hardware_alarm_set_target+0xc4>)
10003eb6:	b5c0      	push	{r6, r7, lr}
10003eb8:	6a65      	ldr	r5, [r4, #36]	; 0x24
10003eba:	e000      	b.n	10003ebe <hardware_alarm_set_target+0x12>
10003ebc:	000d      	movs	r5, r1
10003ebe:	6aa6      	ldr	r6, [r4, #40]	; 0x28
10003ec0:	6a61      	ldr	r1, [r4, #36]	; 0x24
10003ec2:	42a9      	cmp	r1, r5
10003ec4:	d1fa      	bne.n	10003ebc <hardware_alarm_set_target+0x10>
10003ec6:	42ab      	cmp	r3, r5
10003ec8:	d948      	bls.n	10003f5c <hardware_alarm_set_target+0xb0>
10003eca:	f3ef 8910 	mrs	r9, PRIMASK
10003ece:	b672      	cpsid	i
10003ed0:	4c28      	ldr	r4, [pc, #160]	; (10003f74 <hardware_alarm_set_target+0xc8>)
10003ed2:	6821      	ldr	r1, [r4, #0]
10003ed4:	2900      	cmp	r1, #0
10003ed6:	d0fc      	beq.n	10003ed2 <hardware_alarm_set_target+0x26>
10003ed8:	f3bf 8f5f 	dmb	sy
10003edc:	4926      	ldr	r1, [pc, #152]	; (10003f78 <hardware_alarm_set_target+0xcc>)
10003ede:	2601      	movs	r6, #1
10003ee0:	468c      	mov	ip, r1
10003ee2:	7809      	ldrb	r1, [r1, #0]
10003ee4:	4086      	lsls	r6, r0
10003ee6:	000f      	movs	r7, r1
10003ee8:	4688      	mov	r8, r1
10003eea:	4661      	mov	r1, ip
10003eec:	4337      	orrs	r7, r6
10003eee:	b2ff      	uxtb	r7, r7
10003ef0:	700f      	strb	r7, [r1, #0]
10003ef2:	1d04      	adds	r4, r0, #4
10003ef4:	491e      	ldr	r1, [pc, #120]	; (10003f70 <hardware_alarm_set_target+0xc4>)
10003ef6:	00a4      	lsls	r4, r4, #2
10003ef8:	4d20      	ldr	r5, [pc, #128]	; (10003f7c <hardware_alarm_set_target+0xd0>)
10003efa:	634e      	str	r6, [r1, #52]	; 0x34
10003efc:	5062      	str	r2, [r4, r1]
10003efe:	0084      	lsls	r4, r0, #2
10003f00:	5163      	str	r3, [r4, r5]
10003f02:	6a0d      	ldr	r5, [r1, #32]
10003f04:	2400      	movs	r4, #0
10003f06:	4235      	tst	r5, r6
10003f08:	d01b      	beq.n	10003f42 <hardware_alarm_set_target+0x96>
10003f0a:	6a4d      	ldr	r5, [r1, #36]	; 0x24
10003f0c:	e000      	b.n	10003f10 <hardware_alarm_set_target+0x64>
10003f0e:	0025      	movs	r5, r4
10003f10:	6a8c      	ldr	r4, [r1, #40]	; 0x28
10003f12:	46a2      	mov	sl, r4
10003f14:	6a4c      	ldr	r4, [r1, #36]	; 0x24
10003f16:	42ac      	cmp	r4, r5
10003f18:	d1f9      	bne.n	10003f0e <hardware_alarm_set_target+0x62>
10003f1a:	42ab      	cmp	r3, r5
10003f1c:	d824      	bhi.n	10003f68 <hardware_alarm_set_target+0xbc>
10003f1e:	d101      	bne.n	10003f24 <hardware_alarm_set_target+0x78>
10003f20:	4552      	cmp	r2, sl
10003f22:	d821      	bhi.n	10003f68 <hardware_alarm_set_target+0xbc>
10003f24:	4547      	cmp	r7, r8
10003f26:	d021      	beq.n	10003f6c <hardware_alarm_set_target+0xc0>
10003f28:	4b11      	ldr	r3, [pc, #68]	; (10003f70 <hardware_alarm_set_target+0xc4>)
10003f2a:	4a15      	ldr	r2, [pc, #84]	; (10003f80 <hardware_alarm_set_target+0xd4>)
10003f2c:	621e      	str	r6, [r3, #32]
10003f2e:	635e      	str	r6, [r3, #52]	; 0x34
10003f30:	231f      	movs	r3, #31
10003f32:	4018      	ands	r0, r3
10003f34:	3b1e      	subs	r3, #30
10003f36:	4083      	lsls	r3, r0
10003f38:	6013      	str	r3, [r2, #0]
10003f3a:	4663      	mov	r3, ip
10003f3c:	4642      	mov	r2, r8
10003f3e:	2401      	movs	r4, #1
10003f40:	701a      	strb	r2, [r3, #0]
10003f42:	f3bf 8f5f 	dmb	sy
10003f46:	2200      	movs	r2, #0
10003f48:	4b0a      	ldr	r3, [pc, #40]	; (10003f74 <hardware_alarm_set_target+0xc8>)
10003f4a:	601a      	str	r2, [r3, #0]
10003f4c:	f389 8810 	msr	PRIMASK, r9
10003f50:	0020      	movs	r0, r4
10003f52:	bc1c      	pop	{r2, r3, r4}
10003f54:	4690      	mov	r8, r2
10003f56:	4699      	mov	r9, r3
10003f58:	46a2      	mov	sl, r4
10003f5a:	bdf0      	pop	{r4, r5, r6, r7, pc}
10003f5c:	42ab      	cmp	r3, r5
10003f5e:	d101      	bne.n	10003f64 <hardware_alarm_set_target+0xb8>
10003f60:	42b2      	cmp	r2, r6
10003f62:	d8b2      	bhi.n	10003eca <hardware_alarm_set_target+0x1e>
10003f64:	2401      	movs	r4, #1
10003f66:	e7f3      	b.n	10003f50 <hardware_alarm_set_target+0xa4>
10003f68:	2400      	movs	r4, #0
10003f6a:	e7ea      	b.n	10003f42 <hardware_alarm_set_target+0x96>
10003f6c:	2401      	movs	r4, #1
10003f6e:	e7e8      	b.n	10003f42 <hardware_alarm_set_target+0x96>
10003f70:	40054000 	.word	0x40054000
10003f74:	d0000128 	.word	0xd0000128
10003f78:	200016b8 	.word	0x200016b8
10003f7c:	20001664 	.word	0x20001664
10003f80:	e000e280 	.word	0xe000e280

10003f84 <hardware_alarm_cancel>:
10003f84:	b510      	push	{r4, lr}
10003f86:	f3ef 8410 	mrs	r4, PRIMASK
10003f8a:	b672      	cpsid	i
10003f8c:	490a      	ldr	r1, [pc, #40]	; (10003fb8 <hardware_alarm_cancel+0x34>)
10003f8e:	680b      	ldr	r3, [r1, #0]
10003f90:	2b00      	cmp	r3, #0
10003f92:	d0fc      	beq.n	10003f8e <hardware_alarm_cancel+0xa>
10003f94:	f3bf 8f5f 	dmb	sy
10003f98:	2301      	movs	r3, #1
10003f9a:	4083      	lsls	r3, r0
10003f9c:	4a07      	ldr	r2, [pc, #28]	; (10003fbc <hardware_alarm_cancel+0x38>)
10003f9e:	4808      	ldr	r0, [pc, #32]	; (10003fc0 <hardware_alarm_cancel+0x3c>)
10003fa0:	6213      	str	r3, [r2, #32]
10003fa2:	7802      	ldrb	r2, [r0, #0]
10003fa4:	439a      	bics	r2, r3
10003fa6:	7002      	strb	r2, [r0, #0]
10003fa8:	f3bf 8f5f 	dmb	sy
10003fac:	2300      	movs	r3, #0
10003fae:	600b      	str	r3, [r1, #0]
10003fb0:	f384 8810 	msr	PRIMASK, r4
10003fb4:	bd10      	pop	{r4, pc}
10003fb6:	46c0      	nop			; (mov r8, r8)
10003fb8:	d0000128 	.word	0xd0000128
10003fbc:	40054000 	.word	0x40054000
10003fc0:	200016b8 	.word	0x200016b8

10003fc4 <ph_merge_two_pass.part.3>:
10003fc4:	b5f8      	push	{r3, r4, r5, r6, r7, lr}
10003fc6:	4647      	mov	r7, r8
10003fc8:	46ce      	mov	lr, r9
10003fca:	b580      	push	{r7, lr}
10003fcc:	004c      	lsls	r4, r1, #1
10003fce:	6803      	ldr	r3, [r0, #0]
10003fd0:	1864      	adds	r4, r4, r1
10003fd2:	3c03      	subs	r4, #3
10003fd4:	191a      	adds	r2, r3, r4
10003fd6:	7856      	ldrb	r6, [r2, #1]
10003fd8:	0007      	movs	r7, r0
10003fda:	000d      	movs	r5, r1
10003fdc:	2e00      	cmp	r6, #0
10003fde:	d104      	bne.n	10003fea <ph_merge_two_pass.part.3+0x26>
10003fe0:	0028      	movs	r0, r5
10003fe2:	bc0c      	pop	{r2, r3}
10003fe4:	4690      	mov	r8, r2
10003fe6:	4699      	mov	r9, r3
10003fe8:	bdf8      	pop	{r3, r4, r5, r6, r7, pc}
10003fea:	0071      	lsls	r1, r6, #1
10003fec:	1989      	adds	r1, r1, r6
10003fee:	3903      	subs	r1, #3
10003ff0:	4688      	mov	r8, r1
10003ff2:	4443      	add	r3, r8
10003ff4:	7859      	ldrb	r1, [r3, #1]
10003ff6:	4689      	mov	r9, r1
10003ff8:	2100      	movs	r1, #0
10003ffa:	7059      	strb	r1, [r3, #1]
10003ffc:	7051      	strb	r1, [r2, #1]
10003ffe:	2d00      	cmp	r5, #0
10004000:	d011      	beq.n	10004026 <ph_merge_two_pass.part.3+0x62>
10004002:	687b      	ldr	r3, [r7, #4]
10004004:	0032      	movs	r2, r6
10004006:	0029      	movs	r1, r5
10004008:	6880      	ldr	r0, [r0, #8]
1000400a:	4798      	blx	r3
1000400c:	683b      	ldr	r3, [r7, #0]
1000400e:	2800      	cmp	r0, #0
10004010:	d032      	beq.n	10004078 <ph_merge_two_pass.part.3+0xb4>
10004012:	191a      	adds	r2, r3, r4
10004014:	4443      	add	r3, r8
10004016:	709d      	strb	r5, [r3, #2]
10004018:	7811      	ldrb	r1, [r2, #0]
1000401a:	2900      	cmp	r1, #0
1000401c:	d000      	beq.n	10004020 <ph_merge_two_pass.part.3+0x5c>
1000401e:	7059      	strb	r1, [r3, #1]
10004020:	7016      	strb	r6, [r2, #0]
10004022:	46a0      	mov	r8, r4
10004024:	e000      	b.n	10004028 <ph_merge_two_pass.part.3+0x64>
10004026:	0035      	movs	r5, r6
10004028:	464b      	mov	r3, r9
1000402a:	2b00      	cmp	r3, #0
1000402c:	d0d8      	beq.n	10003fe0 <ph_merge_two_pass.part.3+0x1c>
1000402e:	4649      	mov	r1, r9
10004030:	0038      	movs	r0, r7
10004032:	f7ff ffc7 	bl	10003fc4 <ph_merge_two_pass.part.3>
10004036:	1e04      	subs	r4, r0, #0
10004038:	d0d2      	beq.n	10003fe0 <ph_merge_two_pass.part.3+0x1c>
1000403a:	0002      	movs	r2, r0
1000403c:	687b      	ldr	r3, [r7, #4]
1000403e:	0029      	movs	r1, r5
10004040:	68b8      	ldr	r0, [r7, #8]
10004042:	4798      	blx	r3
10004044:	0063      	lsls	r3, r4, #1
10004046:	191b      	adds	r3, r3, r4
10004048:	3b03      	subs	r3, #3
1000404a:	683a      	ldr	r2, [r7, #0]
1000404c:	2800      	cmp	r0, #0
1000404e:	d109      	bne.n	10004064 <ph_merge_two_pass.part.3+0xa0>
10004050:	18d3      	adds	r3, r2, r3
10004052:	4442      	add	r2, r8
10004054:	7094      	strb	r4, [r2, #2]
10004056:	7819      	ldrb	r1, [r3, #0]
10004058:	2900      	cmp	r1, #0
1000405a:	d000      	beq.n	1000405e <ph_merge_two_pass.part.3+0x9a>
1000405c:	7051      	strb	r1, [r2, #1]
1000405e:	701d      	strb	r5, [r3, #0]
10004060:	0025      	movs	r5, r4
10004062:	e7bd      	b.n	10003fe0 <ph_merge_two_pass.part.3+0x1c>
10004064:	4641      	mov	r1, r8
10004066:	18d3      	adds	r3, r2, r3
10004068:	1851      	adds	r1, r2, r1
1000406a:	709d      	strb	r5, [r3, #2]
1000406c:	780a      	ldrb	r2, [r1, #0]
1000406e:	2a00      	cmp	r2, #0
10004070:	d000      	beq.n	10004074 <ph_merge_two_pass.part.3+0xb0>
10004072:	705a      	strb	r2, [r3, #1]
10004074:	700c      	strb	r4, [r1, #0]
10004076:	e7b3      	b.n	10003fe0 <ph_merge_two_pass.part.3+0x1c>
10004078:	4642      	mov	r2, r8
1000407a:	191c      	adds	r4, r3, r4
1000407c:	189a      	adds	r2, r3, r2
1000407e:	70a6      	strb	r6, [r4, #2]
10004080:	7813      	ldrb	r3, [r2, #0]
10004082:	2b00      	cmp	r3, #0
10004084:	d000      	beq.n	10004088 <ph_merge_two_pass.part.3+0xc4>
10004086:	7063      	strb	r3, [r4, #1]
10004088:	7015      	strb	r5, [r2, #0]
1000408a:	0035      	movs	r5, r6
1000408c:	e7cc      	b.n	10004028 <ph_merge_two_pass.part.3+0x64>
1000408e:	46c0      	nop			; (mov r8, r8)

10004090 <ph_post_alloc_init>:
10004090:	b510      	push	{r4, lr}
10004092:	6083      	str	r3, [r0, #8]
10004094:	2300      	movs	r3, #0
10004096:	b2cc      	uxtb	r4, r1
10004098:	7343      	strb	r3, [r0, #13]
1000409a:	3301      	adds	r3, #1
1000409c:	7304      	strb	r4, [r0, #12]
1000409e:	6042      	str	r2, [r0, #4]
100040a0:	7383      	strb	r3, [r0, #14]
100040a2:	73c4      	strb	r4, [r0, #15]
100040a4:	6800      	ldr	r0, [r0, #0]
100040a6:	2c01      	cmp	r4, #1
100040a8:	d906      	bls.n	100040b8 <ph_post_alloc_init+0x28>
100040aa:	1c42      	adds	r2, r0, #1
100040ac:	3301      	adds	r3, #1
100040ae:	b2db      	uxtb	r3, r3
100040b0:	7013      	strb	r3, [r2, #0]
100040b2:	3203      	adds	r2, #3
100040b4:	429c      	cmp	r4, r3
100040b6:	d8f9      	bhi.n	100040ac <ph_post_alloc_init+0x1c>
100040b8:	23ff      	movs	r3, #255	; 0xff
100040ba:	4019      	ands	r1, r3
100040bc:	004b      	lsls	r3, r1, #1
100040be:	1859      	adds	r1, r3, r1
100040c0:	2300      	movs	r3, #0
100040c2:	1840      	adds	r0, r0, r1
100040c4:	3803      	subs	r0, #3
100040c6:	7043      	strb	r3, [r0, #1]
100040c8:	bd10      	pop	{r4, pc}
100040ca:	46c0      	nop			; (mov r8, r8)

100040cc <ph_remove_head>:
100040cc:	b5f0      	push	{r4, r5, r6, r7, lr}
100040ce:	464e      	mov	r6, r9
100040d0:	4657      	mov	r7, sl
100040d2:	4645      	mov	r5, r8
100040d4:	46de      	mov	lr, fp
100040d6:	b5e0      	push	{r5, r6, r7, lr}
100040d8:	7b46      	ldrb	r6, [r0, #13]
100040da:	6803      	ldr	r3, [r0, #0]
100040dc:	0074      	lsls	r4, r6, #1
100040de:	19a4      	adds	r4, r4, r6
100040e0:	3c03      	subs	r4, #3
100040e2:	191a      	adds	r2, r3, r4
100040e4:	7817      	ldrb	r7, [r2, #0]
100040e6:	b083      	sub	sp, #12
100040e8:	0005      	movs	r5, r0
100040ea:	4689      	mov	r9, r1
100040ec:	2f00      	cmp	r7, #0
100040ee:	d11e      	bne.n	1000412e <ph_remove_head+0x62>
100040f0:	2900      	cmp	r1, #0
100040f2:	d011      	beq.n	10004118 <ph_remove_head+0x4c>
100040f4:	7bc0      	ldrb	r0, [r0, #15]
100040f6:	2800      	cmp	r0, #0
100040f8:	d02a      	beq.n	10004150 <ph_remove_head+0x84>
100040fa:	0041      	lsls	r1, r0, #1
100040fc:	1809      	adds	r1, r1, r0
100040fe:	1859      	adds	r1, r3, r1
10004100:	3903      	subs	r1, #3
10004102:	704e      	strb	r6, [r1, #1]
10004104:	73ee      	strb	r6, [r5, #15]
10004106:	2f00      	cmp	r7, #0
10004108:	d006      	beq.n	10004118 <ph_remove_head+0x4c>
1000410a:	0079      	lsls	r1, r7, #1
1000410c:	19c9      	adds	r1, r1, r7
1000410e:	3903      	subs	r1, #3
10004110:	4688      	mov	r8, r1
10004112:	2100      	movs	r1, #0
10004114:	4443      	add	r3, r8
10004116:	7099      	strb	r1, [r3, #2]
10004118:	2300      	movs	r3, #0
1000411a:	0030      	movs	r0, r6
1000411c:	7053      	strb	r3, [r2, #1]
1000411e:	736f      	strb	r7, [r5, #13]
10004120:	b003      	add	sp, #12
10004122:	bc3c      	pop	{r2, r3, r4, r5}
10004124:	4690      	mov	r8, r2
10004126:	4699      	mov	r9, r3
10004128:	46a2      	mov	sl, r4
1000412a:	46ab      	mov	fp, r5
1000412c:	bdf0      	pop	{r4, r5, r6, r7, pc}
1000412e:	0079      	lsls	r1, r7, #1
10004130:	19c9      	adds	r1, r1, r7
10004132:	3903      	subs	r1, #3
10004134:	4688      	mov	r8, r1
10004136:	1859      	adds	r1, r3, r1
10004138:	7848      	ldrb	r0, [r1, #1]
1000413a:	4682      	mov	sl, r0
1000413c:	2800      	cmp	r0, #0
1000413e:	d109      	bne.n	10004154 <ph_remove_head+0x88>
10004140:	4649      	mov	r1, r9
10004142:	2900      	cmp	r1, #0
10004144:	d0e5      	beq.n	10004112 <ph_remove_head+0x46>
10004146:	7be8      	ldrb	r0, [r5, #15]
10004148:	2800      	cmp	r0, #0
1000414a:	d1d6      	bne.n	100040fa <ph_remove_head+0x2e>
1000414c:	73ee      	strb	r6, [r5, #15]
1000414e:	e7dc      	b.n	1000410a <ph_remove_head+0x3e>
10004150:	73ee      	strb	r6, [r5, #15]
10004152:	e7e1      	b.n	10004118 <ph_remove_head+0x4c>
10004154:	0042      	lsls	r2, r0, #1
10004156:	4452      	add	r2, sl
10004158:	3a03      	subs	r2, #3
1000415a:	4693      	mov	fp, r2
1000415c:	445b      	add	r3, fp
1000415e:	785a      	ldrb	r2, [r3, #1]
10004160:	9201      	str	r2, [sp, #4]
10004162:	2200      	movs	r2, #0
10004164:	705a      	strb	r2, [r3, #1]
10004166:	704a      	strb	r2, [r1, #1]
10004168:	686b      	ldr	r3, [r5, #4]
1000416a:	0002      	movs	r2, r0
1000416c:	0039      	movs	r1, r7
1000416e:	68a8      	ldr	r0, [r5, #8]
10004170:	4798      	blx	r3
10004172:	682b      	ldr	r3, [r5, #0]
10004174:	2800      	cmp	r0, #0
10004176:	d130      	bne.n	100041da <ph_remove_head+0x10e>
10004178:	4641      	mov	r1, r8
1000417a:	4650      	mov	r0, sl
1000417c:	465a      	mov	r2, fp
1000417e:	1859      	adds	r1, r3, r1
10004180:	189a      	adds	r2, r3, r2
10004182:	7088      	strb	r0, [r1, #2]
10004184:	7810      	ldrb	r0, [r2, #0]
10004186:	2800      	cmp	r0, #0
10004188:	d000      	beq.n	1000418c <ph_remove_head+0xc0>
1000418a:	7048      	strb	r0, [r1, #1]
1000418c:	7017      	strb	r7, [r2, #0]
1000418e:	46d8      	mov	r8, fp
10004190:	4657      	mov	r7, sl
10004192:	9a01      	ldr	r2, [sp, #4]
10004194:	2a00      	cmp	r2, #0
10004196:	d02d      	beq.n	100041f4 <ph_remove_head+0x128>
10004198:	0011      	movs	r1, r2
1000419a:	0028      	movs	r0, r5
1000419c:	f7ff ff12 	bl	10003fc4 <ph_merge_two_pass.part.3>
100041a0:	4682      	mov	sl, r0
100041a2:	2800      	cmp	r0, #0
100041a4:	d025      	beq.n	100041f2 <ph_remove_head+0x126>
100041a6:	0002      	movs	r2, r0
100041a8:	0039      	movs	r1, r7
100041aa:	686b      	ldr	r3, [r5, #4]
100041ac:	68a8      	ldr	r0, [r5, #8]
100041ae:	4798      	blx	r3
100041b0:	4653      	mov	r3, sl
100041b2:	0059      	lsls	r1, r3, #1
100041b4:	4451      	add	r1, sl
100041b6:	3903      	subs	r1, #3
100041b8:	682b      	ldr	r3, [r5, #0]
100041ba:	2800      	cmp	r0, #0
100041bc:	d01c      	beq.n	100041f8 <ph_remove_head+0x12c>
100041be:	4642      	mov	r2, r8
100041c0:	1859      	adds	r1, r3, r1
100041c2:	1898      	adds	r0, r3, r2
100041c4:	708f      	strb	r7, [r1, #2]
100041c6:	7802      	ldrb	r2, [r0, #0]
100041c8:	4694      	mov	ip, r2
100041ca:	191a      	adds	r2, r3, r4
100041cc:	4664      	mov	r4, ip
100041ce:	2c00      	cmp	r4, #0
100041d0:	d000      	beq.n	100041d4 <ph_remove_head+0x108>
100041d2:	704c      	strb	r4, [r1, #1]
100041d4:	4651      	mov	r1, sl
100041d6:	7001      	strb	r1, [r0, #0]
100041d8:	e7b2      	b.n	10004140 <ph_remove_head+0x74>
100041da:	4659      	mov	r1, fp
100041dc:	4642      	mov	r2, r8
100041de:	1859      	adds	r1, r3, r1
100041e0:	189a      	adds	r2, r3, r2
100041e2:	708f      	strb	r7, [r1, #2]
100041e4:	7810      	ldrb	r0, [r2, #0]
100041e6:	2800      	cmp	r0, #0
100041e8:	d000      	beq.n	100041ec <ph_remove_head+0x120>
100041ea:	7048      	strb	r0, [r1, #1]
100041ec:	4651      	mov	r1, sl
100041ee:	7011      	strb	r1, [r2, #0]
100041f0:	e7cf      	b.n	10004192 <ph_remove_head+0xc6>
100041f2:	682b      	ldr	r3, [r5, #0]
100041f4:	191a      	adds	r2, r3, r4
100041f6:	e7a3      	b.n	10004140 <ph_remove_head+0x74>
100041f8:	185a      	adds	r2, r3, r1
100041fa:	4498      	add	r8, r3
100041fc:	4693      	mov	fp, r2
100041fe:	4650      	mov	r0, sl
10004200:	4642      	mov	r2, r8
10004202:	7090      	strb	r0, [r2, #2]
10004204:	465a      	mov	r2, fp
10004206:	7812      	ldrb	r2, [r2, #0]
10004208:	4694      	mov	ip, r2
1000420a:	4660      	mov	r0, ip
1000420c:	191a      	adds	r2, r3, r4
1000420e:	2800      	cmp	r0, #0
10004210:	d002      	beq.n	10004218 <ph_remove_head+0x14c>
10004212:	4640      	mov	r0, r8
10004214:	4664      	mov	r4, ip
10004216:	7044      	strb	r4, [r0, #1]
10004218:	4658      	mov	r0, fp
1000421a:	4688      	mov	r8, r1
1000421c:	7007      	strb	r7, [r0, #0]
1000421e:	4657      	mov	r7, sl
10004220:	e78e      	b.n	10004140 <ph_remove_head+0x74>
10004222:	46c0      	nop			; (mov r8, r8)

10004224 <ph_remove_and_free_node>:
10004224:	b5f0      	push	{r4, r5, r6, r7, lr}
10004226:	4645      	mov	r5, r8
10004228:	46de      	mov	lr, fp
1000422a:	4657      	mov	r7, sl
1000422c:	464e      	mov	r6, r9
1000422e:	b5e0      	push	{r5, r6, r7, lr}
10004230:	000c      	movs	r4, r1
10004232:	b083      	sub	sp, #12
10004234:	0005      	movs	r5, r0
10004236:	2300      	movs	r3, #0
10004238:	2900      	cmp	r1, #0
1000423a:	d027      	beq.n	1000428c <ph_remove_and_free_node+0x68>
1000423c:	0066      	lsls	r6, r4, #1
1000423e:	7b47      	ldrb	r7, [r0, #13]
10004240:	6801      	ldr	r1, [r0, #0]
10004242:	1936      	adds	r6, r6, r4
10004244:	3e03      	subs	r6, #3
10004246:	1988      	adds	r0, r1, r6
10004248:	42a7      	cmp	r7, r4
1000424a:	d033      	beq.n	100042b4 <ph_remove_and_free_node+0x90>
1000424c:	7882      	ldrb	r2, [r0, #2]
1000424e:	2a00      	cmp	r2, #0
10004250:	d01c      	beq.n	1000428c <ph_remove_and_free_node+0x68>
10004252:	0053      	lsls	r3, r2, #1
10004254:	189b      	adds	r3, r3, r2
10004256:	3b03      	subs	r3, #3
10004258:	18cb      	adds	r3, r1, r3
1000425a:	781a      	ldrb	r2, [r3, #0]
1000425c:	42a2      	cmp	r2, r4
1000425e:	d11f      	bne.n	100042a0 <ph_remove_and_free_node+0x7c>
10004260:	7842      	ldrb	r2, [r0, #1]
10004262:	701a      	strb	r2, [r3, #0]
10004264:	2300      	movs	r3, #0
10004266:	7802      	ldrb	r2, [r0, #0]
10004268:	7083      	strb	r3, [r0, #2]
1000426a:	7043      	strb	r3, [r0, #1]
1000426c:	4691      	mov	r9, r2
1000426e:	2a00      	cmp	r2, #0
10004270:	d133      	bne.n	100042da <ph_remove_and_free_node+0xb6>
10004272:	7bea      	ldrb	r2, [r5, #15]
10004274:	2a00      	cmp	r2, #0
10004276:	d066      	beq.n	10004346 <ph_remove_and_free_node+0x122>
10004278:	0053      	lsls	r3, r2, #1
1000427a:	189b      	adds	r3, r3, r2
1000427c:	18c9      	adds	r1, r1, r3
1000427e:	3903      	subs	r1, #3
10004280:	704c      	strb	r4, [r1, #1]
10004282:	73ec      	strb	r4, [r5, #15]
10004284:	2300      	movs	r3, #0
10004286:	7043      	strb	r3, [r0, #1]
10004288:	2301      	movs	r3, #1
1000428a:	736f      	strb	r7, [r5, #13]
1000428c:	0018      	movs	r0, r3
1000428e:	b003      	add	sp, #12
10004290:	bc3c      	pop	{r2, r3, r4, r5}
10004292:	4690      	mov	r8, r2
10004294:	4699      	mov	r9, r3
10004296:	46a2      	mov	sl, r4
10004298:	46ab      	mov	fp, r5
1000429a:	bdf0      	pop	{r4, r5, r6, r7, pc}
1000429c:	2a00      	cmp	r2, #0
1000429e:	d0e1      	beq.n	10004264 <ph_remove_and_free_node+0x40>
100042a0:	0053      	lsls	r3, r2, #1
100042a2:	189b      	adds	r3, r3, r2
100042a4:	3b03      	subs	r3, #3
100042a6:	18cb      	adds	r3, r1, r3
100042a8:	785a      	ldrb	r2, [r3, #1]
100042aa:	42a2      	cmp	r2, r4
100042ac:	d1f6      	bne.n	1000429c <ph_remove_and_free_node+0x78>
100042ae:	7842      	ldrb	r2, [r0, #1]
100042b0:	705a      	strb	r2, [r3, #1]
100042b2:	e7d7      	b.n	10004264 <ph_remove_and_free_node+0x40>
100042b4:	7802      	ldrb	r2, [r0, #0]
100042b6:	9201      	str	r2, [sp, #4]
100042b8:	2a00      	cmp	r2, #0
100042ba:	d146      	bne.n	1000434a <ph_remove_and_free_node+0x126>
100042bc:	7bea      	ldrb	r2, [r5, #15]
100042be:	2a00      	cmp	r2, #0
100042c0:	d03f      	beq.n	10004342 <ph_remove_and_free_node+0x11e>
100042c2:	0053      	lsls	r3, r2, #1
100042c4:	189b      	adds	r3, r3, r2
100042c6:	18c9      	adds	r1, r1, r3
100042c8:	3903      	subs	r1, #3
100042ca:	704f      	strb	r7, [r1, #1]
100042cc:	73ef      	strb	r7, [r5, #15]
100042ce:	2300      	movs	r3, #0
100042d0:	7043      	strb	r3, [r0, #1]
100042d2:	9b01      	ldr	r3, [sp, #4]
100042d4:	736b      	strb	r3, [r5, #13]
100042d6:	2301      	movs	r3, #1
100042d8:	e7d8      	b.n	1000428c <ph_remove_and_free_node+0x68>
100042da:	0052      	lsls	r2, r2, #1
100042dc:	444a      	add	r2, r9
100042de:	3a03      	subs	r2, #3
100042e0:	4690      	mov	r8, r2
100042e2:	188a      	adds	r2, r1, r2
100042e4:	7857      	ldrb	r7, [r2, #1]
100042e6:	2f00      	cmp	r7, #0
100042e8:	d142      	bne.n	10004370 <ph_remove_and_free_node+0x14c>
100042ea:	7beb      	ldrb	r3, [r5, #15]
100042ec:	2b00      	cmp	r3, #0
100042ee:	d000      	beq.n	100042f2 <ph_remove_and_free_node+0xce>
100042f0:	e129      	b.n	10004546 <ph_remove_and_free_node+0x322>
100042f2:	464f      	mov	r7, r9
100042f4:	7b6e      	ldrb	r6, [r5, #13]
100042f6:	73ec      	strb	r4, [r5, #15]
100042f8:	2300      	movs	r3, #0
100042fa:	7093      	strb	r3, [r2, #2]
100042fc:	7043      	strb	r3, [r0, #1]
100042fe:	2e00      	cmp	r6, #0
10004300:	d0c2      	beq.n	10004288 <ph_remove_and_free_node+0x64>
10004302:	003a      	movs	r2, r7
10004304:	686b      	ldr	r3, [r5, #4]
10004306:	0031      	movs	r1, r6
10004308:	68a8      	ldr	r0, [r5, #8]
1000430a:	4798      	blx	r3
1000430c:	0073      	lsls	r3, r6, #1
1000430e:	199b      	adds	r3, r3, r6
10004310:	3b03      	subs	r3, #3
10004312:	682a      	ldr	r2, [r5, #0]
10004314:	2800      	cmp	r0, #0
10004316:	d008      	beq.n	1000432a <ph_remove_and_free_node+0x106>
10004318:	18d3      	adds	r3, r2, r3
1000431a:	4442      	add	r2, r8
1000431c:	7096      	strb	r6, [r2, #2]
1000431e:	7819      	ldrb	r1, [r3, #0]
10004320:	2900      	cmp	r1, #0
10004322:	d10c      	bne.n	1000433e <ph_remove_and_free_node+0x11a>
10004324:	701f      	strb	r7, [r3, #0]
10004326:	0037      	movs	r7, r6
10004328:	e7ae      	b.n	10004288 <ph_remove_and_free_node+0x64>
1000432a:	4641      	mov	r1, r8
1000432c:	18d3      	adds	r3, r2, r3
1000432e:	1851      	adds	r1, r2, r1
10004330:	709f      	strb	r7, [r3, #2]
10004332:	780a      	ldrb	r2, [r1, #0]
10004334:	2a00      	cmp	r2, #0
10004336:	d000      	beq.n	1000433a <ph_remove_and_free_node+0x116>
10004338:	705a      	strb	r2, [r3, #1]
1000433a:	700e      	strb	r6, [r1, #0]
1000433c:	e7a4      	b.n	10004288 <ph_remove_and_free_node+0x64>
1000433e:	7051      	strb	r1, [r2, #1]
10004340:	e7f0      	b.n	10004324 <ph_remove_and_free_node+0x100>
10004342:	73ef      	strb	r7, [r5, #15]
10004344:	e7c3      	b.n	100042ce <ph_remove_and_free_node+0xaa>
10004346:	73ec      	strb	r4, [r5, #15]
10004348:	e79c      	b.n	10004284 <ph_remove_and_free_node+0x60>
1000434a:	0014      	movs	r4, r2
1000434c:	46a4      	mov	ip, r4
1000434e:	0052      	lsls	r2, r2, #1
10004350:	4462      	add	r2, ip
10004352:	3a03      	subs	r2, #3
10004354:	4690      	mov	r8, r2
10004356:	188a      	adds	r2, r1, r2
10004358:	7854      	ldrb	r4, [r2, #1]
1000435a:	46a1      	mov	r9, r4
1000435c:	2c00      	cmp	r4, #0
1000435e:	d158      	bne.n	10004412 <ph_remove_and_free_node+0x1ee>
10004360:	7beb      	ldrb	r3, [r5, #15]
10004362:	2b00      	cmp	r3, #0
10004364:	d000      	beq.n	10004368 <ph_remove_and_free_node+0x144>
10004366:	e0f7      	b.n	10004558 <ph_remove_and_free_node+0x334>
10004368:	73ef      	strb	r7, [r5, #15]
1000436a:	2300      	movs	r3, #0
1000436c:	7093      	strb	r3, [r2, #2]
1000436e:	e7ae      	b.n	100042ce <ph_remove_and_free_node+0xaa>
10004370:	0078      	lsls	r0, r7, #1
10004372:	19c0      	adds	r0, r0, r7
10004374:	3803      	subs	r0, #3
10004376:	4682      	mov	sl, r0
10004378:	4451      	add	r1, sl
1000437a:	7848      	ldrb	r0, [r1, #1]
1000437c:	704b      	strb	r3, [r1, #1]
1000437e:	7053      	strb	r3, [r2, #1]
10004380:	686b      	ldr	r3, [r5, #4]
10004382:	4683      	mov	fp, r0
10004384:	003a      	movs	r2, r7
10004386:	4649      	mov	r1, r9
10004388:	68a8      	ldr	r0, [r5, #8]
1000438a:	4798      	blx	r3
1000438c:	682b      	ldr	r3, [r5, #0]
1000438e:	2800      	cmp	r0, #0
10004390:	d100      	bne.n	10004394 <ph_remove_and_free_node+0x170>
10004392:	e0a2      	b.n	100044da <ph_remove_and_free_node+0x2b6>
10004394:	4642      	mov	r2, r8
10004396:	1898      	adds	r0, r3, r2
10004398:	4652      	mov	r2, sl
1000439a:	1899      	adds	r1, r3, r2
1000439c:	464a      	mov	r2, r9
1000439e:	708a      	strb	r2, [r1, #2]
100043a0:	9001      	str	r0, [sp, #4]
100043a2:	0002      	movs	r2, r0
100043a4:	7800      	ldrb	r0, [r0, #0]
100043a6:	2800      	cmp	r0, #0
100043a8:	d001      	beq.n	100043ae <ph_remove_and_free_node+0x18a>
100043aa:	9a01      	ldr	r2, [sp, #4]
100043ac:	7048      	strb	r0, [r1, #1]
100043ae:	7017      	strb	r7, [r2, #0]
100043b0:	464f      	mov	r7, r9
100043b2:	465a      	mov	r2, fp
100043b4:	2a00      	cmp	r2, #0
100043b6:	d028      	beq.n	1000440a <ph_remove_and_free_node+0x1e6>
100043b8:	4659      	mov	r1, fp
100043ba:	0028      	movs	r0, r5
100043bc:	f7ff fe02 	bl	10003fc4 <ph_merge_two_pass.part.3>
100043c0:	4681      	mov	r9, r0
100043c2:	2800      	cmp	r0, #0
100043c4:	d020      	beq.n	10004408 <ph_remove_and_free_node+0x1e4>
100043c6:	0002      	movs	r2, r0
100043c8:	686b      	ldr	r3, [r5, #4]
100043ca:	0039      	movs	r1, r7
100043cc:	68a8      	ldr	r0, [r5, #8]
100043ce:	4798      	blx	r3
100043d0:	464b      	mov	r3, r9
100043d2:	005b      	lsls	r3, r3, #1
100043d4:	444b      	add	r3, r9
100043d6:	3b03      	subs	r3, #3
100043d8:	469c      	mov	ip, r3
100043da:	2800      	cmp	r0, #0
100043dc:	d06d      	beq.n	100044ba <ph_remove_and_free_node+0x296>
100043de:	4642      	mov	r2, r8
100043e0:	682b      	ldr	r3, [r5, #0]
100043e2:	1898      	adds	r0, r3, r2
100043e4:	4662      	mov	r2, ip
100043e6:	1899      	adds	r1, r3, r2
100043e8:	708f      	strb	r7, [r1, #2]
100043ea:	9001      	str	r0, [sp, #4]
100043ec:	7800      	ldrb	r0, [r0, #0]
100043ee:	2800      	cmp	r0, #0
100043f0:	d000      	beq.n	100043f4 <ph_remove_and_free_node+0x1d0>
100043f2:	e083      	b.n	100044fc <ph_remove_and_free_node+0x2d8>
100043f4:	464a      	mov	r2, r9
100043f6:	9801      	ldr	r0, [sp, #4]
100043f8:	7002      	strb	r2, [r0, #0]
100043fa:	7be9      	ldrb	r1, [r5, #15]
100043fc:	1998      	adds	r0, r3, r6
100043fe:	7b6e      	ldrb	r6, [r5, #13]
10004400:	2900      	cmp	r1, #0
10004402:	d151      	bne.n	100044a8 <ph_remove_and_free_node+0x284>
10004404:	9a01      	ldr	r2, [sp, #4]
10004406:	e776      	b.n	100042f6 <ph_remove_and_free_node+0xd2>
10004408:	682b      	ldr	r3, [r5, #0]
1000440a:	4642      	mov	r2, r8
1000440c:	189a      	adds	r2, r3, r2
1000440e:	9201      	str	r2, [sp, #4]
10004410:	e7f3      	b.n	100043fa <ph_remove_and_free_node+0x1d6>
10004412:	0060      	lsls	r0, r4, #1
10004414:	4448      	add	r0, r9
10004416:	3803      	subs	r0, #3
10004418:	4682      	mov	sl, r0
1000441a:	4451      	add	r1, sl
1000441c:	7848      	ldrb	r0, [r1, #1]
1000441e:	704b      	strb	r3, [r1, #1]
10004420:	7053      	strb	r3, [r2, #1]
10004422:	4661      	mov	r1, ip
10004424:	0022      	movs	r2, r4
10004426:	4683      	mov	fp, r0
10004428:	686b      	ldr	r3, [r5, #4]
1000442a:	68a8      	ldr	r0, [r5, #8]
1000442c:	4664      	mov	r4, ip
1000442e:	4798      	blx	r3
10004430:	6829      	ldr	r1, [r5, #0]
10004432:	2800      	cmp	r0, #0
10004434:	d078      	beq.n	10004528 <ph_remove_and_free_node+0x304>
10004436:	4652      	mov	r2, sl
10004438:	4643      	mov	r3, r8
1000443a:	188a      	adds	r2, r1, r2
1000443c:	18cb      	adds	r3, r1, r3
1000443e:	7094      	strb	r4, [r2, #2]
10004440:	7818      	ldrb	r0, [r3, #0]
10004442:	2800      	cmp	r0, #0
10004444:	d000      	beq.n	10004448 <ph_remove_and_free_node+0x224>
10004446:	7050      	strb	r0, [r2, #1]
10004448:	464a      	mov	r2, r9
1000444a:	46c2      	mov	sl, r8
1000444c:	701a      	strb	r2, [r3, #0]
1000444e:	465b      	mov	r3, fp
10004450:	2b00      	cmp	r3, #0
10004452:	d050      	beq.n	100044f6 <ph_remove_and_free_node+0x2d2>
10004454:	4659      	mov	r1, fp
10004456:	0028      	movs	r0, r5
10004458:	f7ff fdb4 	bl	10003fc4 <ph_merge_two_pass.part.3>
1000445c:	4680      	mov	r8, r0
1000445e:	2800      	cmp	r0, #0
10004460:	d048      	beq.n	100044f4 <ph_remove_and_free_node+0x2d0>
10004462:	9c01      	ldr	r4, [sp, #4]
10004464:	0002      	movs	r2, r0
10004466:	0021      	movs	r1, r4
10004468:	686b      	ldr	r3, [r5, #4]
1000446a:	68a8      	ldr	r0, [r5, #8]
1000446c:	4798      	blx	r3
1000446e:	4643      	mov	r3, r8
10004470:	005a      	lsls	r2, r3, #1
10004472:	4442      	add	r2, r8
10004474:	1ed3      	subs	r3, r2, #3
10004476:	6829      	ldr	r1, [r5, #0]
10004478:	2800      	cmp	r0, #0
1000447a:	d044      	beq.n	10004506 <ph_remove_and_free_node+0x2e2>
1000447c:	4652      	mov	r2, sl
1000447e:	18cb      	adds	r3, r1, r3
10004480:	188a      	adds	r2, r1, r2
10004482:	709c      	strb	r4, [r3, #2]
10004484:	7810      	ldrb	r0, [r2, #0]
10004486:	2800      	cmp	r0, #0
10004488:	d000      	beq.n	1000448c <ph_remove_and_free_node+0x268>
1000448a:	7058      	strb	r0, [r3, #1]
1000448c:	4643      	mov	r3, r8
1000448e:	7013      	strb	r3, [r2, #0]
10004490:	7beb      	ldrb	r3, [r5, #15]
10004492:	1988      	adds	r0, r1, r6
10004494:	2b00      	cmp	r3, #0
10004496:	d100      	bne.n	1000449a <ph_remove_and_free_node+0x276>
10004498:	e766      	b.n	10004368 <ph_remove_and_free_node+0x144>
1000449a:	005e      	lsls	r6, r3, #1
1000449c:	18f3      	adds	r3, r6, r3
1000449e:	18c9      	adds	r1, r1, r3
100044a0:	3903      	subs	r1, #3
100044a2:	704f      	strb	r7, [r1, #1]
100044a4:	73ef      	strb	r7, [r5, #15]
100044a6:	e760      	b.n	1000436a <ph_remove_and_free_node+0x146>
100044a8:	004a      	lsls	r2, r1, #1
100044aa:	4694      	mov	ip, r2
100044ac:	4461      	add	r1, ip
100044ae:	185b      	adds	r3, r3, r1
100044b0:	3b03      	subs	r3, #3
100044b2:	705c      	strb	r4, [r3, #1]
100044b4:	9a01      	ldr	r2, [sp, #4]
100044b6:	73ec      	strb	r4, [r5, #15]
100044b8:	e71e      	b.n	100042f8 <ph_remove_and_free_node+0xd4>
100044ba:	6829      	ldr	r1, [r5, #0]
100044bc:	4648      	mov	r0, r9
100044be:	18ca      	adds	r2, r1, r3
100044c0:	4643      	mov	r3, r8
100044c2:	18cb      	adds	r3, r1, r3
100044c4:	7098      	strb	r0, [r3, #2]
100044c6:	7810      	ldrb	r0, [r2, #0]
100044c8:	4680      	mov	r8, r0
100044ca:	1988      	adds	r0, r1, r6
100044cc:	4646      	mov	r6, r8
100044ce:	2e00      	cmp	r6, #0
100044d0:	d000      	beq.n	100044d4 <ph_remove_and_free_node+0x2b0>
100044d2:	705e      	strb	r6, [r3, #1]
100044d4:	7017      	strb	r7, [r2, #0]
100044d6:	46e0      	mov	r8, ip
100044d8:	e707      	b.n	100042ea <ph_remove_and_free_node+0xc6>
100044da:	4641      	mov	r1, r8
100044dc:	4652      	mov	r2, sl
100044de:	1859      	adds	r1, r3, r1
100044e0:	189a      	adds	r2, r3, r2
100044e2:	708f      	strb	r7, [r1, #2]
100044e4:	7810      	ldrb	r0, [r2, #0]
100044e6:	2800      	cmp	r0, #0
100044e8:	d000      	beq.n	100044ec <ph_remove_and_free_node+0x2c8>
100044ea:	7048      	strb	r0, [r1, #1]
100044ec:	4649      	mov	r1, r9
100044ee:	46d0      	mov	r8, sl
100044f0:	7011      	strb	r1, [r2, #0]
100044f2:	e75e      	b.n	100043b2 <ph_remove_and_free_node+0x18e>
100044f4:	6829      	ldr	r1, [r5, #0]
100044f6:	4653      	mov	r3, sl
100044f8:	18ca      	adds	r2, r1, r3
100044fa:	e7c9      	b.n	10004490 <ph_remove_and_free_node+0x26c>
100044fc:	464a      	mov	r2, r9
100044fe:	7048      	strb	r0, [r1, #1]
10004500:	9901      	ldr	r1, [sp, #4]
10004502:	700a      	strb	r2, [r1, #0]
10004504:	e779      	b.n	100043fa <ph_remove_and_free_node+0x1d6>
10004506:	18ca      	adds	r2, r1, r3
10004508:	4653      	mov	r3, sl
1000450a:	4640      	mov	r0, r8
1000450c:	18cb      	adds	r3, r1, r3
1000450e:	7098      	strb	r0, [r3, #2]
10004510:	7810      	ldrb	r0, [r2, #0]
10004512:	4684      	mov	ip, r0
10004514:	4664      	mov	r4, ip
10004516:	1988      	adds	r0, r1, r6
10004518:	2c00      	cmp	r4, #0
1000451a:	d000      	beq.n	1000451e <ph_remove_and_free_node+0x2fa>
1000451c:	705c      	strb	r4, [r3, #1]
1000451e:	9b01      	ldr	r3, [sp, #4]
10004520:	7013      	strb	r3, [r2, #0]
10004522:	4643      	mov	r3, r8
10004524:	9301      	str	r3, [sp, #4]
10004526:	e71b      	b.n	10004360 <ph_remove_and_free_node+0x13c>
10004528:	4653      	mov	r3, sl
1000452a:	18ca      	adds	r2, r1, r3
1000452c:	4643      	mov	r3, r8
1000452e:	4648      	mov	r0, r9
10004530:	18cb      	adds	r3, r1, r3
10004532:	7098      	strb	r0, [r3, #2]
10004534:	7810      	ldrb	r0, [r2, #0]
10004536:	2800      	cmp	r0, #0
10004538:	d000      	beq.n	1000453c <ph_remove_and_free_node+0x318>
1000453a:	7058      	strb	r0, [r3, #1]
1000453c:	9b01      	ldr	r3, [sp, #4]
1000453e:	7013      	strb	r3, [r2, #0]
10004540:	464b      	mov	r3, r9
10004542:	9301      	str	r3, [sp, #4]
10004544:	e783      	b.n	1000444e <ph_remove_and_free_node+0x22a>
10004546:	2603      	movs	r6, #3
10004548:	4373      	muls	r3, r6
1000454a:	18c9      	adds	r1, r1, r3
1000454c:	3903      	subs	r1, #3
1000454e:	704c      	strb	r4, [r1, #1]
10004550:	7b6e      	ldrb	r6, [r5, #13]
10004552:	73ec      	strb	r4, [r5, #15]
10004554:	464f      	mov	r7, r9
10004556:	e6cf      	b.n	100042f8 <ph_remove_and_free_node+0xd4>
10004558:	2603      	movs	r6, #3
1000455a:	4373      	muls	r3, r6
1000455c:	18c9      	adds	r1, r1, r3
1000455e:	3903      	subs	r1, #3
10004560:	704f      	strb	r7, [r1, #1]
10004562:	e701      	b.n	10004368 <ph_remove_and_free_node+0x144>

10004564 <mutex_init>:
10004564:	b510      	push	{r4, lr}
10004566:	0004      	movs	r4, r0
10004568:	f7fe fb44 	bl	10002bf4 <next_striped_spin_lock_num>
1000456c:	0001      	movs	r1, r0
1000456e:	0020      	movs	r0, r4
10004570:	f7fe fe00 	bl	10003174 <lock_init>
10004574:	23ff      	movs	r3, #255	; 0xff
10004576:	7123      	strb	r3, [r4, #4]
10004578:	f3bf 8f5f 	dmb	sy
1000457c:	bd10      	pop	{r4, pc}
1000457e:	46c0      	nop			; (mov r8, r8)

10004580 <recursive_mutex_init>:
10004580:	b510      	push	{r4, lr}
10004582:	0004      	movs	r4, r0
10004584:	f7fe fb36 	bl	10002bf4 <next_striped_spin_lock_num>
10004588:	0001      	movs	r1, r0
1000458a:	0020      	movs	r0, r4
1000458c:	f7fe fdf2 	bl	10003174 <lock_init>
10004590:	23ff      	movs	r3, #255	; 0xff
10004592:	80a3      	strh	r3, [r4, #4]
10004594:	f3bf 8f5f 	dmb	sy
10004598:	bd10      	pop	{r4, pc}
1000459a:	46c0      	nop			; (mov r8, r8)

1000459c <critical_section_init>:
1000459c:	b510      	push	{r4, lr}
1000459e:	0004      	movs	r4, r0
100045a0:	2001      	movs	r0, #1
100045a2:	f7fe fb33 	bl	10002c0c <spin_lock_claim_unused>
100045a6:	4b04      	ldr	r3, [pc, #16]	; (100045b8 <critical_section_init+0x1c>)
100045a8:	469c      	mov	ip, r3
100045aa:	4460      	add	r0, ip
100045ac:	0080      	lsls	r0, r0, #2
100045ae:	6020      	str	r0, [r4, #0]
100045b0:	f3bf 8f5f 	dmb	sy
100045b4:	bd10      	pop	{r4, pc}
100045b6:	46c0      	nop			; (mov r8, r8)
100045b8:	34000040 	.word	0x34000040

100045bc <uart_init>:
100045bc:	b5f8      	push	{r3, r4, r5, r6, r7, lr}
100045be:	0004      	movs	r4, r0
100045c0:	2006      	movs	r0, #6
100045c2:	000d      	movs	r5, r1
100045c4:	f000 fa6c 	bl	10004aa0 <clock_get_hz>
100045c8:	0003      	movs	r3, r0
100045ca:	2000      	movs	r0, #0
100045cc:	2b00      	cmp	r3, #0
100045ce:	d051      	beq.n	10004674 <uart_init+0xb8>
100045d0:	4b2b      	ldr	r3, [pc, #172]	; (10004680 <uart_init+0xc4>)
100045d2:	492c      	ldr	r1, [pc, #176]	; (10004684 <uart_init+0xc8>)
100045d4:	18e3      	adds	r3, r4, r3
100045d6:	1e5a      	subs	r2, r3, #1
100045d8:	4193      	sbcs	r3, r2
100045da:	2280      	movs	r2, #128	; 0x80
100045dc:	0412      	lsls	r2, r2, #16
100045de:	4694      	mov	ip, r2
100045e0:	425b      	negs	r3, r3
100045e2:	4a29      	ldr	r2, [pc, #164]	; (10004688 <uart_init+0xcc>)
100045e4:	059b      	lsls	r3, r3, #22
100045e6:	4463      	add	r3, ip
100045e8:	6013      	str	r3, [r2, #0]
100045ea:	4a28      	ldr	r2, [pc, #160]	; (1000468c <uart_init+0xd0>)
100045ec:	6013      	str	r3, [r2, #0]
100045ee:	0018      	movs	r0, r3
100045f0:	688a      	ldr	r2, [r1, #8]
100045f2:	4390      	bics	r0, r2
100045f4:	d1fb      	bne.n	100045ee <uart_init+0x32>
100045f6:	4b22      	ldr	r3, [pc, #136]	; (10004680 <uart_init+0xc4>)
100045f8:	2180      	movs	r1, #128	; 0x80
100045fa:	18e3      	adds	r3, r4, r3
100045fc:	425a      	negs	r2, r3
100045fe:	4153      	adcs	r3, r2
10004600:	4a23      	ldr	r2, [pc, #140]	; (10004690 <uart_init+0xd4>)
10004602:	005b      	lsls	r3, r3, #1
10004604:	0049      	lsls	r1, r1, #1
10004606:	2006      	movs	r0, #6
10004608:	5299      	strh	r1, [r3, r2]
1000460a:	f000 fa49 	bl	10004aa0 <clock_get_hz>
1000460e:	0029      	movs	r1, r5
10004610:	00c0      	lsls	r0, r0, #3
10004612:	f000 fb83 	bl	10004d1c <__wrap___aeabi_uidiv>
10004616:	09c3      	lsrs	r3, r0, #7
10004618:	d00b      	beq.n	10004632 <uart_init+0x76>
1000461a:	4a1e      	ldr	r2, [pc, #120]	; (10004694 <uart_init+0xd8>)
1000461c:	4293      	cmp	r3, r2
1000461e:	d82a      	bhi.n	10004676 <uart_init+0xba>
10004620:	227f      	movs	r2, #127	; 0x7f
10004622:	4010      	ands	r0, r2
10004624:	3001      	adds	r0, #1
10004626:	0840      	lsrs	r0, r0, #1
10004628:	019f      	lsls	r7, r3, #6
1000462a:	001a      	movs	r2, r3
1000462c:	183f      	adds	r7, r7, r0
1000462e:	0003      	movs	r3, r0
10004630:	e001      	b.n	10004636 <uart_init+0x7a>
10004632:	2740      	movs	r7, #64	; 0x40
10004634:	2201      	movs	r2, #1
10004636:	0026      	movs	r6, r4
10004638:	2580      	movs	r5, #128	; 0x80
1000463a:	6262      	str	r2, [r4, #36]	; 0x24
1000463c:	62a3      	str	r3, [r4, #40]	; 0x28
1000463e:	2300      	movs	r3, #0
10004640:	362c      	adds	r6, #44	; 0x2c
10004642:	01ad      	lsls	r5, r5, #6
10004644:	4335      	orrs	r5, r6
10004646:	602b      	str	r3, [r5, #0]
10004648:	2006      	movs	r0, #6
1000464a:	f000 fa29 	bl	10004aa0 <clock_get_hz>
1000464e:	0039      	movs	r1, r7
10004650:	0080      	lsls	r0, r0, #2
10004652:	f000 fb63 	bl	10004d1c <__wrap___aeabi_uidiv>
10004656:	2360      	movs	r3, #96	; 0x60
10004658:	6ae2      	ldr	r2, [r4, #44]	; 0x2c
1000465a:	4053      	eors	r3, r2
1000465c:	226e      	movs	r2, #110	; 0x6e
1000465e:	401a      	ands	r2, r3
10004660:	2380      	movs	r3, #128	; 0x80
10004662:	015b      	lsls	r3, r3, #5
10004664:	4333      	orrs	r3, r6
10004666:	601a      	str	r2, [r3, #0]
10004668:	4b0b      	ldr	r3, [pc, #44]	; (10004698 <uart_init+0xdc>)
1000466a:	6323      	str	r3, [r4, #48]	; 0x30
1000466c:	2310      	movs	r3, #16
1000466e:	602b      	str	r3, [r5, #0]
10004670:	3b0d      	subs	r3, #13
10004672:	64a3      	str	r3, [r4, #72]	; 0x48
10004674:	bdf8      	pop	{r3, r4, r5, r6, r7, pc}
10004676:	4f09      	ldr	r7, [pc, #36]	; (1000469c <uart_init+0xe0>)
10004678:	2300      	movs	r3, #0
1000467a:	4a09      	ldr	r2, [pc, #36]	; (100046a0 <uart_init+0xe4>)
1000467c:	e7db      	b.n	10004636 <uart_init+0x7a>
1000467e:	46c0      	nop			; (mov r8, r8)
10004680:	bffc8000 	.word	0xbffc8000
10004684:	4000c000 	.word	0x4000c000
10004688:	4000e000 	.word	0x4000e000
1000468c:	4000f000 	.word	0x4000f000
10004690:	200016bc 	.word	0x200016bc
10004694:	0000fffe 	.word	0x0000fffe
10004698:	00000301 	.word	0x00000301
1000469c:	003fffc0 	.word	0x003fffc0
100046a0:	0000ffff 	.word	0x0000ffff

100046a4 <runtime_init>:
100046a4:	4b2d      	ldr	r3, [pc, #180]	; (1000475c <runtime_init+0xb8>)
100046a6:	4a2e      	ldr	r2, [pc, #184]	; (10004760 <runtime_init+0xbc>)
100046a8:	b570      	push	{r4, r5, r6, lr}
100046aa:	601a      	str	r2, [r3, #0]
100046ac:	4a2d      	ldr	r2, [pc, #180]	; (10004764 <runtime_init+0xc0>)
100046ae:	4b2e      	ldr	r3, [pc, #184]	; (10004768 <runtime_init+0xc4>)
100046b0:	492e      	ldr	r1, [pc, #184]	; (1000476c <runtime_init+0xc8>)
100046b2:	601a      	str	r2, [r3, #0]
100046b4:	0010      	movs	r0, r2
100046b6:	688b      	ldr	r3, [r1, #8]
100046b8:	4398      	bics	r0, r3
100046ba:	d1fb      	bne.n	100046b4 <runtime_init+0x10>
100046bc:	4c2c      	ldr	r4, [pc, #176]	; (10004770 <runtime_init+0xcc>)
100046be:	4d2d      	ldr	r5, [pc, #180]	; (10004774 <runtime_init+0xd0>)
100046c0:	42ac      	cmp	r4, r5
100046c2:	d209      	bcs.n	100046d8 <runtime_init+0x34>
100046c4:	2203      	movs	r2, #3
100046c6:	1d23      	adds	r3, r4, #4
100046c8:	3503      	adds	r5, #3
100046ca:	1aed      	subs	r5, r5, r3
100046cc:	4395      	bics	r5, r2
100046ce:	18ed      	adds	r5, r5, r3
100046d0:	cc08      	ldmia	r4!, {r3}
100046d2:	4798      	blx	r3
100046d4:	42ac      	cmp	r4, r5
100046d6:	d1fb      	bne.n	100046d0 <runtime_init+0x2c>
100046d8:	f000 f87e 	bl	100047d8 <clocks_init>
100046dc:	4a26      	ldr	r2, [pc, #152]	; (10004778 <runtime_init+0xd4>)
100046de:	4b22      	ldr	r3, [pc, #136]	; (10004768 <runtime_init+0xc4>)
100046e0:	601a      	str	r2, [r3, #0]
100046e2:	4a22      	ldr	r2, [pc, #136]	; (1000476c <runtime_init+0xc8>)
100046e4:	6893      	ldr	r3, [r2, #8]
100046e6:	01db      	lsls	r3, r3, #7
100046e8:	3380      	adds	r3, #128	; 0x80
100046ea:	d1fb      	bne.n	100046e4 <runtime_init+0x40>
100046ec:	2240      	movs	r2, #64	; 0x40
100046ee:	4b23      	ldr	r3, [pc, #140]	; (1000477c <runtime_init+0xd8>)
100046f0:	4823      	ldr	r0, [pc, #140]	; (10004780 <runtime_init+0xdc>)
100046f2:	4d24      	ldr	r5, [pc, #144]	; (10004784 <runtime_init+0xe0>)
100046f4:	679a      	str	r2, [r3, #120]	; 0x78
100046f6:	675a      	str	r2, [r3, #116]	; 0x74
100046f8:	671a      	str	r2, [r3, #112]	; 0x70
100046fa:	66da      	str	r2, [r3, #108]	; 0x6c
100046fc:	42a8      	cmp	r0, r5
100046fe:	d305      	bcc.n	1000470c <runtime_init+0x68>
10004700:	e00e      	b.n	10004720 <runtime_init+0x7c>
10004702:	f7ff ff3d 	bl	10004580 <recursive_mutex_init>
10004706:	0020      	movs	r0, r4
10004708:	42ac      	cmp	r4, r5
1000470a:	d209      	bcs.n	10004720 <runtime_init+0x7c>
1000470c:	0004      	movs	r4, r0
1000470e:	6803      	ldr	r3, [r0, #0]
10004710:	3408      	adds	r4, #8
10004712:	2b00      	cmp	r3, #0
10004714:	d1f5      	bne.n	10004702 <runtime_init+0x5e>
10004716:	f7ff ff25 	bl	10004564 <mutex_init>
1000471a:	0020      	movs	r0, r4
1000471c:	42ac      	cmp	r4, r5
1000471e:	d3f5      	bcc.n	1000470c <runtime_init+0x68>
10004720:	4d19      	ldr	r5, [pc, #100]	; (10004788 <runtime_init+0xe4>)
10004722:	4c1a      	ldr	r4, [pc, #104]	; (1000478c <runtime_init+0xe8>)
10004724:	22c0      	movs	r2, #192	; 0xc0
10004726:	68a1      	ldr	r1, [r4, #8]
10004728:	0028      	movs	r0, r5
1000472a:	f000 fbd5 	bl	10004ed8 <__wrap___aeabi_memcpy>
1000472e:	60a5      	str	r5, [r4, #8]
10004730:	f7fe fa52 	bl	10002bd8 <spin_locks_reset>
10004734:	f7fe fcf4 	bl	10003120 <irq_init_priorities>
10004738:	f7fe fee2 	bl	10003500 <alarm_pool_init_default>
1000473c:	4c14      	ldr	r4, [pc, #80]	; (10004790 <runtime_init+0xec>)
1000473e:	4d15      	ldr	r5, [pc, #84]	; (10004794 <runtime_init+0xf0>)
10004740:	42ac      	cmp	r4, r5
10004742:	d209      	bcs.n	10004758 <runtime_init+0xb4>
10004744:	2203      	movs	r2, #3
10004746:	1d23      	adds	r3, r4, #4
10004748:	3503      	adds	r5, #3
1000474a:	1aed      	subs	r5, r5, r3
1000474c:	4395      	bics	r5, r2
1000474e:	18ed      	adds	r5, r5, r3
10004750:	cc08      	ldmia	r4!, {r3}
10004752:	4798      	blx	r3
10004754:	42a5      	cmp	r5, r4
10004756:	d1fb      	bne.n	10004750 <runtime_init+0xac>
10004758:	bd70      	pop	{r4, r5, r6, pc}
1000475a:	46c0      	nop			; (mov r8, r8)
1000475c:	4000e000 	.word	0x4000e000
10004760:	fefbcdbf 	.word	0xfefbcdbf
10004764:	003c7ffe 	.word	0x003c7ffe
10004768:	4000f000 	.word	0x4000f000
1000476c:	4000c000 	.word	0x4000c000
10004770:	2000063c 	.word	0x2000063c
10004774:	2000064c 	.word	0x2000064c
10004778:	01ffffff 	.word	0x01ffffff
1000477c:	4001f000 	.word	0x4001f000
10004780:	20000634 	.word	0x20000634
10004784:	2000063c 	.word	0x2000063c
10004788:	20000000 	.word	0x20000000
1000478c:	e000ed00 	.word	0xe000ed00
10004790:	2000064c 	.word	0x2000064c
10004794:	2000065c 	.word	0x2000065c

10004798 <exit>:
10004798:	be00      	bkpt	0x0000
1000479a:	e7fd      	b.n	10004798 <exit>

1000479c <panic>:
1000479c:	b40f      	push	{r0, r1, r2, r3}
1000479e:	b500      	push	{lr}
100047a0:	4808      	ldr	r0, [pc, #32]	; (100047c4 <panic+0x28>)
100047a2:	b083      	sub	sp, #12
100047a4:	f000 fc3c 	bl	10005020 <__wrap_puts>
100047a8:	9b04      	ldr	r3, [sp, #16]
100047aa:	2b00      	cmp	r3, #0
100047ac:	d007      	beq.n	100047be <panic+0x22>
100047ae:	a905      	add	r1, sp, #20
100047b0:	0018      	movs	r0, r3
100047b2:	9101      	str	r1, [sp, #4]
100047b4:	f000 fa3c 	bl	10004c30 <weak_raw_vprintf>
100047b8:	4803      	ldr	r0, [pc, #12]	; (100047c8 <panic+0x2c>)
100047ba:	f000 fc31 	bl	10005020 <__wrap_puts>
100047be:	be00      	bkpt	0x0000
100047c0:	e7fd      	b.n	100047be <panic+0x22>
100047c2:	46c0      	nop			; (mov r8, r8)
100047c4:	10008b20 	.word	0x10008b20
100047c8:	10008b30 	.word	0x10008b30

100047cc <hard_assertion_failure>:
100047cc:	b510      	push	{r4, lr}
100047ce:	4801      	ldr	r0, [pc, #4]	; (100047d4 <hard_assertion_failure+0x8>)
100047d0:	f7ff ffe4 	bl	1000479c <panic>
100047d4:	10008b14 	.word	0x10008b14

100047d8 <clocks_init>:
100047d8:	b530      	push	{r4, r5, lr}
100047da:	200c      	movs	r0, #12
100047dc:	b083      	sub	sp, #12
100047de:	f000 f9b9 	bl	10004b54 <watchdog_start_tick>
100047e2:	f7fe f9f1 	bl	10002bc8 <running_on_fpga>
100047e6:	2800      	cmp	r0, #0
100047e8:	d00e      	beq.n	10004808 <clocks_init+0x30>
100047ea:	4b96      	ldr	r3, [pc, #600]	; (10004a44 <clocks_init+0x26c>)
100047ec:	4a96      	ldr	r2, [pc, #600]	; (10004a48 <clocks_init+0x270>)
100047ee:	601a      	str	r2, [r3, #0]
100047f0:	605a      	str	r2, [r3, #4]
100047f2:	609a      	str	r2, [r3, #8]
100047f4:	60da      	str	r2, [r3, #12]
100047f6:	611a      	str	r2, [r3, #16]
100047f8:	615a      	str	r2, [r3, #20]
100047fa:	619a      	str	r2, [r3, #24]
100047fc:	61da      	str	r2, [r3, #28]
100047fe:	621a      	str	r2, [r3, #32]
10004800:	4a92      	ldr	r2, [pc, #584]	; (10004a4c <clocks_init+0x274>)
10004802:	625a      	str	r2, [r3, #36]	; 0x24
10004804:	b003      	add	sp, #12
10004806:	bd30      	pop	{r4, r5, pc}
10004808:	4c91      	ldr	r4, [pc, #580]	; (10004a50 <clocks_init+0x278>)
1000480a:	67a0      	str	r0, [r4, #120]	; 0x78
1000480c:	f000 f9f6 	bl	10004bfc <xosc_init>
10004810:	2201      	movs	r2, #1
10004812:	4b90      	ldr	r3, [pc, #576]	; (10004a54 <clocks_init+0x27c>)
10004814:	601a      	str	r2, [r3, #0]
10004816:	6c63      	ldr	r3, [r4, #68]	; 0x44
10004818:	2b01      	cmp	r3, #1
1000481a:	d1fc      	bne.n	10004816 <clocks_init+0x3e>
1000481c:	2203      	movs	r2, #3
1000481e:	4b8e      	ldr	r3, [pc, #568]	; (10004a58 <clocks_init+0x280>)
10004820:	601a      	str	r2, [r3, #0]
10004822:	4a8b      	ldr	r2, [pc, #556]	; (10004a50 <clocks_init+0x278>)
10004824:	6b93      	ldr	r3, [r2, #56]	; 0x38
10004826:	2b01      	cmp	r3, #1
10004828:	d1fc      	bne.n	10004824 <clocks_init+0x4c>
1000482a:	3301      	adds	r3, #1
1000482c:	9300      	str	r3, [sp, #0]
1000482e:	4a8b      	ldr	r2, [pc, #556]	; (10004a5c <clocks_init+0x284>)
10004830:	3304      	adds	r3, #4
10004832:	2101      	movs	r1, #1
10004834:	488a      	ldr	r0, [pc, #552]	; (10004a60 <clocks_init+0x288>)
10004836:	f000 f939 	bl	10004aac <pll_init>
1000483a:	2305      	movs	r3, #5
1000483c:	4a89      	ldr	r2, [pc, #548]	; (10004a64 <clocks_init+0x28c>)
1000483e:	9300      	str	r3, [sp, #0]
10004840:	2101      	movs	r1, #1
10004842:	4889      	ldr	r0, [pc, #548]	; (10004a68 <clocks_init+0x290>)
10004844:	f000 f932 	bl	10004aac <pll_init>
10004848:	4b88      	ldr	r3, [pc, #544]	; (10004a6c <clocks_init+0x294>)
1000484a:	685a      	ldr	r2, [r3, #4]
1000484c:	2aff      	cmp	r2, #255	; 0xff
1000484e:	d802      	bhi.n	10004856 <clocks_init+0x7e>
10004850:	2280      	movs	r2, #128	; 0x80
10004852:	0052      	lsls	r2, r2, #1
10004854:	605a      	str	r2, [r3, #4]
10004856:	2280      	movs	r2, #128	; 0x80
10004858:	4c7a      	ldr	r4, [pc, #488]	; (10004a44 <clocks_init+0x26c>)
1000485a:	4b7f      	ldr	r3, [pc, #508]	; (10004a58 <clocks_init+0x280>)
1000485c:	6921      	ldr	r1, [r4, #16]
1000485e:	0112      	lsls	r2, r2, #4
10004860:	4d82      	ldr	r5, [pc, #520]	; (10004a6c <clocks_init+0x294>)
10004862:	601a      	str	r2, [r3, #0]
10004864:	2900      	cmp	r1, #0
10004866:	d000      	beq.n	1000486a <clocks_init+0x92>
10004868:	e0e5      	b.n	10004a36 <clocks_init+0x25e>
1000486a:	21e0      	movs	r1, #224	; 0xe0
1000486c:	4b7f      	ldr	r3, [pc, #508]	; (10004a6c <clocks_init+0x294>)
1000486e:	2002      	movs	r0, #2
10004870:	681a      	ldr	r2, [r3, #0]
10004872:	4011      	ands	r1, r2
10004874:	2280      	movs	r2, #128	; 0x80
10004876:	0152      	lsls	r2, r2, #5
10004878:	432a      	orrs	r2, r5
1000487a:	6011      	str	r1, [r2, #0]
1000487c:	6819      	ldr	r1, [r3, #0]
1000487e:	4048      	eors	r0, r1
10004880:	2103      	movs	r1, #3
10004882:	4001      	ands	r1, r0
10004884:	6011      	str	r1, [r2, #0]
10004886:	2104      	movs	r1, #4
10004888:	689a      	ldr	r2, [r3, #8]
1000488a:	4211      	tst	r1, r2
1000488c:	d0fc      	beq.n	10004888 <clocks_init+0xb0>
1000488e:	2280      	movs	r2, #128	; 0x80
10004890:	2180      	movs	r1, #128	; 0x80
10004892:	0192      	lsls	r2, r2, #6
10004894:	432a      	orrs	r2, r5
10004896:	0109      	lsls	r1, r1, #4
10004898:	6011      	str	r1, [r2, #0]
1000489a:	2280      	movs	r2, #128	; 0x80
1000489c:	0052      	lsls	r2, r2, #1
1000489e:	605a      	str	r2, [r3, #4]
100048a0:	4b73      	ldr	r3, [pc, #460]	; (10004a70 <clocks_init+0x298>)
100048a2:	6123      	str	r3, [r4, #16]
100048a4:	4b73      	ldr	r3, [pc, #460]	; (10004a74 <clocks_init+0x29c>)
100048a6:	6859      	ldr	r1, [r3, #4]
100048a8:	29ff      	cmp	r1, #255	; 0xff
100048aa:	d800      	bhi.n	100048ae <clocks_init+0xd6>
100048ac:	e0c1      	b.n	10004a32 <clocks_init+0x25a>
100048ae:	2203      	movs	r2, #3
100048b0:	4b68      	ldr	r3, [pc, #416]	; (10004a54 <clocks_init+0x27c>)
100048b2:	4870      	ldr	r0, [pc, #448]	; (10004a74 <clocks_init+0x29c>)
100048b4:	601a      	str	r2, [r3, #0]
100048b6:	2101      	movs	r1, #1
100048b8:	0003      	movs	r3, r0
100048ba:	689a      	ldr	r2, [r3, #8]
100048bc:	4211      	tst	r1, r2
100048be:	d0fc      	beq.n	100048ba <clocks_init+0xe2>
100048c0:	25e0      	movs	r5, #224	; 0xe0
100048c2:	681a      	ldr	r2, [r3, #0]
100048c4:	4015      	ands	r5, r2
100048c6:	2280      	movs	r2, #128	; 0x80
100048c8:	0152      	lsls	r2, r2, #5
100048ca:	4302      	orrs	r2, r0
100048cc:	6015      	str	r5, [r2, #0]
100048ce:	681b      	ldr	r3, [r3, #0]
100048d0:	404b      	eors	r3, r1
100048d2:	2103      	movs	r1, #3
100048d4:	4019      	ands	r1, r3
100048d6:	6011      	str	r1, [r2, #0]
100048d8:	2102      	movs	r1, #2
100048da:	4a66      	ldr	r2, [pc, #408]	; (10004a74 <clocks_init+0x29c>)
100048dc:	6893      	ldr	r3, [r2, #8]
100048de:	4219      	tst	r1, r3
100048e0:	d0fc      	beq.n	100048dc <clocks_init+0x104>
100048e2:	2380      	movs	r3, #128	; 0x80
100048e4:	2180      	movs	r1, #128	; 0x80
100048e6:	019b      	lsls	r3, r3, #6
100048e8:	4303      	orrs	r3, r0
100048ea:	0109      	lsls	r1, r1, #4
100048ec:	6019      	str	r1, [r3, #0]
100048ee:	2180      	movs	r1, #128	; 0x80
100048f0:	4b61      	ldr	r3, [pc, #388]	; (10004a78 <clocks_init+0x2a0>)
100048f2:	0049      	lsls	r1, r1, #1
100048f4:	6051      	str	r1, [r2, #4]
100048f6:	6163      	str	r3, [r4, #20]
100048f8:	4b60      	ldr	r3, [pc, #384]	; (10004a7c <clocks_init+0x2a4>)
100048fa:	685a      	ldr	r2, [r3, #4]
100048fc:	2aff      	cmp	r2, #255	; 0xff
100048fe:	d800      	bhi.n	10004902 <clocks_init+0x12a>
10004900:	6059      	str	r1, [r3, #4]
10004902:	2280      	movs	r2, #128	; 0x80
10004904:	4b5e      	ldr	r3, [pc, #376]	; (10004a80 <clocks_init+0x2a8>)
10004906:	69e1      	ldr	r1, [r4, #28]
10004908:	0112      	lsls	r2, r2, #4
1000490a:	4d5c      	ldr	r5, [pc, #368]	; (10004a7c <clocks_init+0x2a4>)
1000490c:	601a      	str	r2, [r3, #0]
1000490e:	2900      	cmp	r1, #0
10004910:	d005      	beq.n	1000491e <clocks_init+0x146>
10004912:	6960      	ldr	r0, [r4, #20]
10004914:	f000 fa02 	bl	10004d1c <__wrap___aeabi_uidiv>
10004918:	3001      	adds	r0, #1
1000491a:	3801      	subs	r0, #1
1000491c:	d1fd      	bne.n	1000491a <clocks_init+0x142>
1000491e:	22e0      	movs	r2, #224	; 0xe0
10004920:	4956      	ldr	r1, [pc, #344]	; (10004a7c <clocks_init+0x2a4>)
10004922:	680b      	ldr	r3, [r1, #0]
10004924:	401a      	ands	r2, r3
10004926:	2380      	movs	r3, #128	; 0x80
10004928:	015b      	lsls	r3, r3, #5
1000492a:	432b      	orrs	r3, r5
1000492c:	601a      	str	r2, [r3, #0]
1000492e:	2380      	movs	r3, #128	; 0x80
10004930:	2280      	movs	r2, #128	; 0x80
10004932:	019b      	lsls	r3, r3, #6
10004934:	432b      	orrs	r3, r5
10004936:	0112      	lsls	r2, r2, #4
10004938:	601a      	str	r2, [r3, #0]
1000493a:	2280      	movs	r2, #128	; 0x80
1000493c:	4b42      	ldr	r3, [pc, #264]	; (10004a48 <clocks_init+0x270>)
1000493e:	0052      	lsls	r2, r2, #1
10004940:	604a      	str	r2, [r1, #4]
10004942:	61e3      	str	r3, [r4, #28]
10004944:	4b4f      	ldr	r3, [pc, #316]	; (10004a84 <clocks_init+0x2ac>)
10004946:	6859      	ldr	r1, [r3, #4]
10004948:	29ff      	cmp	r1, #255	; 0xff
1000494a:	d800      	bhi.n	1000494e <clocks_init+0x176>
1000494c:	605a      	str	r2, [r3, #4]
1000494e:	2280      	movs	r2, #128	; 0x80
10004950:	4b4d      	ldr	r3, [pc, #308]	; (10004a88 <clocks_init+0x2b0>)
10004952:	6a21      	ldr	r1, [r4, #32]
10004954:	0112      	lsls	r2, r2, #4
10004956:	4d4b      	ldr	r5, [pc, #300]	; (10004a84 <clocks_init+0x2ac>)
10004958:	601a      	str	r2, [r3, #0]
1000495a:	2900      	cmp	r1, #0
1000495c:	d005      	beq.n	1000496a <clocks_init+0x192>
1000495e:	6960      	ldr	r0, [r4, #20]
10004960:	f000 f9dc 	bl	10004d1c <__wrap___aeabi_uidiv>
10004964:	3001      	adds	r0, #1
10004966:	3801      	subs	r0, #1
10004968:	d1fd      	bne.n	10004966 <clocks_init+0x18e>
1000496a:	22e0      	movs	r2, #224	; 0xe0
1000496c:	4945      	ldr	r1, [pc, #276]	; (10004a84 <clocks_init+0x2ac>)
1000496e:	680b      	ldr	r3, [r1, #0]
10004970:	401a      	ands	r2, r3
10004972:	2380      	movs	r3, #128	; 0x80
10004974:	015b      	lsls	r3, r3, #5
10004976:	432b      	orrs	r3, r5
10004978:	601a      	str	r2, [r3, #0]
1000497a:	2380      	movs	r3, #128	; 0x80
1000497c:	2280      	movs	r2, #128	; 0x80
1000497e:	019b      	lsls	r3, r3, #6
10004980:	432b      	orrs	r3, r5
10004982:	0112      	lsls	r2, r2, #4
10004984:	601a      	str	r2, [r3, #0]
10004986:	2380      	movs	r3, #128	; 0x80
10004988:	005b      	lsls	r3, r3, #1
1000498a:	604b      	str	r3, [r1, #4]
1000498c:	4b2e      	ldr	r3, [pc, #184]	; (10004a48 <clocks_init+0x270>)
1000498e:	4a3f      	ldr	r2, [pc, #252]	; (10004a8c <clocks_init+0x2b4>)
10004990:	6223      	str	r3, [r4, #32]
10004992:	4b3f      	ldr	r3, [pc, #252]	; (10004a90 <clocks_init+0x2b8>)
10004994:	6859      	ldr	r1, [r3, #4]
10004996:	4291      	cmp	r1, r2
10004998:	d801      	bhi.n	1000499e <clocks_init+0x1c6>
1000499a:	3201      	adds	r2, #1
1000499c:	605a      	str	r2, [r3, #4]
1000499e:	2280      	movs	r2, #128	; 0x80
100049a0:	4b3c      	ldr	r3, [pc, #240]	; (10004a94 <clocks_init+0x2bc>)
100049a2:	6a61      	ldr	r1, [r4, #36]	; 0x24
100049a4:	0112      	lsls	r2, r2, #4
100049a6:	4d3a      	ldr	r5, [pc, #232]	; (10004a90 <clocks_init+0x2b8>)
100049a8:	601a      	str	r2, [r3, #0]
100049aa:	2900      	cmp	r1, #0
100049ac:	d005      	beq.n	100049ba <clocks_init+0x1e2>
100049ae:	6960      	ldr	r0, [r4, #20]
100049b0:	f000 f9b4 	bl	10004d1c <__wrap___aeabi_uidiv>
100049b4:	3001      	adds	r0, #1
100049b6:	3801      	subs	r0, #1
100049b8:	d1fd      	bne.n	100049b6 <clocks_init+0x1de>
100049ba:	22e0      	movs	r2, #224	; 0xe0
100049bc:	4934      	ldr	r1, [pc, #208]	; (10004a90 <clocks_init+0x2b8>)
100049be:	680b      	ldr	r3, [r1, #0]
100049c0:	401a      	ands	r2, r3
100049c2:	2380      	movs	r3, #128	; 0x80
100049c4:	015b      	lsls	r3, r3, #5
100049c6:	432b      	orrs	r3, r5
100049c8:	601a      	str	r2, [r3, #0]
100049ca:	2380      	movs	r3, #128	; 0x80
100049cc:	2280      	movs	r2, #128	; 0x80
100049ce:	019b      	lsls	r3, r3, #6
100049d0:	432b      	orrs	r3, r5
100049d2:	0112      	lsls	r2, r2, #4
100049d4:	601a      	str	r2, [r3, #0]
100049d6:	2380      	movs	r3, #128	; 0x80
100049d8:	02db      	lsls	r3, r3, #11
100049da:	604b      	str	r3, [r1, #4]
100049dc:	4b1b      	ldr	r3, [pc, #108]	; (10004a4c <clocks_init+0x274>)
100049de:	6263      	str	r3, [r4, #36]	; 0x24
100049e0:	4b2d      	ldr	r3, [pc, #180]	; (10004a98 <clocks_init+0x2c0>)
100049e2:	685a      	ldr	r2, [r3, #4]
100049e4:	2aff      	cmp	r2, #255	; 0xff
100049e6:	d802      	bhi.n	100049ee <clocks_init+0x216>
100049e8:	2280      	movs	r2, #128	; 0x80
100049ea:	0052      	lsls	r2, r2, #1
100049ec:	605a      	str	r2, [r3, #4]
100049ee:	2280      	movs	r2, #128	; 0x80
100049f0:	4b2a      	ldr	r3, [pc, #168]	; (10004a9c <clocks_init+0x2c4>)
100049f2:	69a1      	ldr	r1, [r4, #24]
100049f4:	0112      	lsls	r2, r2, #4
100049f6:	4d28      	ldr	r5, [pc, #160]	; (10004a98 <clocks_init+0x2c0>)
100049f8:	601a      	str	r2, [r3, #0]
100049fa:	2900      	cmp	r1, #0
100049fc:	d005      	beq.n	10004a0a <clocks_init+0x232>
100049fe:	6960      	ldr	r0, [r4, #20]
10004a00:	f000 f98c 	bl	10004d1c <__wrap___aeabi_uidiv>
10004a04:	3001      	adds	r0, #1
10004a06:	3801      	subs	r0, #1
10004a08:	d1fd      	bne.n	10004a06 <clocks_init+0x22e>
10004a0a:	22e0      	movs	r2, #224	; 0xe0
10004a0c:	4922      	ldr	r1, [pc, #136]	; (10004a98 <clocks_init+0x2c0>)
10004a0e:	680b      	ldr	r3, [r1, #0]
10004a10:	401a      	ands	r2, r3
10004a12:	2380      	movs	r3, #128	; 0x80
10004a14:	015b      	lsls	r3, r3, #5
10004a16:	432b      	orrs	r3, r5
10004a18:	601a      	str	r2, [r3, #0]
10004a1a:	2380      	movs	r3, #128	; 0x80
10004a1c:	2280      	movs	r2, #128	; 0x80
10004a1e:	019b      	lsls	r3, r3, #6
10004a20:	432b      	orrs	r3, r5
10004a22:	0112      	lsls	r2, r2, #4
10004a24:	601a      	str	r2, [r3, #0]
10004a26:	2380      	movs	r3, #128	; 0x80
10004a28:	005b      	lsls	r3, r3, #1
10004a2a:	604b      	str	r3, [r1, #4]
10004a2c:	4b12      	ldr	r3, [pc, #72]	; (10004a78 <clocks_init+0x2a0>)
10004a2e:	61a3      	str	r3, [r4, #24]
10004a30:	e6e8      	b.n	10004804 <clocks_init+0x2c>
10004a32:	605a      	str	r2, [r3, #4]
10004a34:	e73b      	b.n	100048ae <clocks_init+0xd6>
10004a36:	6960      	ldr	r0, [r4, #20]
10004a38:	f000 f970 	bl	10004d1c <__wrap___aeabi_uidiv>
10004a3c:	3001      	adds	r0, #1
10004a3e:	3801      	subs	r0, #1
10004a40:	d1fd      	bne.n	10004a3e <clocks_init+0x266>
10004a42:	e712      	b.n	1000486a <clocks_init+0x92>
10004a44:	20000d70 	.word	0x20000d70
10004a48:	02dc6c00 	.word	0x02dc6c00
10004a4c:	0000b71b 	.word	0x0000b71b
10004a50:	40008000 	.word	0x40008000
10004a54:	4000b03c 	.word	0x4000b03c
10004a58:	4000b030 	.word	0x4000b030
10004a5c:	59682f00 	.word	0x59682f00
10004a60:	40028000 	.word	0x40028000
10004a64:	47868c00 	.word	0x47868c00
10004a68:	4002c000 	.word	0x4002c000
10004a6c:	40008030 	.word	0x40008030
10004a70:	00b71b00 	.word	0x00b71b00
10004a74:	4000803c 	.word	0x4000803c
10004a78:	07735940 	.word	0x07735940
10004a7c:	40008054 	.word	0x40008054
10004a80:	4000b054 	.word	0x4000b054
10004a84:	40008060 	.word	0x40008060
10004a88:	4000b060 	.word	0x4000b060
10004a8c:	0003ffff 	.word	0x0003ffff
10004a90:	4000806c 	.word	0x4000806c
10004a94:	4000b06c 	.word	0x4000b06c
10004a98:	40008048 	.word	0x40008048
10004a9c:	4000b048 	.word	0x4000b048

10004aa0 <clock_get_hz>:
10004aa0:	4b01      	ldr	r3, [pc, #4]	; (10004aa8 <clock_get_hz+0x8>)
10004aa2:	0080      	lsls	r0, r0, #2
10004aa4:	58c0      	ldr	r0, [r0, r3]
10004aa6:	4770      	bx	lr
10004aa8:	20000d70 	.word	0x20000d70

10004aac <pll_init>:
10004aac:	b5f8      	push	{r3, r4, r5, r6, r7, lr}
10004aae:	0004      	movs	r4, r0
10004ab0:	200c      	movs	r0, #12
10004ab2:	001e      	movs	r6, r3
10004ab4:	0017      	movs	r7, r2
10004ab6:	000d      	movs	r5, r1
10004ab8:	f000 f930 	bl	10004d1c <__wrap___aeabi_uidiv>
10004abc:	0142      	lsls	r2, r0, #5
10004abe:	1a12      	subs	r2, r2, r0
10004ac0:	0191      	lsls	r1, r2, #6
10004ac2:	1a89      	subs	r1, r1, r2
10004ac4:	00c9      	lsls	r1, r1, #3
10004ac6:	1809      	adds	r1, r1, r0
10004ac8:	0189      	lsls	r1, r1, #6
10004aca:	0038      	movs	r0, r7
10004acc:	f000 f926 	bl	10004d1c <__wrap___aeabi_uidiv>
10004ad0:	9b06      	ldr	r3, [sp, #24]
10004ad2:	0436      	lsls	r6, r6, #16
10004ad4:	031b      	lsls	r3, r3, #12
10004ad6:	431e      	orrs	r6, r3
10004ad8:	6823      	ldr	r3, [r4, #0]
10004ada:	2b00      	cmp	r3, #0
10004adc:	db21      	blt.n	10004b22 <pll_init+0x76>
10004ade:	4b19      	ldr	r3, [pc, #100]	; (10004b44 <pll_init+0x98>)
10004ae0:	18e2      	adds	r2, r4, r3
10004ae2:	4253      	negs	r3, r2
10004ae4:	415a      	adcs	r2, r3
10004ae6:	2380      	movs	r3, #128	; 0x80
10004ae8:	015b      	lsls	r3, r3, #5
10004aea:	469c      	mov	ip, r3
10004aec:	4252      	negs	r2, r2
10004aee:	401a      	ands	r2, r3
10004af0:	4b15      	ldr	r3, [pc, #84]	; (10004b48 <pll_init+0x9c>)
10004af2:	4462      	add	r2, ip
10004af4:	601a      	str	r2, [r3, #0]
10004af6:	4b15      	ldr	r3, [pc, #84]	; (10004b4c <pll_init+0xa0>)
10004af8:	601a      	str	r2, [r3, #0]
10004afa:	4b15      	ldr	r3, [pc, #84]	; (10004b50 <pll_init+0xa4>)
10004afc:	0017      	movs	r7, r2
10004afe:	6899      	ldr	r1, [r3, #8]
10004b00:	438f      	bics	r7, r1
10004b02:	d1fb      	bne.n	10004afc <pll_init+0x50>
10004b04:	23c0      	movs	r3, #192	; 0xc0
10004b06:	1d22      	adds	r2, r4, #4
10004b08:	019b      	lsls	r3, r3, #6
10004b0a:	4313      	orrs	r3, r2
10004b0c:	2221      	movs	r2, #33	; 0x21
10004b0e:	6025      	str	r5, [r4, #0]
10004b10:	60a0      	str	r0, [r4, #8]
10004b12:	601a      	str	r2, [r3, #0]
10004b14:	6822      	ldr	r2, [r4, #0]
10004b16:	2a00      	cmp	r2, #0
10004b18:	dafc      	bge.n	10004b14 <pll_init+0x68>
10004b1a:	2208      	movs	r2, #8
10004b1c:	60e6      	str	r6, [r4, #12]
10004b1e:	601a      	str	r2, [r3, #0]
10004b20:	bdf8      	pop	{r3, r4, r5, r6, r7, pc}
10004b22:	233f      	movs	r3, #63	; 0x3f
10004b24:	6822      	ldr	r2, [r4, #0]
10004b26:	4013      	ands	r3, r2
10004b28:	42ab      	cmp	r3, r5
10004b2a:	d1d8      	bne.n	10004ade <pll_init+0x32>
10004b2c:	68a3      	ldr	r3, [r4, #8]
10004b2e:	051b      	lsls	r3, r3, #20
10004b30:	0d1b      	lsrs	r3, r3, #20
10004b32:	4283      	cmp	r3, r0
10004b34:	d1d3      	bne.n	10004ade <pll_init+0x32>
10004b36:	22ee      	movs	r2, #238	; 0xee
10004b38:	68e3      	ldr	r3, [r4, #12]
10004b3a:	02d2      	lsls	r2, r2, #11
10004b3c:	4013      	ands	r3, r2
10004b3e:	42b3      	cmp	r3, r6
10004b40:	d1cd      	bne.n	10004ade <pll_init+0x32>
10004b42:	e7ed      	b.n	10004b20 <pll_init+0x74>
10004b44:	bffd4000 	.word	0xbffd4000
10004b48:	4000e000 	.word	0x4000e000
10004b4c:	4000f000 	.word	0x4000f000
10004b50:	4000c000 	.word	0x4000c000

10004b54 <watchdog_start_tick>:
10004b54:	2380      	movs	r3, #128	; 0x80
10004b56:	009b      	lsls	r3, r3, #2
10004b58:	4318      	orrs	r0, r3
10004b5a:	4b01      	ldr	r3, [pc, #4]	; (10004b60 <watchdog_start_tick+0xc>)
10004b5c:	62d8      	str	r0, [r3, #44]	; 0x2c
10004b5e:	4770      	bx	lr
10004b60:	40058000 	.word	0x40058000

10004b64 <watchdog_reboot>:
10004b64:	b510      	push	{r4, lr}
10004b66:	2480      	movs	r4, #128	; 0x80
10004b68:	4b1b      	ldr	r3, [pc, #108]	; (10004bd8 <watchdog_reboot+0x74>)
10004b6a:	05e4      	lsls	r4, r4, #23
10004b6c:	601c      	str	r4, [r3, #0]
10004b6e:	2800      	cmp	r0, #0
10004b70:	d01a      	beq.n	10004ba8 <watchdog_reboot+0x44>
10004b72:	2301      	movs	r3, #1
10004b74:	4c19      	ldr	r4, [pc, #100]	; (10004bdc <watchdog_reboot+0x78>)
10004b76:	4318      	orrs	r0, r3
10004b78:	4b19      	ldr	r3, [pc, #100]	; (10004be0 <watchdog_reboot+0x7c>)
10004b7a:	61dc      	str	r4, [r3, #28]
10004b7c:	4c19      	ldr	r4, [pc, #100]	; (10004be4 <watchdog_reboot+0x80>)
10004b7e:	4044      	eors	r4, r0
10004b80:	621c      	str	r4, [r3, #32]
10004b82:	6259      	str	r1, [r3, #36]	; 0x24
10004b84:	6298      	str	r0, [r3, #40]	; 0x28
10004b86:	2180      	movs	r1, #128	; 0x80
10004b88:	4b13      	ldr	r3, [pc, #76]	; (10004bd8 <watchdog_reboot+0x74>)
10004b8a:	05c9      	lsls	r1, r1, #23
10004b8c:	6019      	str	r1, [r3, #0]
10004b8e:	4816      	ldr	r0, [pc, #88]	; (10004be8 <watchdog_reboot+0x84>)
10004b90:	4916      	ldr	r1, [pc, #88]	; (10004bec <watchdog_reboot+0x88>)
10004b92:	6008      	str	r0, [r1, #0]
10004b94:	21e0      	movs	r1, #224	; 0xe0
10004b96:	04c9      	lsls	r1, r1, #19
10004b98:	6019      	str	r1, [r3, #0]
10004b9a:	2a00      	cmp	r2, #0
10004b9c:	d107      	bne.n	10004bae <watchdog_reboot+0x4a>
10004b9e:	2280      	movs	r2, #128	; 0x80
10004ba0:	4b13      	ldr	r3, [pc, #76]	; (10004bf0 <watchdog_reboot+0x8c>)
10004ba2:	0612      	lsls	r2, r2, #24
10004ba4:	601a      	str	r2, [r3, #0]
10004ba6:	bd10      	pop	{r4, pc}
10004ba8:	4b0d      	ldr	r3, [pc, #52]	; (10004be0 <watchdog_reboot+0x7c>)
10004baa:	61d8      	str	r0, [r3, #28]
10004bac:	e7eb      	b.n	10004b86 <watchdog_reboot+0x22>
10004bae:	0153      	lsls	r3, r2, #5
10004bb0:	1a9b      	subs	r3, r3, r2
10004bb2:	009b      	lsls	r3, r3, #2
10004bb4:	189a      	adds	r2, r3, r2
10004bb6:	4b0f      	ldr	r3, [pc, #60]	; (10004bf4 <watchdog_reboot+0x90>)
10004bb8:	0112      	lsls	r2, r2, #4
10004bba:	429a      	cmp	r2, r3
10004bbc:	d808      	bhi.n	10004bd0 <watchdog_reboot+0x6c>
10004bbe:	4b0e      	ldr	r3, [pc, #56]	; (10004bf8 <watchdog_reboot+0x94>)
10004bc0:	601a      	str	r2, [r3, #0]
10004bc2:	4b07      	ldr	r3, [pc, #28]	; (10004be0 <watchdog_reboot+0x7c>)
10004bc4:	605a      	str	r2, [r3, #4]
10004bc6:	2280      	movs	r2, #128	; 0x80
10004bc8:	4b09      	ldr	r3, [pc, #36]	; (10004bf0 <watchdog_reboot+0x8c>)
10004bca:	05d2      	lsls	r2, r2, #23
10004bcc:	601a      	str	r2, [r3, #0]
10004bce:	e7ea      	b.n	10004ba6 <watchdog_reboot+0x42>
10004bd0:	4a09      	ldr	r2, [pc, #36]	; (10004bf8 <watchdog_reboot+0x94>)
10004bd2:	6013      	str	r3, [r2, #0]
10004bd4:	001a      	movs	r2, r3
10004bd6:	e7f4      	b.n	10004bc2 <watchdog_reboot+0x5e>
10004bd8:	4005b000 	.word	0x4005b000
10004bdc:	b007c0d3 	.word	0xb007c0d3
10004be0:	40058000 	.word	0x40058000
10004be4:	4ff83f2d 	.word	0x4ff83f2d
10004be8:	0001fffc 	.word	0x0001fffc
10004bec:	40012008 	.word	0x40012008
10004bf0:	4005a000 	.word	0x4005a000
10004bf4:	00ffffff 	.word	0x00ffffff
10004bf8:	20001630 	.word	0x20001630

10004bfc <xosc_init>:
10004bfc:	23aa      	movs	r3, #170	; 0xaa
10004bfe:	4a06      	ldr	r2, [pc, #24]	; (10004c18 <xosc_init+0x1c>)
10004c00:	011b      	lsls	r3, r3, #4
10004c02:	6013      	str	r3, [r2, #0]
10004c04:	232f      	movs	r3, #47	; 0x2f
10004c06:	4905      	ldr	r1, [pc, #20]	; (10004c1c <xosc_init+0x20>)
10004c08:	60d3      	str	r3, [r2, #12]
10004c0a:	4b05      	ldr	r3, [pc, #20]	; (10004c20 <xosc_init+0x24>)
10004c0c:	6019      	str	r1, [r3, #0]
10004c0e:	6853      	ldr	r3, [r2, #4]
10004c10:	2b00      	cmp	r3, #0
10004c12:	dafc      	bge.n	10004c0e <xosc_init+0x12>
10004c14:	4770      	bx	lr
10004c16:	46c0      	nop			; (mov r8, r8)
10004c18:	40024000 	.word	0x40024000
10004c1c:	00fab000 	.word	0x00fab000
10004c20:	40026000 	.word	0x40026000

10004c24 <_out_char>:
10004c24:	b510      	push	{r4, lr}
10004c26:	2800      	cmp	r0, #0
10004c28:	d001      	beq.n	10004c2e <_out_char+0xa>
10004c2a:	f000 f9a9 	bl	10004f80 <__wrap_putchar>
10004c2e:	bd10      	pop	{r4, pc}

10004c30 <weak_raw_vprintf>:
10004c30:	b510      	push	{r4, lr}
10004c32:	4a09      	ldr	r2, [pc, #36]	; (10004c58 <weak_raw_vprintf+0x28>)
10004c34:	b084      	sub	sp, #16
10004c36:	6814      	ldr	r4, [r2, #0]
10004c38:	2c00      	cmp	r4, #0
10004c3a:	d009      	beq.n	10004c50 <weak_raw_vprintf+0x20>
10004c3c:	2201      	movs	r2, #1
10004c3e:	9100      	str	r1, [sp, #0]
10004c40:	0003      	movs	r3, r0
10004c42:	4252      	negs	r2, r2
10004c44:	a903      	add	r1, sp, #12
10004c46:	4805      	ldr	r0, [pc, #20]	; (10004c5c <weak_raw_vprintf+0x2c>)
10004c48:	47a0      	blx	r4
10004c4a:	2001      	movs	r0, #1
10004c4c:	b004      	add	sp, #16
10004c4e:	bd10      	pop	{r4, pc}
10004c50:	f000 f9e6 	bl	10005020 <__wrap_puts>
10004c54:	2000      	movs	r0, #0
10004c56:	e7f9      	b.n	10004c4c <weak_raw_vprintf+0x1c>
10004c58:	2000162c 	.word	0x2000162c
10004c5c:	10004c25 	.word	0x10004c25

10004c60 <__aeabi_bits_init>:
10004c60:	4801      	ldr	r0, [pc, #4]	; (10004c68 <__aeabi_bits_init+0x8>)
10004c62:	2104      	movs	r1, #4
10004c64:	4b01      	ldr	r3, [pc, #4]	; (10004c6c <__aeabi_bits_init+0xc>)
10004c66:	4718      	bx	r3
10004c68:	200005b0 	.word	0x200005b0
10004c6c:	10004c91 	.word	0x10004c91

10004c70 <rom_func_lookup>:
10004c70:	2314      	movs	r3, #20
10004c72:	b510      	push	{r4, lr}
10004c74:	0001      	movs	r1, r0
10004c76:	8818      	ldrh	r0, [r3, #0]
10004c78:	3304      	adds	r3, #4
10004c7a:	881b      	ldrh	r3, [r3, #0]
10004c7c:	4798      	blx	r3
10004c7e:	bd10      	pop	{r4, pc}

10004c80 <rom_data_lookup>:
10004c80:	2316      	movs	r3, #22
10004c82:	b510      	push	{r4, lr}
10004c84:	0001      	movs	r1, r0
10004c86:	8818      	ldrh	r0, [r3, #0]
10004c88:	3302      	adds	r3, #2
10004c8a:	881b      	ldrh	r3, [r3, #0]
10004c8c:	4798      	blx	r3
10004c8e:	bd10      	pop	{r4, pc}

10004c90 <rom_funcs_lookup>:
10004c90:	b5f0      	push	{r4, r5, r6, r7, lr}
10004c92:	46c6      	mov	lr, r8
10004c94:	b500      	push	{lr}
10004c96:	2900      	cmp	r1, #0
10004c98:	d016      	beq.n	10004cc8 <rom_funcs_lookup+0x38>
10004c9a:	2314      	movs	r3, #20
10004c9c:	0004      	movs	r4, r0
10004c9e:	2501      	movs	r5, #1
10004ca0:	4698      	mov	r8, r3
10004ca2:	2718      	movs	r7, #24
10004ca4:	0089      	lsls	r1, r1, #2
10004ca6:	1846      	adds	r6, r0, r1
10004ca8:	4643      	mov	r3, r8
10004caa:	6821      	ldr	r1, [r4, #0]
10004cac:	8818      	ldrh	r0, [r3, #0]
10004cae:	883b      	ldrh	r3, [r7, #0]
10004cb0:	4798      	blx	r3
10004cb2:	c401      	stmia	r4!, {r0}
10004cb4:	1e43      	subs	r3, r0, #1
10004cb6:	4198      	sbcs	r0, r3
10004cb8:	4240      	negs	r0, r0
10004cba:	4005      	ands	r5, r0
10004cbc:	42a6      	cmp	r6, r4
10004cbe:	d1f3      	bne.n	10004ca8 <rom_funcs_lookup+0x18>
10004cc0:	0028      	movs	r0, r5
10004cc2:	bc04      	pop	{r2}
10004cc4:	4690      	mov	r8, r2
10004cc6:	bdf0      	pop	{r4, r5, r6, r7, pc}
10004cc8:	2501      	movs	r5, #1
10004cca:	e7f9      	b.n	10004cc0 <rom_funcs_lookup+0x30>

10004ccc <__wrap___aeabi_idiv>:
10004ccc:	4a12      	ldr	r2, [pc, #72]	; (10004d18 <divmod_s32s32_savestate+0x18>)
10004cce:	6f93      	ldr	r3, [r2, #120]	; 0x78
10004cd0:	089b      	lsrs	r3, r3, #2
10004cd2:	d215      	bcs.n	10004d00 <divmod_s32s32_savestate>

10004cd4 <divmod_s32s32_unsafe>:
10004cd4:	6690      	str	r0, [r2, #104]	; 0x68
10004cd6:	66d1      	str	r1, [r2, #108]	; 0x6c
10004cd8:	2900      	cmp	r1, #0
10004cda:	d005      	beq.n	10004ce8 <divmod_s32s32_unsafe+0x14>
10004cdc:	e7ff      	b.n	10004cde <divmod_s32s32_unsafe+0xa>
10004cde:	e7ff      	b.n	10004ce0 <divmod_s32s32_unsafe+0xc>
10004ce0:	e7ff      	b.n	10004ce2 <divmod_s32s32_unsafe+0xe>
10004ce2:	6f51      	ldr	r1, [r2, #116]	; 0x74
10004ce4:	6f10      	ldr	r0, [r2, #112]	; 0x70
10004ce6:	4770      	bx	lr
10004ce8:	b504      	push	{r2, lr}
10004cea:	2180      	movs	r1, #128	; 0x80
10004cec:	0609      	lsls	r1, r1, #24
10004cee:	17c2      	asrs	r2, r0, #31
10004cf0:	4051      	eors	r1, r2
10004cf2:	2800      	cmp	r0, #0
10004cf4:	d000      	beq.n	10004cf8 <divmod_s32s32_unsafe+0x24>
10004cf6:	43c8      	mvns	r0, r1
10004cf8:	f003 f99a 	bl	10008030 <____aeabi_idiv0_veneer>
10004cfc:	2100      	movs	r1, #0
10004cfe:	bd04      	pop	{r2, pc}

10004d00 <divmod_s32s32_savestate>:
10004d00:	b5f0      	push	{r4, r5, r6, r7, lr}
10004d02:	6e14      	ldr	r4, [r2, #96]	; 0x60
10004d04:	6e55      	ldr	r5, [r2, #100]	; 0x64
10004d06:	6f57      	ldr	r7, [r2, #116]	; 0x74
10004d08:	6f16      	ldr	r6, [r2, #112]	; 0x70
10004d0a:	f7ff ffe3 	bl	10004cd4 <divmod_s32s32_unsafe>
10004d0e:	6614      	str	r4, [r2, #96]	; 0x60
10004d10:	6655      	str	r5, [r2, #100]	; 0x64
10004d12:	6757      	str	r7, [r2, #116]	; 0x74
10004d14:	6716      	str	r6, [r2, #112]	; 0x70
10004d16:	bdf0      	pop	{r4, r5, r6, r7, pc}
10004d18:	d0000000 	.word	0xd0000000

10004d1c <__wrap___aeabi_uidiv>:
10004d1c:	4a11      	ldr	r2, [pc, #68]	; (10004d64 <divmod_u32u32_savestate+0x18>)
10004d1e:	6f93      	ldr	r3, [r2, #120]	; 0x78
10004d20:	089b      	lsrs	r3, r3, #2
10004d22:	d213      	bcs.n	10004d4c <divmod_u32u32_savestate>

10004d24 <divmod_u32u32_unsafe>:
10004d24:	6610      	str	r0, [r2, #96]	; 0x60
10004d26:	6651      	str	r1, [r2, #100]	; 0x64
10004d28:	2900      	cmp	r1, #0
10004d2a:	d005      	beq.n	10004d38 <divmod_u32u32_unsafe+0x14>
10004d2c:	e7ff      	b.n	10004d2e <divmod_u32u32_unsafe+0xa>
10004d2e:	e7ff      	b.n	10004d30 <divmod_u32u32_unsafe+0xc>
10004d30:	e7ff      	b.n	10004d32 <divmod_u32u32_unsafe+0xe>
10004d32:	6f51      	ldr	r1, [r2, #116]	; 0x74
10004d34:	6f10      	ldr	r0, [r2, #112]	; 0x70
10004d36:	4770      	bx	lr
10004d38:	b504      	push	{r2, lr}
10004d3a:	2800      	cmp	r0, #0
10004d3c:	d001      	beq.n	10004d42 <divmod_u32u32_unsafe+0x1e>
10004d3e:	2000      	movs	r0, #0
10004d40:	43c0      	mvns	r0, r0
10004d42:	f003 f975 	bl	10008030 <____aeabi_idiv0_veneer>
10004d46:	2100      	movs	r1, #0
10004d48:	bd04      	pop	{r2, pc}
10004d4a:	46c0      	nop			; (mov r8, r8)

10004d4c <divmod_u32u32_savestate>:
10004d4c:	b5f0      	push	{r4, r5, r6, r7, lr}
10004d4e:	6e14      	ldr	r4, [r2, #96]	; 0x60
10004d50:	6e55      	ldr	r5, [r2, #100]	; 0x64
10004d52:	6f57      	ldr	r7, [r2, #116]	; 0x74
10004d54:	6f16      	ldr	r6, [r2, #112]	; 0x70
10004d56:	f7ff ffe5 	bl	10004d24 <divmod_u32u32_unsafe>
10004d5a:	6614      	str	r4, [r2, #96]	; 0x60
10004d5c:	6655      	str	r5, [r2, #100]	; 0x64
10004d5e:	6757      	str	r7, [r2, #116]	; 0x74
10004d60:	6716      	str	r6, [r2, #112]	; 0x70
10004d62:	bdf0      	pop	{r4, r5, r6, r7, pc}
10004d64:	d0000000 	.word	0xd0000000

10004d68 <__aeabi_double_init>:
10004d68:	2313      	movs	r3, #19
10004d6a:	b570      	push	{r4, r5, r6, lr}
10004d6c:	781c      	ldrb	r4, [r3, #0]
10004d6e:	2c01      	cmp	r4, #1
10004d70:	d011      	beq.n	10004d96 <__aeabi_double_init+0x2e>
10004d72:	dd1a      	ble.n	10004daa <__aeabi_double_init+0x42>
10004d74:	480f      	ldr	r0, [pc, #60]	; (10004db4 <__aeabi_double_init+0x4c>)
10004d76:	f7ff ff83 	bl	10004c80 <rom_data_lookup>
10004d7a:	4d0f      	ldr	r5, [pc, #60]	; (10004db8 <__aeabi_double_init+0x50>)
10004d7c:	0001      	movs	r1, r0
10004d7e:	2280      	movs	r2, #128	; 0x80
10004d80:	0028      	movs	r0, r5
10004d82:	f000 f8a9 	bl	10004ed8 <__wrap___aeabi_memcpy>
10004d86:	2c02      	cmp	r4, #2
10004d88:	d010      	beq.n	10004dac <__aeabi_double_init+0x44>
10004d8a:	480c      	ldr	r0, [pc, #48]	; (10004dbc <__aeabi_double_init+0x54>)
10004d8c:	f7ff ff70 	bl	10004c70 <rom_func_lookup>
10004d90:	4b0b      	ldr	r3, [pc, #44]	; (10004dc0 <__aeabi_double_init+0x58>)
10004d92:	6018      	str	r0, [r3, #0]
10004d94:	bd70      	pop	{r4, r5, r6, pc}
10004d96:	4d08      	ldr	r5, [pc, #32]	; (10004db8 <__aeabi_double_init+0x50>)
10004d98:	4a0a      	ldr	r2, [pc, #40]	; (10004dc4 <__aeabi_double_init+0x5c>)
10004d9a:	0029      	movs	r1, r5
10004d9c:	002b      	movs	r3, r5
10004d9e:	3180      	adds	r1, #128	; 0x80
10004da0:	c304      	stmia	r3!, {r2}
10004da2:	428b      	cmp	r3, r1
10004da4:	d1fc      	bne.n	10004da0 <__aeabi_double_init+0x38>
10004da6:	64aa      	str	r2, [r5, #72]	; 0x48
10004da8:	e7ef      	b.n	10004d8a <__aeabi_double_init+0x22>
10004daa:	4d03      	ldr	r5, [pc, #12]	; (10004db8 <__aeabi_double_init+0x50>)
10004dac:	4a05      	ldr	r2, [pc, #20]	; (10004dc4 <__aeabi_double_init+0x5c>)
10004dae:	64aa      	str	r2, [r5, #72]	; 0x48
10004db0:	e7eb      	b.n	10004d8a <__aeabi_double_init+0x22>
10004db2:	46c0      	nop			; (mov r8, r8)
10004db4:	00004453 	.word	0x00004453
10004db8:	200016c0 	.word	0x200016c0
10004dbc:	0000334c 	.word	0x0000334c
10004dc0:	20001654 	.word	0x20001654
10004dc4:	10004dc9 	.word	0x10004dc9

10004dc8 <double_table_shim_on_use_helper>:
10004dc8:	b507      	push	{r0, r1, r2, lr}
10004dca:	4660      	mov	r0, ip
10004dcc:	8801      	ldrh	r1, [r0, #0]
10004dce:	0a0a      	lsrs	r2, r1, #8
10004dd0:	3002      	adds	r0, #2
10004dd2:	2adf      	cmp	r2, #223	; 0xdf
10004dd4:	d1fa      	bne.n	10004dcc <double_table_shim_on_use_helper+0x4>
10004dd6:	b2c9      	uxtb	r1, r1
10004dd8:	0882      	lsrs	r2, r0, #2
10004dda:	d304      	bcc.n	10004de6 <double_table_shim_on_use_helper+0x1e>
10004ddc:	8802      	ldrh	r2, [r0, #0]
10004dde:	8840      	ldrh	r0, [r0, #2]
10004de0:	0400      	lsls	r0, r0, #16
10004de2:	4310      	orrs	r0, r2
10004de4:	e000      	b.n	10004de8 <double_table_shim_on_use_helper+0x20>
10004de6:	6800      	ldr	r0, [r0, #0]
10004de8:	4a01      	ldr	r2, [pc, #4]	; (10004df0 <double_table_shim_on_use_helper+0x28>)
10004dea:	5050      	str	r0, [r2, r1]
10004dec:	9003      	str	r0, [sp, #12]
10004dee:	bd07      	pop	{r0, r1, r2, pc}
10004df0:	200016c0 	.word	0x200016c0

10004df4 <__wrap___aeabi_lmul>:
10004df4:	4351      	muls	r1, r2
10004df6:	4343      	muls	r3, r0
10004df8:	18c9      	adds	r1, r1, r3
10004dfa:	468c      	mov	ip, r1
10004dfc:	0c11      	lsrs	r1, r2, #16
10004dfe:	b283      	uxth	r3, r0
10004e00:	434b      	muls	r3, r1
10004e02:	b410      	push	{r4}
10004e04:	0c04      	lsrs	r4, r0, #16
10004e06:	4361      	muls	r1, r4
10004e08:	b292      	uxth	r2, r2
10004e0a:	b280      	uxth	r0, r0
10004e0c:	4350      	muls	r0, r2
10004e0e:	4362      	muls	r2, r4
10004e10:	041c      	lsls	r4, r3, #16
10004e12:	0c1b      	lsrs	r3, r3, #16
10004e14:	1900      	adds	r0, r0, r4
10004e16:	bc10      	pop	{r4}
10004e18:	4159      	adcs	r1, r3
10004e1a:	0413      	lsls	r3, r2, #16
10004e1c:	0c12      	lsrs	r2, r2, #16
10004e1e:	18c0      	adds	r0, r0, r3
10004e20:	4151      	adcs	r1, r2
10004e22:	4461      	add	r1, ip
10004e24:	4770      	bx	lr
	...

10004e28 <__aeabi_float_init>:
10004e28:	2313      	movs	r3, #19
10004e2a:	b510      	push	{r4, lr}
10004e2c:	781c      	ldrb	r4, [r3, #0]
10004e2e:	4813      	ldr	r0, [pc, #76]	; (10004e7c <__aeabi_float_init+0x54>)
10004e30:	f7ff ff26 	bl	10004c80 <rom_data_lookup>
10004e34:	2c01      	cmp	r4, #1
10004e36:	d00b      	beq.n	10004e50 <__aeabi_float_init+0x28>
10004e38:	dd04      	ble.n	10004e44 <__aeabi_float_init+0x1c>
10004e3a:	0001      	movs	r1, r0
10004e3c:	2280      	movs	r2, #128	; 0x80
10004e3e:	4810      	ldr	r0, [pc, #64]	; (10004e80 <__aeabi_float_init+0x58>)
10004e40:	f000 f84a 	bl	10004ed8 <__wrap___aeabi_memcpy>
10004e44:	480f      	ldr	r0, [pc, #60]	; (10004e84 <__aeabi_float_init+0x5c>)
10004e46:	f7ff ff13 	bl	10004c70 <rom_func_lookup>
10004e4a:	4b0f      	ldr	r3, [pc, #60]	; (10004e88 <__aeabi_float_init+0x60>)
10004e4c:	6018      	str	r0, [r3, #0]
10004e4e:	bd10      	pop	{r4, pc}
10004e50:	4c0b      	ldr	r4, [pc, #44]	; (10004e80 <__aeabi_float_init+0x58>)
10004e52:	0001      	movs	r1, r0
10004e54:	2254      	movs	r2, #84	; 0x54
10004e56:	0020      	movs	r0, r4
10004e58:	f000 f83e 	bl	10004ed8 <__wrap___aeabi_memcpy>
10004e5c:	4b0b      	ldr	r3, [pc, #44]	; (10004e8c <__aeabi_float_init+0x64>)
10004e5e:	6563      	str	r3, [r4, #84]	; 0x54
10004e60:	65a3      	str	r3, [r4, #88]	; 0x58
10004e62:	65e3      	str	r3, [r4, #92]	; 0x5c
10004e64:	6623      	str	r3, [r4, #96]	; 0x60
10004e66:	6663      	str	r3, [r4, #100]	; 0x64
10004e68:	66a3      	str	r3, [r4, #104]	; 0x68
10004e6a:	66e3      	str	r3, [r4, #108]	; 0x6c
10004e6c:	6723      	str	r3, [r4, #112]	; 0x70
10004e6e:	6763      	str	r3, [r4, #116]	; 0x74
10004e70:	67a3      	str	r3, [r4, #120]	; 0x78
10004e72:	67e3      	str	r3, [r4, #124]	; 0x7c
10004e74:	6223      	str	r3, [r4, #32]
10004e76:	61e3      	str	r3, [r4, #28]
10004e78:	e7e4      	b.n	10004e44 <__aeabi_float_init+0x1c>
10004e7a:	46c0      	nop			; (mov r8, r8)
10004e7c:	00004653 	.word	0x00004653
10004e80:	200017c0 	.word	0x200017c0
10004e84:	0000334c 	.word	0x0000334c
10004e88:	20001654 	.word	0x20001654
10004e8c:	10004e91 	.word	0x10004e91

10004e90 <float_table_shim_on_use_helper>:
10004e90:	b507      	push	{r0, r1, r2, lr}
10004e92:	4660      	mov	r0, ip
10004e94:	8801      	ldrh	r1, [r0, #0]
10004e96:	0a0a      	lsrs	r2, r1, #8
10004e98:	3002      	adds	r0, #2
10004e9a:	2adf      	cmp	r2, #223	; 0xdf
10004e9c:	d1fa      	bne.n	10004e94 <float_table_shim_on_use_helper+0x4>
10004e9e:	b2c9      	uxtb	r1, r1
10004ea0:	0882      	lsrs	r2, r0, #2
10004ea2:	d304      	bcc.n	10004eae <float_table_shim_on_use_helper+0x1e>
10004ea4:	8802      	ldrh	r2, [r0, #0]
10004ea6:	8840      	ldrh	r0, [r0, #2]
10004ea8:	0400      	lsls	r0, r0, #16
10004eaa:	4310      	orrs	r0, r2
10004eac:	e000      	b.n	10004eb0 <float_table_shim_on_use_helper+0x20>
10004eae:	6800      	ldr	r0, [r0, #0]
10004eb0:	4a01      	ldr	r2, [pc, #4]	; (10004eb8 <float_table_shim_on_use_helper+0x28>)
10004eb2:	5050      	str	r0, [r2, r1]
10004eb4:	9003      	str	r0, [sp, #12]
10004eb6:	bd07      	pop	{r0, r1, r2, pc}
10004eb8:	200017c0 	.word	0x200017c0

10004ebc <__aeabi_mem_init>:
10004ebc:	4801      	ldr	r0, [pc, #4]	; (10004ec4 <__aeabi_mem_init+0x8>)
10004ebe:	2104      	movs	r1, #4
10004ec0:	4b01      	ldr	r3, [pc, #4]	; (10004ec8 <__aeabi_mem_init+0xc>)
10004ec2:	4718      	bx	r3
10004ec4:	200005c0 	.word	0x200005c0
10004ec8:	10004c91 	.word	0x10004c91

10004ecc <__wrap_memset>:
10004ecc:	4b01      	ldr	r3, [pc, #4]	; (10004ed4 <__wrap_memset+0x8>)
10004ece:	681b      	ldr	r3, [r3, #0]
10004ed0:	4718      	bx	r3
10004ed2:	0000      	.short	0x0000
10004ed4:	200005c0 	.word	0x200005c0

10004ed8 <__wrap___aeabi_memcpy>:
10004ed8:	4b01      	ldr	r3, [pc, #4]	; (10004ee0 <__wrap___aeabi_memcpy+0x8>)
10004eda:	685b      	ldr	r3, [r3, #4]
10004edc:	4718      	bx	r3
10004ede:	0000      	.short	0x0000
10004ee0:	200005c0 	.word	0x200005c0

10004ee4 <stdio_out_chars_crlf>:
10004ee4:	b5f0      	push	{r4, r5, r6, r7, lr}
10004ee6:	46c6      	mov	lr, r8
10004ee8:	b500      	push	{lr}
10004eea:	7c43      	ldrb	r3, [r0, #17]
10004eec:	0006      	movs	r6, r0
10004eee:	000c      	movs	r4, r1
10004ef0:	0015      	movs	r5, r2
10004ef2:	2b00      	cmp	r3, #0
10004ef4:	d106      	bne.n	10004f04 <stdio_out_chars_crlf+0x20>
10004ef6:	6803      	ldr	r3, [r0, #0]
10004ef8:	0011      	movs	r1, r2
10004efa:	0020      	movs	r0, r4
10004efc:	4798      	blx	r3
10004efe:	bc04      	pop	{r2}
10004f00:	4690      	mov	r8, r2
10004f02:	bdf0      	pop	{r4, r5, r6, r7, pc}
10004f04:	2a00      	cmp	r2, #0
10004f06:	ddfa      	ble.n	10004efe <stdio_out_chars_crlf+0x1a>
10004f08:	780a      	ldrb	r2, [r1, #0]
10004f0a:	7c03      	ldrb	r3, [r0, #16]
10004f0c:	2000      	movs	r0, #0
10004f0e:	2a0a      	cmp	r2, #10
10004f10:	d02c      	beq.n	10004f6c <stdio_out_chars_crlf+0x88>
10004f12:	2101      	movs	r1, #1
10004f14:	2d01      	cmp	r5, #1
10004f16:	d01b      	beq.n	10004f50 <stdio_out_chars_crlf+0x6c>
10004f18:	4b18      	ldr	r3, [pc, #96]	; (10004f7c <stdio_out_chars_crlf+0x98>)
10004f1a:	4698      	mov	r8, r3
10004f1c:	e002      	b.n	10004f24 <stdio_out_chars_crlf+0x40>
10004f1e:	0039      	movs	r1, r7
10004f20:	42bd      	cmp	r5, r7
10004f22:	d015      	beq.n	10004f50 <stdio_out_chars_crlf+0x6c>
10004f24:	1e4b      	subs	r3, r1, #1
10004f26:	5ce2      	ldrb	r2, [r4, r3]
10004f28:	5c63      	ldrb	r3, [r4, r1]
10004f2a:	1c4f      	adds	r7, r1, #1
10004f2c:	2b0a      	cmp	r3, #10
10004f2e:	d1f6      	bne.n	10004f1e <stdio_out_chars_crlf+0x3a>
10004f30:	2a0d      	cmp	r2, #13
10004f32:	d0f4      	beq.n	10004f1e <stdio_out_chars_crlf+0x3a>
10004f34:	6833      	ldr	r3, [r6, #0]
10004f36:	4288      	cmp	r0, r1
10004f38:	da03      	bge.n	10004f42 <stdio_out_chars_crlf+0x5e>
10004f3a:	1a09      	subs	r1, r1, r0
10004f3c:	1820      	adds	r0, r4, r0
10004f3e:	4798      	blx	r3
10004f40:	6833      	ldr	r3, [r6, #0]
10004f42:	2102      	movs	r1, #2
10004f44:	4640      	mov	r0, r8
10004f46:	4798      	blx	r3
10004f48:	0038      	movs	r0, r7
10004f4a:	0039      	movs	r1, r7
10004f4c:	42bd      	cmp	r5, r7
10004f4e:	d1e9      	bne.n	10004f24 <stdio_out_chars_crlf+0x40>
10004f50:	4285      	cmp	r5, r0
10004f52:	dd03      	ble.n	10004f5c <stdio_out_chars_crlf+0x78>
10004f54:	1a29      	subs	r1, r5, r0
10004f56:	6833      	ldr	r3, [r6, #0]
10004f58:	1820      	adds	r0, r4, r0
10004f5a:	4798      	blx	r3
10004f5c:	1964      	adds	r4, r4, r5
10004f5e:	3c01      	subs	r4, #1
10004f60:	7823      	ldrb	r3, [r4, #0]
10004f62:	3b0d      	subs	r3, #13
10004f64:	425a      	negs	r2, r3
10004f66:	4153      	adcs	r3, r2
10004f68:	7433      	strb	r3, [r6, #16]
10004f6a:	e7c8      	b.n	10004efe <stdio_out_chars_crlf+0x1a>
10004f6c:	2b00      	cmp	r3, #0
10004f6e:	d1d0      	bne.n	10004f12 <stdio_out_chars_crlf+0x2e>
10004f70:	4802      	ldr	r0, [pc, #8]	; (10004f7c <stdio_out_chars_crlf+0x98>)
10004f72:	2102      	movs	r1, #2
10004f74:	6833      	ldr	r3, [r6, #0]
10004f76:	4798      	blx	r3
10004f78:	2001      	movs	r0, #1
10004f7a:	e7ca      	b.n	10004f12 <stdio_out_chars_crlf+0x2e>
10004f7c:	10008c10 	.word	0x10008c10

10004f80 <__wrap_putchar>:
10004f80:	b5f0      	push	{r4, r5, r6, r7, lr}
10004f82:	46ce      	mov	lr, r9
10004f84:	4647      	mov	r7, r8
10004f86:	b580      	push	{r7, lr}
10004f88:	b083      	sub	sp, #12
10004f8a:	466b      	mov	r3, sp
10004f8c:	1cdd      	adds	r5, r3, #3
10004f8e:	23d0      	movs	r3, #208	; 0xd0
10004f90:	7028      	strb	r0, [r5, #0]
10004f92:	061b      	lsls	r3, r3, #24
10004f94:	681c      	ldr	r4, [r3, #0]
10004f96:	4b1f      	ldr	r3, [pc, #124]	; (10005014 <__wrap_putchar+0x94>)
10004f98:	4680      	mov	r8, r0
10004f9a:	a901      	add	r1, sp, #4
10004f9c:	0018      	movs	r0, r3
10004f9e:	4699      	mov	r9, r3
10004fa0:	f003 f84e 	bl	10008040 <__mutex_try_enter_veneer>
10004fa4:	1e07      	subs	r7, r0, #0
10004fa6:	d12d      	bne.n	10005004 <__wrap_putchar+0x84>
10004fa8:	9b01      	ldr	r3, [sp, #4]
10004faa:	b264      	sxtb	r4, r4
10004fac:	429c      	cmp	r4, r3
10004fae:	d024      	beq.n	10004ffa <__wrap_putchar+0x7a>
10004fb0:	4648      	mov	r0, r9
10004fb2:	f003 f855 	bl	10008060 <__mutex_enter_blocking_veneer>
10004fb6:	4b18      	ldr	r3, [pc, #96]	; (10005018 <__wrap_putchar+0x98>)
10004fb8:	2701      	movs	r7, #1
10004fba:	681c      	ldr	r4, [r3, #0]
10004fbc:	2c00      	cmp	r4, #0
10004fbe:	d025      	beq.n	1000500c <__wrap_putchar+0x8c>
10004fc0:	4e16      	ldr	r6, [pc, #88]	; (1000501c <__wrap_putchar+0x9c>)
10004fc2:	e007      	b.n	10004fd4 <__wrap_putchar+0x54>
10004fc4:	2201      	movs	r2, #1
10004fc6:	0029      	movs	r1, r5
10004fc8:	0020      	movs	r0, r4
10004fca:	f7ff ff8b 	bl	10004ee4 <stdio_out_chars_crlf>
10004fce:	68e4      	ldr	r4, [r4, #12]
10004fd0:	2c00      	cmp	r4, #0
10004fd2:	d00a      	beq.n	10004fea <__wrap_putchar+0x6a>
10004fd4:	6823      	ldr	r3, [r4, #0]
10004fd6:	2b00      	cmp	r3, #0
10004fd8:	d0f9      	beq.n	10004fce <__wrap_putchar+0x4e>
10004fda:	6833      	ldr	r3, [r6, #0]
10004fdc:	2b00      	cmp	r3, #0
10004fde:	d0f1      	beq.n	10004fc4 <__wrap_putchar+0x44>
10004fe0:	42a3      	cmp	r3, r4
10004fe2:	d0ef      	beq.n	10004fc4 <__wrap_putchar+0x44>
10004fe4:	68e4      	ldr	r4, [r4, #12]
10004fe6:	2c00      	cmp	r4, #0
10004fe8:	d1f4      	bne.n	10004fd4 <__wrap_putchar+0x54>
10004fea:	2f00      	cmp	r7, #0
10004fec:	d10e      	bne.n	1000500c <__wrap_putchar+0x8c>
10004fee:	4640      	mov	r0, r8
10004ff0:	b003      	add	sp, #12
10004ff2:	bc0c      	pop	{r2, r3}
10004ff4:	4690      	mov	r8, r2
10004ff6:	4699      	mov	r9, r3
10004ff8:	bdf0      	pop	{r4, r5, r6, r7, pc}
10004ffa:	4b07      	ldr	r3, [pc, #28]	; (10005018 <__wrap_putchar+0x98>)
10004ffc:	681c      	ldr	r4, [r3, #0]
10004ffe:	2c00      	cmp	r4, #0
10005000:	d1de      	bne.n	10004fc0 <__wrap_putchar+0x40>
10005002:	e7f4      	b.n	10004fee <__wrap_putchar+0x6e>
10005004:	4b04      	ldr	r3, [pc, #16]	; (10005018 <__wrap_putchar+0x98>)
10005006:	681c      	ldr	r4, [r3, #0]
10005008:	2c00      	cmp	r4, #0
1000500a:	d1d9      	bne.n	10004fc0 <__wrap_putchar+0x40>
1000500c:	4648      	mov	r0, r9
1000500e:	f003 f807 	bl	10008020 <__mutex_exit_veneer>
10005012:	e7ec      	b.n	10004fee <__wrap_putchar+0x6e>
10005014:	20000634 	.word	0x20000634
10005018:	20001208 	.word	0x20001208
1000501c:	20001228 	.word	0x20001228

10005020 <__wrap_puts>:
10005020:	b5f0      	push	{r4, r5, r6, r7, lr}
10005022:	46de      	mov	lr, fp
10005024:	4657      	mov	r7, sl
10005026:	464e      	mov	r6, r9
10005028:	4645      	mov	r5, r8
1000502a:	b5e0      	push	{r5, r6, r7, lr}
1000502c:	b083      	sub	sp, #12
1000502e:	0007      	movs	r7, r0
10005030:	f002 ffb8 	bl	10007fa4 <strlen>
10005034:	23d0      	movs	r3, #208	; 0xd0
10005036:	ad01      	add	r5, sp, #4
10005038:	061b      	lsls	r3, r3, #24
1000503a:	0006      	movs	r6, r0
1000503c:	0029      	movs	r1, r5
1000503e:	482f      	ldr	r0, [pc, #188]	; (100050fc <__wrap_puts+0xdc>)
10005040:	681c      	ldr	r4, [r3, #0]
10005042:	f002 fffd 	bl	10008040 <__mutex_try_enter_veneer>
10005046:	4682      	mov	sl, r0
10005048:	2800      	cmp	r0, #0
1000504a:	d149      	bne.n	100050e0 <__wrap_puts+0xc0>
1000504c:	9b01      	ldr	r3, [sp, #4]
1000504e:	b264      	sxtb	r4, r4
10005050:	429c      	cmp	r4, r3
10005052:	d03f      	beq.n	100050d4 <__wrap_puts+0xb4>
10005054:	4829      	ldr	r0, [pc, #164]	; (100050fc <__wrap_puts+0xdc>)
10005056:	f003 f803 	bl	10008060 <__mutex_enter_blocking_veneer>
1000505a:	4b29      	ldr	r3, [pc, #164]	; (10005100 <__wrap_puts+0xe0>)
1000505c:	469b      	mov	fp, r3
1000505e:	681c      	ldr	r4, [r3, #0]
10005060:	2301      	movs	r3, #1
10005062:	469a      	mov	sl, r3
10005064:	2c00      	cmp	r4, #0
10005066:	d040      	beq.n	100050ea <__wrap_puts+0xca>
10005068:	4b26      	ldr	r3, [pc, #152]	; (10005104 <__wrap_puts+0xe4>)
1000506a:	4698      	mov	r8, r3
1000506c:	230a      	movs	r3, #10
1000506e:	4699      	mov	r9, r3
10005070:	e00e      	b.n	10005090 <__wrap_puts+0x70>
10005072:	0032      	movs	r2, r6
10005074:	0039      	movs	r1, r7
10005076:	0020      	movs	r0, r4
10005078:	f7ff ff34 	bl	10004ee4 <stdio_out_chars_crlf>
1000507c:	464b      	mov	r3, r9
1000507e:	2201      	movs	r2, #1
10005080:	0029      	movs	r1, r5
10005082:	0020      	movs	r0, r4
10005084:	702b      	strb	r3, [r5, #0]
10005086:	f7ff ff2d 	bl	10004ee4 <stdio_out_chars_crlf>
1000508a:	68e4      	ldr	r4, [r4, #12]
1000508c:	2c00      	cmp	r4, #0
1000508e:	d00b      	beq.n	100050a8 <__wrap_puts+0x88>
10005090:	6823      	ldr	r3, [r4, #0]
10005092:	2b00      	cmp	r3, #0
10005094:	d0f9      	beq.n	1000508a <__wrap_puts+0x6a>
10005096:	4643      	mov	r3, r8
10005098:	681b      	ldr	r3, [r3, #0]
1000509a:	2b00      	cmp	r3, #0
1000509c:	d0e9      	beq.n	10005072 <__wrap_puts+0x52>
1000509e:	42a3      	cmp	r3, r4
100050a0:	d0e7      	beq.n	10005072 <__wrap_puts+0x52>
100050a2:	68e4      	ldr	r4, [r4, #12]
100050a4:	2c00      	cmp	r4, #0
100050a6:	d1f3      	bne.n	10005090 <__wrap_puts+0x70>
100050a8:	4653      	mov	r3, sl
100050aa:	2b00      	cmp	r3, #0
100050ac:	d11d      	bne.n	100050ea <__wrap_puts+0xca>
100050ae:	465b      	mov	r3, fp
100050b0:	681c      	ldr	r4, [r3, #0]
100050b2:	2c00      	cmp	r4, #0
100050b4:	d006      	beq.n	100050c4 <__wrap_puts+0xa4>
100050b6:	6863      	ldr	r3, [r4, #4]
100050b8:	2b00      	cmp	r3, #0
100050ba:	d01a      	beq.n	100050f2 <__wrap_puts+0xd2>
100050bc:	4798      	blx	r3
100050be:	68e4      	ldr	r4, [r4, #12]
100050c0:	2c00      	cmp	r4, #0
100050c2:	d1f8      	bne.n	100050b6 <__wrap_puts+0x96>
100050c4:	0030      	movs	r0, r6
100050c6:	b003      	add	sp, #12
100050c8:	bc3c      	pop	{r2, r3, r4, r5}
100050ca:	4690      	mov	r8, r2
100050cc:	4699      	mov	r9, r3
100050ce:	46a2      	mov	sl, r4
100050d0:	46ab      	mov	fp, r5
100050d2:	bdf0      	pop	{r4, r5, r6, r7, pc}
100050d4:	4b0a      	ldr	r3, [pc, #40]	; (10005100 <__wrap_puts+0xe0>)
100050d6:	681c      	ldr	r4, [r3, #0]
100050d8:	469b      	mov	fp, r3
100050da:	2c00      	cmp	r4, #0
100050dc:	d1c4      	bne.n	10005068 <__wrap_puts+0x48>
100050de:	e7f1      	b.n	100050c4 <__wrap_puts+0xa4>
100050e0:	4b07      	ldr	r3, [pc, #28]	; (10005100 <__wrap_puts+0xe0>)
100050e2:	681c      	ldr	r4, [r3, #0]
100050e4:	469b      	mov	fp, r3
100050e6:	2c00      	cmp	r4, #0
100050e8:	d1be      	bne.n	10005068 <__wrap_puts+0x48>
100050ea:	4804      	ldr	r0, [pc, #16]	; (100050fc <__wrap_puts+0xdc>)
100050ec:	f002 ff98 	bl	10008020 <__mutex_exit_veneer>
100050f0:	e7dd      	b.n	100050ae <__wrap_puts+0x8e>
100050f2:	68e4      	ldr	r4, [r4, #12]
100050f4:	2c00      	cmp	r4, #0
100050f6:	d1de      	bne.n	100050b6 <__wrap_puts+0x96>
100050f8:	e7e4      	b.n	100050c4 <__wrap_puts+0xa4>
100050fa:	46c0      	nop			; (mov r8, r8)
100050fc:	20000634 	.word	0x20000634
10005100:	20001208 	.word	0x20001208
10005104:	20001228 	.word	0x20001228

10005108 <stdio_set_driver_enabled>:
10005108:	4a0a      	ldr	r2, [pc, #40]	; (10005134 <stdio_set_driver_enabled+0x2c>)
1000510a:	6813      	ldr	r3, [r2, #0]
1000510c:	2b00      	cmp	r3, #0
1000510e:	d105      	bne.n	1000511c <stdio_set_driver_enabled+0x14>
10005110:	e00c      	b.n	1000512c <stdio_set_driver_enabled+0x24>
10005112:	001a      	movs	r2, r3
10005114:	68db      	ldr	r3, [r3, #12]
10005116:	320c      	adds	r2, #12
10005118:	2b00      	cmp	r3, #0
1000511a:	d007      	beq.n	1000512c <stdio_set_driver_enabled+0x24>
1000511c:	4298      	cmp	r0, r3
1000511e:	d1f8      	bne.n	10005112 <stdio_set_driver_enabled+0xa>
10005120:	2900      	cmp	r1, #0
10005122:	d102      	bne.n	1000512a <stdio_set_driver_enabled+0x22>
10005124:	68c3      	ldr	r3, [r0, #12]
10005126:	6013      	str	r3, [r2, #0]
10005128:	60c1      	str	r1, [r0, #12]
1000512a:	4770      	bx	lr
1000512c:	2900      	cmp	r1, #0
1000512e:	d0fc      	beq.n	1000512a <stdio_set_driver_enabled+0x22>
10005130:	6010      	str	r0, [r2, #0]
10005132:	e7fa      	b.n	1000512a <stdio_set_driver_enabled+0x22>
10005134:	20001208 	.word	0x20001208

10005138 <stdio_init_all>:
10005138:	b510      	push	{r4, lr}
1000513a:	f000 f847 	bl	100051cc <stdio_uart_init>
1000513e:	f000 f9a9 	bl	10005494 <stdio_usb_init>
10005142:	bd10      	pop	{r4, pc}

10005144 <stdio_uart_out_chars>:
10005144:	b5f0      	push	{r4, r5, r6, r7, lr}
10005146:	2900      	cmp	r1, #0
10005148:	dd15      	ble.n	10005176 <stdio_uart_out_chars+0x32>
1000514a:	4b0e      	ldr	r3, [pc, #56]	; (10005184 <stdio_uart_out_chars+0x40>)
1000514c:	270d      	movs	r7, #13
1000514e:	681a      	ldr	r2, [r3, #0]
10005150:	4b0d      	ldr	r3, [pc, #52]	; (10005188 <stdio_uart_out_chars+0x44>)
10005152:	1841      	adds	r1, r0, r1
10005154:	18d3      	adds	r3, r2, r3
10005156:	425c      	negs	r4, r3
10005158:	4163      	adcs	r3, r4
1000515a:	4c0c      	ldr	r4, [pc, #48]	; (1000518c <stdio_uart_out_chars+0x48>)
1000515c:	005b      	lsls	r3, r3, #1
1000515e:	5f1e      	ldrsh	r6, [r3, r4]
10005160:	2420      	movs	r4, #32
10005162:	7805      	ldrb	r5, [r0, #0]
10005164:	42ae      	cmp	r6, r5
10005166:	d007      	beq.n	10005178 <stdio_uart_out_chars+0x34>
10005168:	6993      	ldr	r3, [r2, #24]
1000516a:	421c      	tst	r4, r3
1000516c:	d1fc      	bne.n	10005168 <stdio_uart_out_chars+0x24>
1000516e:	3001      	adds	r0, #1
10005170:	6015      	str	r5, [r2, #0]
10005172:	4288      	cmp	r0, r1
10005174:	d1f5      	bne.n	10005162 <stdio_uart_out_chars+0x1e>
10005176:	bdf0      	pop	{r4, r5, r6, r7, pc}
10005178:	6993      	ldr	r3, [r2, #24]
1000517a:	421c      	tst	r4, r3
1000517c:	d1fc      	bne.n	10005178 <stdio_uart_out_chars+0x34>
1000517e:	6017      	str	r7, [r2, #0]
10005180:	e7f2      	b.n	10005168 <stdio_uart_out_chars+0x24>
10005182:	46c0      	nop			; (mov r8, r8)
10005184:	20001674 	.word	0x20001674
10005188:	bffc8000 	.word	0xbffc8000
1000518c:	200016bc 	.word	0x200016bc

10005190 <stdio_uart_in_chars>:
10005190:	b530      	push	{r4, r5, lr}
10005192:	2900      	cmp	r1, #0
10005194:	dd15      	ble.n	100051c2 <stdio_uart_in_chars+0x32>
10005196:	4b0c      	ldr	r3, [pc, #48]	; (100051c8 <stdio_uart_in_chars+0x38>)
10005198:	681a      	ldr	r2, [r3, #0]
1000519a:	6993      	ldr	r3, [r2, #24]
1000519c:	06db      	lsls	r3, r3, #27
1000519e:	d410      	bmi.n	100051c2 <stdio_uart_in_chars+0x32>
100051a0:	2500      	movs	r5, #0
100051a2:	2410      	movs	r4, #16
100051a4:	3501      	adds	r5, #1
100051a6:	6993      	ldr	r3, [r2, #24]
100051a8:	421c      	tst	r4, r3
100051aa:	d1fc      	bne.n	100051a6 <stdio_uart_in_chars+0x16>
100051ac:	6813      	ldr	r3, [r2, #0]
100051ae:	7003      	strb	r3, [r0, #0]
100051b0:	42a9      	cmp	r1, r5
100051b2:	d004      	beq.n	100051be <stdio_uart_in_chars+0x2e>
100051b4:	6993      	ldr	r3, [r2, #24]
100051b6:	3001      	adds	r0, #1
100051b8:	421c      	tst	r4, r3
100051ba:	d0f3      	beq.n	100051a4 <stdio_uart_in_chars+0x14>
100051bc:	0029      	movs	r1, r5
100051be:	0008      	movs	r0, r1
100051c0:	bd30      	pop	{r4, r5, pc}
100051c2:	2003      	movs	r0, #3
100051c4:	4240      	negs	r0, r0
100051c6:	e7fb      	b.n	100051c0 <stdio_uart_in_chars+0x30>
100051c8:	20001674 	.word	0x20001674

100051cc <stdio_uart_init>:
100051cc:	21e1      	movs	r1, #225	; 0xe1
100051ce:	b510      	push	{r4, lr}
100051d0:	4b0b      	ldr	r3, [pc, #44]	; (10005200 <stdio_uart_init+0x34>)
100051d2:	480c      	ldr	r0, [pc, #48]	; (10005204 <stdio_uart_init+0x38>)
100051d4:	781b      	ldrb	r3, [r3, #0]
100051d6:	4b0c      	ldr	r3, [pc, #48]	; (10005208 <stdio_uart_init+0x3c>)
100051d8:	0249      	lsls	r1, r1, #9
100051da:	781b      	ldrb	r3, [r3, #0]
100051dc:	4b0b      	ldr	r3, [pc, #44]	; (1000520c <stdio_uart_init+0x40>)
100051de:	6018      	str	r0, [r3, #0]
100051e0:	f7ff f9ec 	bl	100045bc <uart_init>
100051e4:	2102      	movs	r1, #2
100051e6:	2000      	movs	r0, #0
100051e8:	f7fd fc1a 	bl	10002a20 <gpio_set_function>
100051ec:	2102      	movs	r1, #2
100051ee:	2001      	movs	r0, #1
100051f0:	f7fd fc16 	bl	10002a20 <gpio_set_function>
100051f4:	2101      	movs	r1, #1
100051f6:	4806      	ldr	r0, [pc, #24]	; (10005210 <stdio_uart_init+0x44>)
100051f8:	f7ff ff86 	bl	10005108 <stdio_set_driver_enabled>
100051fc:	bd10      	pop	{r4, pc}
100051fe:	46c0      	nop			; (mov r8, r8)
10005200:	10008e5c 	.word	0x10008e5c
10005204:	40034000 	.word	0x40034000
10005208:	10008e60 	.word	0x10008e60
1000520c:	20001674 	.word	0x20001674
10005210:	200005d0 	.word	0x200005d0

10005214 <resetd_init>:
10005214:	4770      	bx	lr
10005216:	46c0      	nop			; (mov r8, r8)

10005218 <resetd_reset>:
10005218:	2200      	movs	r2, #0
1000521a:	4b01      	ldr	r3, [pc, #4]	; (10005220 <resetd_reset+0x8>)
1000521c:	701a      	strb	r2, [r3, #0]
1000521e:	4770      	bx	lr
10005220:	200016ae 	.word	0x200016ae

10005224 <resetd_xfer_cb>:
10005224:	2001      	movs	r0, #1
10005226:	4770      	bx	lr

10005228 <resetd_open>:
10005228:	794b      	ldrb	r3, [r1, #5]
1000522a:	2000      	movs	r0, #0
1000522c:	2bff      	cmp	r3, #255	; 0xff
1000522e:	d000      	beq.n	10005232 <resetd_open+0xa>
10005230:	4770      	bx	lr
10005232:	798b      	ldrb	r3, [r1, #6]
10005234:	2b00      	cmp	r3, #0
10005236:	d1fb      	bne.n	10005230 <resetd_open+0x8>
10005238:	79cb      	ldrb	r3, [r1, #7]
1000523a:	2b01      	cmp	r3, #1
1000523c:	d1f8      	bne.n	10005230 <resetd_open+0x8>
1000523e:	2a08      	cmp	r2, #8
10005240:	d9f6      	bls.n	10005230 <resetd_open+0x8>
10005242:	788a      	ldrb	r2, [r1, #2]
10005244:	4b01      	ldr	r3, [pc, #4]	; (1000524c <resetd_open+0x24>)
10005246:	3009      	adds	r0, #9
10005248:	701a      	strb	r2, [r3, #0]
1000524a:	e7f1      	b.n	10005230 <resetd_open+0x8>
1000524c:	200016ae 	.word	0x200016ae

10005250 <resetd_control_xfer_cb>:
10005250:	b570      	push	{r4, r5, r6, lr}
10005252:	2900      	cmp	r1, #0
10005254:	d115      	bne.n	10005282 <resetd_control_xfer_cb+0x32>
10005256:	4915      	ldr	r1, [pc, #84]	; (100052ac <resetd_control_xfer_cb+0x5c>)
10005258:	7953      	ldrb	r3, [r2, #5]
1000525a:	7910      	ldrb	r0, [r2, #4]
1000525c:	7809      	ldrb	r1, [r1, #0]
1000525e:	021b      	lsls	r3, r3, #8
10005260:	4303      	orrs	r3, r0
10005262:	2000      	movs	r0, #0
10005264:	4299      	cmp	r1, r3
10005266:	d000      	beq.n	1000526a <resetd_control_xfer_cb+0x1a>
10005268:	bd70      	pop	{r4, r5, r6, pc}
1000526a:	7853      	ldrb	r3, [r2, #1]
1000526c:	2b01      	cmp	r3, #1
1000526e:	d00a      	beq.n	10005286 <resetd_control_xfer_cb+0x36>
10005270:	2b02      	cmp	r3, #2
10005272:	d1f9      	bne.n	10005268 <resetd_control_xfer_cb+0x18>
10005274:	2000      	movs	r0, #0
10005276:	2264      	movs	r2, #100	; 0x64
10005278:	2100      	movs	r1, #0
1000527a:	f7ff fc73 	bl	10004b64 <watchdog_reboot>
1000527e:	2001      	movs	r0, #1
10005280:	e7f2      	b.n	10005268 <resetd_control_xfer_cb+0x18>
10005282:	2001      	movs	r0, #1
10005284:	e7f0      	b.n	10005268 <resetd_control_xfer_cb+0x18>
10005286:	78d4      	ldrb	r4, [r2, #3]
10005288:	7891      	ldrb	r1, [r2, #2]
1000528a:	0224      	lsls	r4, r4, #8
1000528c:	430c      	orrs	r4, r1
1000528e:	0005      	movs	r5, r0
10005290:	05e2      	lsls	r2, r4, #23
10005292:	d502      	bpl.n	1000529a <resetd_control_xfer_cb+0x4a>
10005294:	0a62      	lsrs	r2, r4, #9
10005296:	4093      	lsls	r3, r2
10005298:	001d      	movs	r5, r3
1000529a:	4805      	ldr	r0, [pc, #20]	; (100052b0 <resetd_control_xfer_cb+0x60>)
1000529c:	f7ff fce8 	bl	10004c70 <rom_func_lookup>
100052a0:	217f      	movs	r1, #127	; 0x7f
100052a2:	0003      	movs	r3, r0
100052a4:	4021      	ands	r1, r4
100052a6:	0028      	movs	r0, r5
100052a8:	4798      	blx	r3
100052aa:	46c0      	nop			; (mov r8, r8)
100052ac:	200016ae 	.word	0x200016ae
100052b0:	00004255 	.word	0x00004255

100052b4 <usbd_app_driver_get_cb>:
100052b4:	2301      	movs	r3, #1
100052b6:	7003      	strb	r3, [r0, #0]
100052b8:	4800      	ldr	r0, [pc, #0]	; (100052bc <usbd_app_driver_get_cb+0x8>)
100052ba:	4770      	bx	lr
100052bc:	10008c54 	.word	0x10008c54

100052c0 <tud_cdc_line_coding_cb>:
100052c0:	784a      	ldrb	r2, [r1, #1]
100052c2:	780b      	ldrb	r3, [r1, #0]
100052c4:	0212      	lsls	r2, r2, #8
100052c6:	431a      	orrs	r2, r3
100052c8:	788b      	ldrb	r3, [r1, #2]
100052ca:	b510      	push	{r4, lr}
100052cc:	041b      	lsls	r3, r3, #16
100052ce:	431a      	orrs	r2, r3
100052d0:	78cb      	ldrb	r3, [r1, #3]
100052d2:	061b      	lsls	r3, r3, #24
100052d4:	4313      	orrs	r3, r2
100052d6:	2296      	movs	r2, #150	; 0x96
100052d8:	00d2      	lsls	r2, r2, #3
100052da:	4293      	cmp	r3, r2
100052dc:	d000      	beq.n	100052e0 <tud_cdc_line_coding_cb+0x20>
100052de:	bd10      	pop	{r4, pc}
100052e0:	4803      	ldr	r0, [pc, #12]	; (100052f0 <tud_cdc_line_coding_cb+0x30>)
100052e2:	f7ff fcc5 	bl	10004c70 <rom_func_lookup>
100052e6:	2100      	movs	r1, #0
100052e8:	0003      	movs	r3, r0
100052ea:	0008      	movs	r0, r1
100052ec:	4798      	blx	r3
100052ee:	46c0      	nop			; (mov r8, r8)
100052f0:	00004255 	.word	0x00004255

100052f4 <stdio_usb_in_chars>:
100052f4:	b570      	push	{r4, r5, r6, lr}
100052f6:	4c18      	ldr	r4, [pc, #96]	; (10005358 <stdio_usb_in_chars+0x64>)
100052f8:	b082      	sub	sp, #8
100052fa:	0005      	movs	r5, r0
100052fc:	000e      	movs	r6, r1
100052fe:	0020      	movs	r0, r4
10005300:	a901      	add	r1, sp, #4
10005302:	f002 fe9d 	bl	10008040 <__mutex_try_enter_veneer>
10005306:	2800      	cmp	r0, #0
10005308:	d108      	bne.n	1000531c <stdio_usb_in_chars+0x28>
1000530a:	23d0      	movs	r3, #208	; 0xd0
1000530c:	061b      	lsls	r3, r3, #24
1000530e:	681b      	ldr	r3, [r3, #0]
10005310:	9a01      	ldr	r2, [sp, #4]
10005312:	429a      	cmp	r2, r3
10005314:	d01c      	beq.n	10005350 <stdio_usb_in_chars+0x5c>
10005316:	0020      	movs	r0, r4
10005318:	f002 fea2 	bl	10008060 <__mutex_enter_blocking_veneer>
1000531c:	2000      	movs	r0, #0
1000531e:	f001 fe67 	bl	10006ff0 <tud_cdc_n_connected>
10005322:	2800      	cmp	r0, #0
10005324:	d107      	bne.n	10005336 <stdio_usb_in_chars+0x42>
10005326:	2503      	movs	r5, #3
10005328:	426d      	negs	r5, r5
1000532a:	0020      	movs	r0, r4
1000532c:	f002 fe78 	bl	10008020 <__mutex_exit_veneer>
10005330:	0028      	movs	r0, r5
10005332:	b002      	add	sp, #8
10005334:	bd70      	pop	{r4, r5, r6, pc}
10005336:	2000      	movs	r0, #0
10005338:	f001 fe72 	bl	10007020 <tud_cdc_n_available>
1000533c:	2800      	cmp	r0, #0
1000533e:	d0f2      	beq.n	10005326 <stdio_usb_in_chars+0x32>
10005340:	0029      	movs	r1, r5
10005342:	0032      	movs	r2, r6
10005344:	2000      	movs	r0, #0
10005346:	f001 fe79 	bl	1000703c <tud_cdc_n_read>
1000534a:	1e05      	subs	r5, r0, #0
1000534c:	d0eb      	beq.n	10005326 <stdio_usb_in_chars+0x32>
1000534e:	e7ec      	b.n	1000532a <stdio_usb_in_chars+0x36>
10005350:	2503      	movs	r5, #3
10005352:	426d      	negs	r5, r5
10005354:	e7ec      	b.n	10005330 <stdio_usb_in_chars+0x3c>
10005356:	46c0      	nop			; (mov r8, r8)
10005358:	2000165c 	.word	0x2000165c

1000535c <timer_task>:
1000535c:	b510      	push	{r4, lr}
1000535e:	4b04      	ldr	r3, [pc, #16]	; (10005370 <timer_task+0x14>)
10005360:	7818      	ldrb	r0, [r3, #0]
10005362:	f7fd fc75 	bl	10002c50 <irq_set_pending>
10005366:	20fa      	movs	r0, #250	; 0xfa
10005368:	2100      	movs	r1, #0
1000536a:	0080      	lsls	r0, r0, #2
1000536c:	bd10      	pop	{r4, pc}
1000536e:	46c0      	nop			; (mov r8, r8)
10005370:	200016af 	.word	0x200016af

10005374 <usb_irq>:
10005374:	b510      	push	{r4, lr}
10005376:	4b02      	ldr	r3, [pc, #8]	; (10005380 <usb_irq+0xc>)
10005378:	7818      	ldrb	r0, [r3, #0]
1000537a:	f7fd fc69 	bl	10002c50 <irq_set_pending>
1000537e:	bd10      	pop	{r4, pc}
10005380:	200016af 	.word	0x200016af

10005384 <low_priority_worker_irq>:
10005384:	b510      	push	{r4, lr}
10005386:	4c06      	ldr	r4, [pc, #24]	; (100053a0 <low_priority_worker_irq+0x1c>)
10005388:	2100      	movs	r1, #0
1000538a:	0020      	movs	r0, r4
1000538c:	f002 fe58 	bl	10008040 <__mutex_try_enter_veneer>
10005390:	2800      	cmp	r0, #0
10005392:	d004      	beq.n	1000539e <low_priority_worker_irq+0x1a>
10005394:	f000 fe86 	bl	100060a4 <tud_task>
10005398:	0020      	movs	r0, r4
1000539a:	f002 fe41 	bl	10008020 <__mutex_exit_veneer>
1000539e:	bd10      	pop	{r4, pc}
100053a0:	2000165c 	.word	0x2000165c

100053a4 <stdio_usb_out_chars>:
100053a4:	b5f0      	push	{r4, r5, r6, r7, lr}
100053a6:	4646      	mov	r6, r8
100053a8:	464f      	mov	r7, r9
100053aa:	46d6      	mov	lr, sl
100053ac:	b5c0      	push	{r6, r7, lr}
100053ae:	4f36      	ldr	r7, [pc, #216]	; (10005488 <stdio_usb_out_chars+0xe4>)
100053b0:	b082      	sub	sp, #8
100053b2:	4680      	mov	r8, r0
100053b4:	000e      	movs	r6, r1
100053b6:	0038      	movs	r0, r7
100053b8:	a901      	add	r1, sp, #4
100053ba:	f002 fe41 	bl	10008040 <__mutex_try_enter_veneer>
100053be:	2800      	cmp	r0, #0
100053c0:	d10e      	bne.n	100053e0 <stdio_usb_out_chars+0x3c>
100053c2:	23d0      	movs	r3, #208	; 0xd0
100053c4:	061b      	lsls	r3, r3, #24
100053c6:	681b      	ldr	r3, [r3, #0]
100053c8:	9a01      	ldr	r2, [sp, #4]
100053ca:	429a      	cmp	r2, r3
100053cc:	d105      	bne.n	100053da <stdio_usb_out_chars+0x36>
100053ce:	b002      	add	sp, #8
100053d0:	bc1c      	pop	{r2, r3, r4}
100053d2:	4690      	mov	r8, r2
100053d4:	4699      	mov	r9, r3
100053d6:	46a2      	mov	sl, r4
100053d8:	bdf0      	pop	{r4, r5, r6, r7, pc}
100053da:	0038      	movs	r0, r7
100053dc:	f002 fe40 	bl	10008060 <__mutex_enter_blocking_veneer>
100053e0:	2000      	movs	r0, #0
100053e2:	f001 fe05 	bl	10006ff0 <tud_cdc_n_connected>
100053e6:	2800      	cmp	r0, #0
100053e8:	d032      	beq.n	10005450 <stdio_usb_out_chars+0xac>
100053ea:	2400      	movs	r4, #0
100053ec:	2e00      	cmp	r6, #0
100053ee:	dd34      	ble.n	1000545a <stdio_usb_out_chars+0xb6>
100053f0:	4b26      	ldr	r3, [pc, #152]	; (1000548c <stdio_usb_out_chars+0xe8>)
100053f2:	4699      	mov	r9, r3
100053f4:	469a      	mov	sl, r3
100053f6:	e012      	b.n	1000541e <stdio_usb_out_chars+0x7a>
100053f8:	2800      	cmp	r0, #0
100053fa:	d143      	bne.n	10005484 <stdio_usb_out_chars+0xe0>
100053fc:	f000 fe52 	bl	100060a4 <tud_task>
10005400:	2000      	movs	r0, #0
10005402:	f001 fe9b 	bl	1000713c <tud_cdc_n_write_flush>
10005406:	2000      	movs	r0, #0
10005408:	f001 fdf2 	bl	10006ff0 <tud_cdc_n_connected>
1000540c:	2800      	cmp	r0, #0
1000540e:	d024      	beq.n	1000545a <stdio_usb_out_chars+0xb6>
10005410:	2000      	movs	r0, #0
10005412:	f001 fecf 	bl	100071b4 <tud_cdc_n_write_available>
10005416:	2800      	cmp	r0, #0
10005418:	d023      	beq.n	10005462 <stdio_usb_out_chars+0xbe>
1000541a:	42a6      	cmp	r6, r4
1000541c:	dd1d      	ble.n	1000545a <stdio_usb_out_chars+0xb6>
1000541e:	2000      	movs	r0, #0
10005420:	1b35      	subs	r5, r6, r4
10005422:	f001 fec7 	bl	100071b4 <tud_cdc_n_write_available>
10005426:	4285      	cmp	r5, r0
10005428:	dce6      	bgt.n	100053f8 <stdio_usb_out_chars+0x54>
1000542a:	4643      	mov	r3, r8
1000542c:	002a      	movs	r2, r5
1000542e:	1919      	adds	r1, r3, r4
10005430:	2000      	movs	r0, #0
10005432:	f001 fe3b 	bl	100070ac <tud_cdc_n_write>
10005436:	0005      	movs	r5, r0
10005438:	f000 fe34 	bl	100060a4 <tud_task>
1000543c:	2000      	movs	r0, #0
1000543e:	f001 fe7d 	bl	1000713c <tud_cdc_n_write_flush>
10005442:	f7fe fcd1 	bl	10003de8 <time_us_64>
10005446:	464b      	mov	r3, r9
10005448:	1964      	adds	r4, r4, r5
1000544a:	6018      	str	r0, [r3, #0]
1000544c:	6059      	str	r1, [r3, #4]
1000544e:	e7e4      	b.n	1000541a <stdio_usb_out_chars+0x76>
10005450:	2000      	movs	r0, #0
10005452:	2100      	movs	r1, #0
10005454:	4b0d      	ldr	r3, [pc, #52]	; (1000548c <stdio_usb_out_chars+0xe8>)
10005456:	6018      	str	r0, [r3, #0]
10005458:	6059      	str	r1, [r3, #4]
1000545a:	0038      	movs	r0, r7
1000545c:	f002 fde0 	bl	10008020 <__mutex_exit_veneer>
10005460:	e7b5      	b.n	100053ce <stdio_usb_out_chars+0x2a>
10005462:	f7fe fcc1 	bl	10003de8 <time_us_64>
10005466:	4653      	mov	r3, sl
10005468:	000d      	movs	r5, r1
1000546a:	681a      	ldr	r2, [r3, #0]
1000546c:	685b      	ldr	r3, [r3, #4]
1000546e:	2100      	movs	r1, #0
10005470:	4684      	mov	ip, r0
10005472:	4807      	ldr	r0, [pc, #28]	; (10005490 <stdio_usb_out_chars+0xec>)
10005474:	1812      	adds	r2, r2, r0
10005476:	414b      	adcs	r3, r1
10005478:	429d      	cmp	r5, r3
1000547a:	d8ee      	bhi.n	1000545a <stdio_usb_out_chars+0xb6>
1000547c:	d1cd      	bne.n	1000541a <stdio_usb_out_chars+0x76>
1000547e:	4594      	cmp	ip, r2
10005480:	d9cb      	bls.n	1000541a <stdio_usb_out_chars+0x76>
10005482:	e7ea      	b.n	1000545a <stdio_usb_out_chars+0xb6>
10005484:	0005      	movs	r5, r0
10005486:	e7d0      	b.n	1000542a <stdio_usb_out_chars+0x86>
10005488:	2000165c 	.word	0x2000165c
1000548c:	20000760 	.word	0x20000760
10005490:	0007a120 	.word	0x0007a120

10005494 <stdio_usb_init>:
10005494:	b530      	push	{r4, r5, lr}
10005496:	4b24      	ldr	r3, [pc, #144]	; (10005528 <stdio_usb_init+0x94>)
10005498:	b085      	sub	sp, #20
1000549a:	781b      	ldrb	r3, [r3, #0]
1000549c:	f002 f89c 	bl	100075d8 <tusb_init>
100054a0:	4822      	ldr	r0, [pc, #136]	; (1000552c <stdio_usb_init+0x98>)
100054a2:	f7ff f85f 	bl	10004564 <mutex_init>
100054a6:	2001      	movs	r0, #1
100054a8:	f7fd fe4c 	bl	10003144 <user_irq_claim_unused>
100054ac:	23ff      	movs	r3, #255	; 0xff
100054ae:	4c20      	ldr	r4, [pc, #128]	; (10005530 <stdio_usb_init+0x9c>)
100054b0:	4920      	ldr	r1, [pc, #128]	; (10005534 <stdio_usb_init+0xa0>)
100054b2:	7020      	strb	r0, [r4, #0]
100054b4:	4018      	ands	r0, r3
100054b6:	f7fd fbf1 	bl	10002c9c <irq_set_exclusive_handler>
100054ba:	7820      	ldrb	r0, [r4, #0]
100054bc:	2101      	movs	r1, #1
100054be:	f7fd fbb5 	bl	10002c2c <irq_set_enabled>
100054c2:	2005      	movs	r0, #5
100054c4:	f7fd fbcc 	bl	10002c60 <irq_has_shared_handler>
100054c8:	1e04      	subs	r4, r0, #0
100054ca:	d00c      	beq.n	100054e6 <stdio_usb_init+0x52>
100054cc:	2200      	movs	r2, #0
100054ce:	491a      	ldr	r1, [pc, #104]	; (10005538 <stdio_usb_init+0xa4>)
100054d0:	2005      	movs	r0, #5
100054d2:	f7fd fc0d 	bl	10002cf0 <irq_add_shared_handler>
100054d6:	2101      	movs	r1, #1
100054d8:	4818      	ldr	r0, [pc, #96]	; (1000553c <stdio_usb_init+0xa8>)
100054da:	f7ff fe15 	bl	10005108 <stdio_set_driver_enabled>
100054de:	2401      	movs	r4, #1
100054e0:	0020      	movs	r0, r4
100054e2:	b005      	add	sp, #20
100054e4:	bd30      	pop	{r4, r5, pc}
100054e6:	f7fe f83d 	bl	10003564 <alarm_pool_get_default>
100054ea:	0005      	movs	r5, r0
100054ec:	f7fe fc7c 	bl	10003de8 <time_us_64>
100054f0:	22fa      	movs	r2, #250	; 0xfa
100054f2:	2300      	movs	r3, #0
100054f4:	0092      	lsls	r2, r2, #2
100054f6:	1812      	adds	r2, r2, r0
100054f8:	414b      	adcs	r3, r1
100054fa:	4299      	cmp	r1, r3
100054fc:	d90e      	bls.n	1000551c <stdio_usb_init+0x88>
100054fe:	2201      	movs	r2, #1
10005500:	4252      	negs	r2, r2
10005502:	17d3      	asrs	r3, r2, #31
10005504:	2101      	movs	r1, #1
10005506:	9102      	str	r1, [sp, #8]
10005508:	2100      	movs	r1, #0
1000550a:	9101      	str	r1, [sp, #4]
1000550c:	490c      	ldr	r1, [pc, #48]	; (10005540 <stdio_usb_init+0xac>)
1000550e:	0028      	movs	r0, r5
10005510:	9100      	str	r1, [sp, #0]
10005512:	f7fe f82b 	bl	1000356c <alarm_pool_add_alarm_at>
10005516:	2800      	cmp	r0, #0
10005518:	d1dd      	bne.n	100054d6 <stdio_usb_init+0x42>
1000551a:	e7e1      	b.n	100054e0 <stdio_usb_init+0x4c>
1000551c:	4299      	cmp	r1, r3
1000551e:	d1f1      	bne.n	10005504 <stdio_usb_init+0x70>
10005520:	4290      	cmp	r0, r2
10005522:	d8ec      	bhi.n	100054fe <stdio_usb_init+0x6a>
10005524:	e7ee      	b.n	10005504 <stdio_usb_init+0x70>
10005526:	46c0      	nop			; (mov r8, r8)
10005528:	10008e64 	.word	0x10008e64
1000552c:	2000165c 	.word	0x2000165c
10005530:	200016af 	.word	0x200016af
10005534:	10005385 	.word	0x10005385
10005538:	10005375 	.word	0x10005375
1000553c:	200005e4 	.word	0x200005e4
10005540:	1000535d 	.word	0x1000535d

10005544 <tud_descriptor_device_cb>:
10005544:	4800      	ldr	r0, [pc, #0]	; (10005548 <tud_descriptor_device_cb+0x4>)
10005546:	4770      	bx	lr
10005548:	10008d0c 	.word	0x10008d0c

1000554c <tud_descriptor_configuration_cb>:
1000554c:	4800      	ldr	r0, [pc, #0]	; (10005550 <tud_descriptor_configuration_cb+0x4>)
1000554e:	4770      	bx	lr
10005550:	10008cb8 	.word	0x10008cb8

10005554 <tud_descriptor_string_cb>:
10005554:	b570      	push	{r4, r5, r6, lr}
10005556:	0004      	movs	r4, r0
10005558:	4816      	ldr	r0, [pc, #88]	; (100055b4 <tud_descriptor_string_cb+0x60>)
1000555a:	7803      	ldrb	r3, [r0, #0]
1000555c:	2b00      	cmp	r3, #0
1000555e:	d020      	beq.n	100055a2 <tud_descriptor_string_cb+0x4e>
10005560:	2c00      	cmp	r4, #0
10005562:	d106      	bne.n	10005572 <tud_descriptor_string_cb+0x1e>
10005564:	24c1      	movs	r4, #193	; 0xc1
10005566:	4814      	ldr	r0, [pc, #80]	; (100055b8 <tud_descriptor_string_cb+0x64>)
10005568:	4b14      	ldr	r3, [pc, #80]	; (100055bc <tud_descriptor_string_cb+0x68>)
1000556a:	00a4      	lsls	r4, r4, #2
1000556c:	8043      	strh	r3, [r0, #2]
1000556e:	8004      	strh	r4, [r0, #0]
10005570:	bd70      	pop	{r4, r5, r6, pc}
10005572:	2c05      	cmp	r4, #5
10005574:	d81c      	bhi.n	100055b0 <tud_descriptor_string_cb+0x5c>
10005576:	4b12      	ldr	r3, [pc, #72]	; (100055c0 <tud_descriptor_string_cb+0x6c>)
10005578:	480f      	ldr	r0, [pc, #60]	; (100055b8 <tud_descriptor_string_cb+0x64>)
1000557a:	00a4      	lsls	r4, r4, #2
1000557c:	58e5      	ldr	r5, [r4, r3]
1000557e:	1c81      	adds	r1, r0, #2
10005580:	2300      	movs	r3, #0
10005582:	e004      	b.n	1000558e <tud_descriptor_string_cb+0x3a>
10005584:	3301      	adds	r3, #1
10005586:	800a      	strh	r2, [r1, #0]
10005588:	3102      	adds	r1, #2
1000558a:	2b13      	cmp	r3, #19
1000558c:	d00d      	beq.n	100055aa <tud_descriptor_string_cb+0x56>
1000558e:	5cea      	ldrb	r2, [r5, r3]
10005590:	b2dc      	uxtb	r4, r3
10005592:	2a00      	cmp	r2, #0
10005594:	d1f6      	bne.n	10005584 <tud_descriptor_string_cb+0x30>
10005596:	23c0      	movs	r3, #192	; 0xc0
10005598:	3401      	adds	r4, #1
1000559a:	0064      	lsls	r4, r4, #1
1000559c:	009b      	lsls	r3, r3, #2
1000559e:	431c      	orrs	r4, r3
100055a0:	e7e5      	b.n	1000556e <tud_descriptor_string_cb+0x1a>
100055a2:	2111      	movs	r1, #17
100055a4:	f002 faa0 	bl	10007ae8 <pico_get_unique_board_id_string>
100055a8:	e7da      	b.n	10005560 <tud_descriptor_string_cb+0xc>
100055aa:	24ca      	movs	r4, #202	; 0xca
100055ac:	00a4      	lsls	r4, r4, #2
100055ae:	e7de      	b.n	1000556e <tud_descriptor_string_cb+0x1a>
100055b0:	2000      	movs	r0, #0
100055b2:	e7dd      	b.n	10005570 <tud_descriptor_string_cb+0x1c>
100055b4:	2000167c 	.word	0x2000167c
100055b8:	20000dd8 	.word	0x20000dd8
100055bc:	00000409 	.word	0x00000409
100055c0:	10008d20 	.word	0x10008d20

100055c4 <dcd_rp2040_irq>:
100055c4:	b5f0      	push	{r4, r5, r6, r7, lr}
100055c6:	4657      	mov	r7, sl
100055c8:	46de      	mov	lr, fp
100055ca:	464e      	mov	r6, r9
100055cc:	4645      	mov	r5, r8
100055ce:	2398      	movs	r3, #152	; 0x98
100055d0:	2480      	movs	r4, #128	; 0x80
100055d2:	b5e0      	push	{r5, r6, r7, lr}
100055d4:	4a6b      	ldr	r2, [pc, #428]	; (10005784 <dcd_rp2040_irq+0x1c0>)
100055d6:	0264      	lsls	r4, r4, #9
100055d8:	58d7      	ldr	r7, [r2, r3]
100055da:	b083      	sub	sp, #12
100055dc:	4227      	tst	r7, r4
100055de:	d028      	beq.n	10005632 <dcd_rp2040_irq+0x6e>
100055e0:	2201      	movs	r2, #1
100055e2:	2123      	movs	r1, #35	; 0x23
100055e4:	4b68      	ldr	r3, [pc, #416]	; (10005788 <dcd_rp2040_irq+0x1c4>)
100055e6:	2000      	movs	r0, #0
100055e8:	545a      	strb	r2, [r3, r1]
100055ea:	70da      	strb	r2, [r3, #3]
100055ec:	4967      	ldr	r1, [pc, #412]	; (1000578c <dcd_rp2040_irq+0x1c8>)
100055ee:	f001 fab3 	bl	10006b58 <dcd_event_setup_received>
100055f2:	2280      	movs	r2, #128	; 0x80
100055f4:	4b66      	ldr	r3, [pc, #408]	; (10005790 <dcd_rp2040_irq+0x1cc>)
100055f6:	0292      	lsls	r2, r2, #10
100055f8:	651a      	str	r2, [r3, #80]	; 0x50
100055fa:	4b66      	ldr	r3, [pc, #408]	; (10005794 <dcd_rp2040_irq+0x1d0>)
100055fc:	469a      	mov	sl, r3
100055fe:	06fb      	lsls	r3, r7, #27
10005600:	d41c      	bmi.n	1000563c <dcd_rp2040_irq+0x78>
10005602:	2380      	movs	r3, #128	; 0x80
10005604:	015b      	lsls	r3, r3, #5
10005606:	421f      	tst	r7, r3
10005608:	d14a      	bne.n	100056a0 <dcd_rp2040_irq+0xdc>
1000560a:	2380      	movs	r3, #128	; 0x80
1000560c:	01db      	lsls	r3, r3, #7
1000560e:	421f      	tst	r7, r3
10005610:	d000      	beq.n	10005614 <dcd_rp2040_irq+0x50>
10005612:	e08d      	b.n	10005730 <dcd_rp2040_irq+0x16c>
10005614:	2380      	movs	r3, #128	; 0x80
10005616:	021b      	lsls	r3, r3, #8
10005618:	421f      	tst	r7, r3
1000561a:	d000      	beq.n	1000561e <dcd_rp2040_irq+0x5a>
1000561c:	e096      	b.n	1000574c <dcd_rp2040_irq+0x188>
1000561e:	42bc      	cmp	r4, r7
10005620:	d000      	beq.n	10005624 <dcd_rp2040_irq+0x60>
10005622:	e0aa      	b.n	1000577a <dcd_rp2040_irq+0x1b6>
10005624:	b003      	add	sp, #12
10005626:	bc3c      	pop	{r2, r3, r4, r5}
10005628:	4690      	mov	r8, r2
1000562a:	4699      	mov	r9, r3
1000562c:	46a2      	mov	sl, r4
1000562e:	46ab      	mov	fp, r5
10005630:	bdf0      	pop	{r4, r5, r6, r7, pc}
10005632:	2310      	movs	r3, #16
10005634:	2400      	movs	r4, #0
10005636:	469a      	mov	sl, r3
10005638:	06fb      	lsls	r3, r7, #27
1000563a:	d5e2      	bpl.n	10005602 <dcd_rp2040_irq+0x3e>
1000563c:	4b51      	ldr	r3, [pc, #324]	; (10005784 <dcd_rp2040_irq+0x1c0>)
1000563e:	6d9b      	ldr	r3, [r3, #88]	; 0x58
10005640:	4698      	mov	r8, r3
10005642:	2b00      	cmp	r3, #0
10005644:	d027      	beq.n	10005696 <dcd_rp2040_irq+0xd2>
10005646:	4b52      	ldr	r3, [pc, #328]	; (10005790 <dcd_rp2040_irq+0x1cc>)
10005648:	2400      	movs	r4, #0
1000564a:	469b      	mov	fp, r3
1000564c:	2301      	movs	r3, #1
1000564e:	4699      	mov	r9, r3
10005650:	4643      	mov	r3, r8
10005652:	2601      	movs	r6, #1
10005654:	46b8      	mov	r8, r7
10005656:	001f      	movs	r7, r3
10005658:	e004      	b.n	10005664 <dcd_rp2040_irq+0xa0>
1000565a:	3401      	adds	r4, #1
1000565c:	0076      	lsls	r6, r6, #1
1000565e:	b2e4      	uxtb	r4, r4
10005660:	2c20      	cmp	r4, #32
10005662:	d017      	beq.n	10005694 <dcd_rp2040_irq+0xd0>
10005664:	423e      	tst	r6, r7
10005666:	d0f8      	beq.n	1000565a <dcd_rp2040_irq+0x96>
10005668:	465b      	mov	r3, fp
1000566a:	659e      	str	r6, [r3, #88]	; 0x58
1000566c:	464b      	mov	r3, r9
1000566e:	0865      	lsrs	r5, r4, #1
10005670:	43a3      	bics	r3, r4
10005672:	006d      	lsls	r5, r5, #1
10005674:	18ed      	adds	r5, r5, r3
10005676:	4b44      	ldr	r3, [pc, #272]	; (10005788 <dcd_rp2040_irq+0x1c4>)
10005678:	016d      	lsls	r5, r5, #5
1000567a:	469c      	mov	ip, r3
1000567c:	4465      	add	r5, ip
1000567e:	0028      	movs	r0, r5
10005680:	f000 fb8c 	bl	10005d9c <hw_endpoint_xfer_continue>
10005684:	2800      	cmp	r0, #0
10005686:	d16c      	bne.n	10005762 <dcd_rp2040_irq+0x19e>
10005688:	3401      	adds	r4, #1
1000568a:	43b7      	bics	r7, r6
1000568c:	b2e4      	uxtb	r4, r4
1000568e:	0076      	lsls	r6, r6, #1
10005690:	2f00      	cmp	r7, #0
10005692:	d1e5      	bne.n	10005660 <dcd_rp2040_irq+0x9c>
10005694:	4647      	mov	r7, r8
10005696:	2380      	movs	r3, #128	; 0x80
10005698:	015b      	lsls	r3, r3, #5
1000569a:	4654      	mov	r4, sl
1000569c:	421f      	tst	r7, r3
1000569e:	d0b4      	beq.n	1000560a <dcd_rp2040_irq+0x46>
100056a0:	431c      	orrs	r4, r3
100056a2:	2300      	movs	r3, #0
100056a4:	4a37      	ldr	r2, [pc, #220]	; (10005784 <dcd_rp2040_irq+0x1c0>)
100056a6:	2100      	movs	r1, #0
100056a8:	6013      	str	r3, [r2, #0]
100056aa:	4a38      	ldr	r2, [pc, #224]	; (1000578c <dcd_rp2040_irq+0x1c8>)
100056ac:	483a      	ldr	r0, [pc, #232]	; (10005798 <dcd_rp2040_irq+0x1d4>)
100056ae:	6093      	str	r3, [r2, #8]
100056b0:	60d3      	str	r3, [r2, #12]
100056b2:	4a3a      	ldr	r2, [pc, #232]	; (1000579c <dcd_rp2040_irq+0x1d8>)
100056b4:	6093      	str	r3, [r2, #8]
100056b6:	60d3      	str	r3, [r2, #12]
100056b8:	4a39      	ldr	r2, [pc, #228]	; (100057a0 <dcd_rp2040_irq+0x1dc>)
100056ba:	6093      	str	r3, [r2, #8]
100056bc:	60d3      	str	r3, [r2, #12]
100056be:	4a39      	ldr	r2, [pc, #228]	; (100057a4 <dcd_rp2040_irq+0x1e0>)
100056c0:	6093      	str	r3, [r2, #8]
100056c2:	60d3      	str	r3, [r2, #12]
100056c4:	4a38      	ldr	r2, [pc, #224]	; (100057a8 <dcd_rp2040_irq+0x1e4>)
100056c6:	6093      	str	r3, [r2, #8]
100056c8:	60d3      	str	r3, [r2, #12]
100056ca:	4a38      	ldr	r2, [pc, #224]	; (100057ac <dcd_rp2040_irq+0x1e8>)
100056cc:	6093      	str	r3, [r2, #8]
100056ce:	60d3      	str	r3, [r2, #12]
100056d0:	4a37      	ldr	r2, [pc, #220]	; (100057b0 <dcd_rp2040_irq+0x1ec>)
100056d2:	6093      	str	r3, [r2, #8]
100056d4:	60d3      	str	r3, [r2, #12]
100056d6:	4a37      	ldr	r2, [pc, #220]	; (100057b4 <dcd_rp2040_irq+0x1f0>)
100056d8:	6093      	str	r3, [r2, #8]
100056da:	60d3      	str	r3, [r2, #12]
100056dc:	4a36      	ldr	r2, [pc, #216]	; (100057b8 <dcd_rp2040_irq+0x1f4>)
100056de:	6093      	str	r3, [r2, #8]
100056e0:	60d3      	str	r3, [r2, #12]
100056e2:	4a36      	ldr	r2, [pc, #216]	; (100057bc <dcd_rp2040_irq+0x1f8>)
100056e4:	6093      	str	r3, [r2, #8]
100056e6:	60d3      	str	r3, [r2, #12]
100056e8:	4a35      	ldr	r2, [pc, #212]	; (100057c0 <dcd_rp2040_irq+0x1fc>)
100056ea:	6093      	str	r3, [r2, #8]
100056ec:	60d3      	str	r3, [r2, #12]
100056ee:	4a35      	ldr	r2, [pc, #212]	; (100057c4 <dcd_rp2040_irq+0x200>)
100056f0:	6093      	str	r3, [r2, #8]
100056f2:	60d3      	str	r3, [r2, #12]
100056f4:	4a34      	ldr	r2, [pc, #208]	; (100057c8 <dcd_rp2040_irq+0x204>)
100056f6:	6093      	str	r3, [r2, #8]
100056f8:	60d3      	str	r3, [r2, #12]
100056fa:	4a34      	ldr	r2, [pc, #208]	; (100057cc <dcd_rp2040_irq+0x208>)
100056fc:	6093      	str	r3, [r2, #8]
100056fe:	60d3      	str	r3, [r2, #12]
10005700:	4a33      	ldr	r2, [pc, #204]	; (100057d0 <dcd_rp2040_irq+0x20c>)
10005702:	6093      	str	r3, [r2, #8]
10005704:	60d3      	str	r3, [r2, #12]
10005706:	22f0      	movs	r2, #240	; 0xf0
10005708:	0092      	lsls	r2, r2, #2
1000570a:	f7ff fbdf 	bl	10004ecc <__wrap_memset>
1000570e:	4b31      	ldr	r3, [pc, #196]	; (100057d4 <dcd_rp2040_irq+0x210>)
10005710:	4a31      	ldr	r2, [pc, #196]	; (100057d8 <dcd_rp2040_irq+0x214>)
10005712:	2100      	movs	r1, #0
10005714:	601a      	str	r2, [r3, #0]
10005716:	2000      	movs	r0, #0
10005718:	2201      	movs	r2, #1
1000571a:	f001 f9f1 	bl	10006b00 <dcd_event_bus_reset>
1000571e:	2280      	movs	r2, #128	; 0x80
10005720:	4b1b      	ldr	r3, [pc, #108]	; (10005790 <dcd_rp2040_irq+0x1cc>)
10005722:	0312      	lsls	r2, r2, #12
10005724:	651a      	str	r2, [r3, #80]	; 0x50
10005726:	2380      	movs	r3, #128	; 0x80
10005728:	01db      	lsls	r3, r3, #7
1000572a:	421f      	tst	r7, r3
1000572c:	d100      	bne.n	10005730 <dcd_rp2040_irq+0x16c>
1000572e:	e771      	b.n	10005614 <dcd_rp2040_irq+0x50>
10005730:	2201      	movs	r2, #1
10005732:	2104      	movs	r1, #4
10005734:	2000      	movs	r0, #0
10005736:	431c      	orrs	r4, r3
10005738:	f001 f950 	bl	100069dc <dcd_event_bus_signal>
1000573c:	2210      	movs	r2, #16
1000573e:	4b14      	ldr	r3, [pc, #80]	; (10005790 <dcd_rp2040_irq+0x1cc>)
10005740:	651a      	str	r2, [r3, #80]	; 0x50
10005742:	2380      	movs	r3, #128	; 0x80
10005744:	021b      	lsls	r3, r3, #8
10005746:	421f      	tst	r7, r3
10005748:	d100      	bne.n	1000574c <dcd_rp2040_irq+0x188>
1000574a:	e768      	b.n	1000561e <dcd_rp2040_irq+0x5a>
1000574c:	2201      	movs	r2, #1
1000574e:	2105      	movs	r1, #5
10005750:	2000      	movs	r0, #0
10005752:	431c      	orrs	r4, r3
10005754:	f001 f942 	bl	100069dc <dcd_event_bus_signal>
10005758:	2280      	movs	r2, #128	; 0x80
1000575a:	4b0d      	ldr	r3, [pc, #52]	; (10005790 <dcd_rp2040_irq+0x1cc>)
1000575c:	0112      	lsls	r2, r2, #4
1000575e:	651a      	str	r2, [r3, #80]	; 0x50
10005760:	e75d      	b.n	1000561e <dcd_rp2040_irq+0x5a>
10005762:	464b      	mov	r3, r9
10005764:	8aaa      	ldrh	r2, [r5, #20]
10005766:	78a9      	ldrb	r1, [r5, #2]
10005768:	2000      	movs	r0, #0
1000576a:	9300      	str	r3, [sp, #0]
1000576c:	2300      	movs	r3, #0
1000576e:	f001 fa1b 	bl	10006ba8 <dcd_event_xfer_complete>
10005772:	0028      	movs	r0, r5
10005774:	f000 fa3a 	bl	10005bec <hw_endpoint_reset_transfer>
10005778:	e786      	b.n	10005688 <dcd_rp2040_irq+0xc4>
1000577a:	0021      	movs	r1, r4
1000577c:	4817      	ldr	r0, [pc, #92]	; (100057dc <dcd_rp2040_irq+0x218>)
1000577e:	4079      	eors	r1, r7
10005780:	f7ff f80c 	bl	1000479c <panic>
10005784:	50110000 	.word	0x50110000
10005788:	2000122c 	.word	0x2000122c
1000578c:	50100000 	.word	0x50100000
10005790:	50113000 	.word	0x50113000
10005794:	00010010 	.word	0x00010010
10005798:	2000126c 	.word	0x2000126c
1000579c:	50100008 	.word	0x50100008
100057a0:	50100010 	.word	0x50100010
100057a4:	50100018 	.word	0x50100018
100057a8:	50100020 	.word	0x50100020
100057ac:	50100028 	.word	0x50100028
100057b0:	50100030 	.word	0x50100030
100057b4:	50100038 	.word	0x50100038
100057b8:	50100040 	.word	0x50100040
100057bc:	50100048 	.word	0x50100048
100057c0:	50100050 	.word	0x50100050
100057c4:	50100058 	.word	0x50100058
100057c8:	50100060 	.word	0x50100060
100057cc:	50100068 	.word	0x50100068
100057d0:	50100070 	.word	0x50100070
100057d4:	20001638 	.word	0x20001638
100057d8:	50100180 	.word	0x50100180
100057dc:	10008d38 	.word	0x10008d38

100057e0 <dcd_int_enable>:
100057e0:	b510      	push	{r4, lr}
100057e2:	2101      	movs	r1, #1
100057e4:	2005      	movs	r0, #5
100057e6:	f7fd fa21 	bl	10002c2c <irq_set_enabled>
100057ea:	bd10      	pop	{r4, pc}

100057ec <dcd_set_address>:
100057ec:	b510      	push	{r4, lr}
100057ee:	2200      	movs	r2, #0
100057f0:	2100      	movs	r1, #0
100057f2:	4802      	ldr	r0, [pc, #8]	; (100057fc <dcd_set_address+0x10>)
100057f4:	f000 fa2c 	bl	10005c50 <hw_endpoint_xfer_start>
100057f8:	bd10      	pop	{r4, pc}
100057fa:	46c0      	nop			; (mov r8, r8)
100057fc:	2000124c 	.word	0x2000124c

10005800 <dcd_connect>:
10005800:	2280      	movs	r2, #128	; 0x80
10005802:	4b02      	ldr	r3, [pc, #8]	; (1000580c <dcd_connect+0xc>)
10005804:	0252      	lsls	r2, r2, #9
10005806:	64da      	str	r2, [r3, #76]	; 0x4c
10005808:	4770      	bx	lr
1000580a:	46c0      	nop			; (mov r8, r8)
1000580c:	50112000 	.word	0x50112000

10005810 <dcd_init>:
10005810:	b5f0      	push	{r4, r5, r6, r7, lr}
10005812:	46c6      	mov	lr, r8
10005814:	b500      	push	{lr}
10005816:	0007      	movs	r7, r0
10005818:	f000 f9c2 	bl	10005ba0 <rp2040_usb_init>
1000581c:	230c      	movs	r3, #12
1000581e:	4d35      	ldr	r5, [pc, #212]	; (100058f4 <dcd_init+0xe4>)
10005820:	4935      	ldr	r1, [pc, #212]	; (100058f8 <dcd_init+0xe8>)
10005822:	67ab      	str	r3, [r5, #120]	; 0x78
10005824:	2005      	movs	r0, #5
10005826:	f7fd fa39 	bl	10002c9c <irq_set_exclusive_handler>
1000582a:	2340      	movs	r3, #64	; 0x40
1000582c:	4698      	mov	r8, r3
1000582e:	4c33      	ldr	r4, [pc, #204]	; (100058fc <dcd_init+0xec>)
10005830:	2240      	movs	r2, #64	; 0x40
10005832:	2100      	movs	r1, #0
10005834:	0020      	movs	r0, r4
10005836:	f7ff fb49 	bl	10004ecc <__wrap_memset>
1000583a:	4643      	mov	r3, r8
1000583c:	2601      	movs	r6, #1
1000583e:	83a3      	strh	r3, [r4, #28]
10005840:	2121      	movs	r1, #33	; 0x21
10005842:	2300      	movs	r3, #0
10005844:	4a2e      	ldr	r2, [pc, #184]	; (10005900 <dcd_init+0xf0>)
10005846:	7066      	strb	r6, [r4, #1]
10005848:	60a2      	str	r2, [r4, #8]
1000584a:	6013      	str	r3, [r2, #0]
1000584c:	5463      	strb	r3, [r4, r1]
1000584e:	315f      	adds	r1, #95	; 0x5f
10005850:	8461      	strh	r1, [r4, #34]	; 0x22
10005852:	4641      	mov	r1, r8
10005854:	87a1      	strh	r1, [r4, #60]	; 0x3c
10005856:	3902      	subs	r1, #2
10005858:	5463      	strb	r3, [r4, r1]
1000585a:	4a2a      	ldr	r2, [pc, #168]	; (10005904 <dcd_init+0xf4>)
1000585c:	492a      	ldr	r1, [pc, #168]	; (10005908 <dcd_init+0xf8>)
1000585e:	6063      	str	r3, [r4, #4]
10005860:	60e2      	str	r2, [r4, #12]
10005862:	62a1      	str	r1, [r4, #40]	; 0x28
10005864:	600b      	str	r3, [r1, #0]
10005866:	62e2      	str	r2, [r4, #44]	; 0x2c
10005868:	4a28      	ldr	r2, [pc, #160]	; (1000590c <dcd_init+0xfc>)
1000586a:	6263      	str	r3, [r4, #36]	; 0x24
1000586c:	6093      	str	r3, [r2, #8]
1000586e:	60d3      	str	r3, [r2, #12]
10005870:	4a27      	ldr	r2, [pc, #156]	; (10005910 <dcd_init+0x100>)
10005872:	0020      	movs	r0, r4
10005874:	6093      	str	r3, [r2, #8]
10005876:	60d3      	str	r3, [r2, #12]
10005878:	4a26      	ldr	r2, [pc, #152]	; (10005914 <dcd_init+0x104>)
1000587a:	2100      	movs	r1, #0
1000587c:	6093      	str	r3, [r2, #8]
1000587e:	60d3      	str	r3, [r2, #12]
10005880:	4a25      	ldr	r2, [pc, #148]	; (10005918 <dcd_init+0x108>)
10005882:	3040      	adds	r0, #64	; 0x40
10005884:	6093      	str	r3, [r2, #8]
10005886:	60d3      	str	r3, [r2, #12]
10005888:	4a24      	ldr	r2, [pc, #144]	; (1000591c <dcd_init+0x10c>)
1000588a:	6093      	str	r3, [r2, #8]
1000588c:	60d3      	str	r3, [r2, #12]
1000588e:	4a24      	ldr	r2, [pc, #144]	; (10005920 <dcd_init+0x110>)
10005890:	6093      	str	r3, [r2, #8]
10005892:	60d3      	str	r3, [r2, #12]
10005894:	4a23      	ldr	r2, [pc, #140]	; (10005924 <dcd_init+0x114>)
10005896:	6093      	str	r3, [r2, #8]
10005898:	60d3      	str	r3, [r2, #12]
1000589a:	4a23      	ldr	r2, [pc, #140]	; (10005928 <dcd_init+0x118>)
1000589c:	6093      	str	r3, [r2, #8]
1000589e:	60d3      	str	r3, [r2, #12]
100058a0:	4a22      	ldr	r2, [pc, #136]	; (1000592c <dcd_init+0x11c>)
100058a2:	6093      	str	r3, [r2, #8]
100058a4:	60d3      	str	r3, [r2, #12]
100058a6:	4a22      	ldr	r2, [pc, #136]	; (10005930 <dcd_init+0x120>)
100058a8:	6093      	str	r3, [r2, #8]
100058aa:	60d3      	str	r3, [r2, #12]
100058ac:	4a21      	ldr	r2, [pc, #132]	; (10005934 <dcd_init+0x124>)
100058ae:	6093      	str	r3, [r2, #8]
100058b0:	60d3      	str	r3, [r2, #12]
100058b2:	4a21      	ldr	r2, [pc, #132]	; (10005938 <dcd_init+0x128>)
100058b4:	6093      	str	r3, [r2, #8]
100058b6:	60d3      	str	r3, [r2, #12]
100058b8:	4a20      	ldr	r2, [pc, #128]	; (1000593c <dcd_init+0x12c>)
100058ba:	6093      	str	r3, [r2, #8]
100058bc:	60d3      	str	r3, [r2, #12]
100058be:	4a20      	ldr	r2, [pc, #128]	; (10005940 <dcd_init+0x130>)
100058c0:	6093      	str	r3, [r2, #8]
100058c2:	60d3      	str	r3, [r2, #12]
100058c4:	4a1f      	ldr	r2, [pc, #124]	; (10005944 <dcd_init+0x134>)
100058c6:	6093      	str	r3, [r2, #8]
100058c8:	60d3      	str	r3, [r2, #12]
100058ca:	22f0      	movs	r2, #240	; 0xf0
100058cc:	0092      	lsls	r2, r2, #2
100058ce:	f7ff fafd 	bl	10004ecc <__wrap_memset>
100058d2:	4b1d      	ldr	r3, [pc, #116]	; (10005948 <dcd_init+0x138>)
100058d4:	4a1d      	ldr	r2, [pc, #116]	; (1000594c <dcd_init+0x13c>)
100058d6:	0038      	movs	r0, r7
100058d8:	601a      	str	r2, [r3, #0]
100058da:	2380      	movs	r3, #128	; 0x80
100058dc:	059b      	lsls	r3, r3, #22
100058de:	642e      	str	r6, [r5, #64]	; 0x40
100058e0:	64eb      	str	r3, [r5, #76]	; 0x4c
100058e2:	2390      	movs	r3, #144	; 0x90
100058e4:	4a1a      	ldr	r2, [pc, #104]	; (10005950 <dcd_init+0x140>)
100058e6:	50ea      	str	r2, [r5, r3]
100058e8:	f7ff ff8a 	bl	10005800 <dcd_connect>
100058ec:	bc04      	pop	{r2}
100058ee:	4690      	mov	r8, r2
100058f0:	bdf0      	pop	{r4, r5, r6, r7, pc}
100058f2:	46c0      	nop			; (mov r8, r8)
100058f4:	50110000 	.word	0x50110000
100058f8:	100055c5 	.word	0x100055c5
100058fc:	2000122c 	.word	0x2000122c
10005900:	50100084 	.word	0x50100084
10005904:	50100100 	.word	0x50100100
10005908:	50100080 	.word	0x50100080
1000590c:	50100000 	.word	0x50100000
10005910:	50100008 	.word	0x50100008
10005914:	50100010 	.word	0x50100010
10005918:	50100018 	.word	0x50100018
1000591c:	50100020 	.word	0x50100020
10005920:	50100028 	.word	0x50100028
10005924:	50100030 	.word	0x50100030
10005928:	50100038 	.word	0x50100038
1000592c:	50100040 	.word	0x50100040
10005930:	50100048 	.word	0x50100048
10005934:	50100050 	.word	0x50100050
10005938:	50100058 	.word	0x50100058
1000593c:	50100060 	.word	0x50100060
10005940:	50100068 	.word	0x50100068
10005944:	50100070 	.word	0x50100070
10005948:	20001638 	.word	0x20001638
1000594c:	50100180 	.word	0x50100180
10005950:	0001d010 	.word	0x0001d010

10005954 <dcd_edpt0_status_complete>:
10005954:	780b      	ldrb	r3, [r1, #0]
10005956:	065b      	lsls	r3, r3, #25
10005958:	d102      	bne.n	10005960 <dcd_edpt0_status_complete+0xc>
1000595a:	784b      	ldrb	r3, [r1, #1]
1000595c:	2b05      	cmp	r3, #5
1000595e:	d000      	beq.n	10005962 <dcd_edpt0_status_complete+0xe>
10005960:	4770      	bx	lr
10005962:	788a      	ldrb	r2, [r1, #2]
10005964:	4b01      	ldr	r3, [pc, #4]	; (1000596c <dcd_edpt0_status_complete+0x18>)
10005966:	601a      	str	r2, [r3, #0]
10005968:	e7fa      	b.n	10005960 <dcd_edpt0_status_complete+0xc>
1000596a:	46c0      	nop			; (mov r8, r8)
1000596c:	50110000 	.word	0x50110000

10005970 <dcd_edpt_open>:
10005970:	b5f0      	push	{r4, r5, r6, r7, lr}
10005972:	46ce      	mov	lr, r9
10005974:	4647      	mov	r7, r8
10005976:	b580      	push	{r7, lr}
10005978:	788b      	ldrb	r3, [r1, #2]
1000597a:	7948      	ldrb	r0, [r1, #5]
1000597c:	469c      	mov	ip, r3
1000597e:	2307      	movs	r3, #7
10005980:	4003      	ands	r3, r0
10005982:	78c8      	ldrb	r0, [r1, #3]
10005984:	790a      	ldrb	r2, [r1, #4]
10005986:	0780      	lsls	r0, r0, #30
10005988:	0f80      	lsrs	r0, r0, #30
1000598a:	021b      	lsls	r3, r3, #8
1000598c:	4313      	orrs	r3, r2
1000598e:	b2c2      	uxtb	r2, r0
10005990:	4691      	mov	r9, r2
10005992:	217f      	movs	r1, #127	; 0x7f
10005994:	4662      	mov	r2, ip
10005996:	4666      	mov	r6, ip
10005998:	4011      	ands	r1, r2
1000599a:	09d4      	lsrs	r4, r2, #7
1000599c:	004f      	lsls	r7, r1, #1
1000599e:	4d29      	ldr	r5, [pc, #164]	; (10005a44 <dcd_edpt_open+0xd4>)
100059a0:	193a      	adds	r2, r7, r4
100059a2:	0152      	lsls	r2, r2, #5
100059a4:	18aa      	adds	r2, r5, r2
100059a6:	7096      	strb	r6, [r2, #2]
100059a8:	2601      	movs	r6, #1
100059aa:	46b4      	mov	ip, r6
100059ac:	4666      	mov	r6, ip
100059ae:	4066      	eors	r6, r4
100059b0:	7056      	strb	r6, [r2, #1]
100059b2:	2600      	movs	r6, #0
100059b4:	8393      	strh	r3, [r2, #28]
100059b6:	70d6      	strb	r6, [r2, #3]
100059b8:	7790      	strb	r0, [r2, #30]
100059ba:	00ca      	lsls	r2, r1, #3
100059bc:	2c01      	cmp	r4, #1
100059be:	d027      	beq.n	10005a10 <dcd_edpt_open+0xa0>
100059c0:	4821      	ldr	r0, [pc, #132]	; (10005a48 <dcd_edpt_open+0xd8>)
100059c2:	4680      	mov	r8, r0
100059c4:	0188      	lsls	r0, r1, #6
100059c6:	4442      	add	r2, r8
100059c8:	1828      	adds	r0, r5, r0
100059ca:	6082      	str	r2, [r0, #8]
100059cc:	6016      	str	r6, [r2, #0]
100059ce:	2900      	cmp	r1, #0
100059d0:	d027      	beq.n	10005a22 <dcd_edpt_open+0xb2>
100059d2:	4a1e      	ldr	r2, [pc, #120]	; (10005a4c <dcd_edpt_open+0xdc>)
100059d4:	00c9      	lsls	r1, r1, #3
100059d6:	4694      	mov	ip, r2
100059d8:	4461      	add	r1, ip
100059da:	6041      	str	r1, [r0, #4]
100059dc:	223f      	movs	r2, #63	; 0x3f
100059de:	333f      	adds	r3, #63	; 0x3f
100059e0:	4393      	bics	r3, r2
100059e2:	464a      	mov	r2, r9
100059e4:	2a02      	cmp	r2, #2
100059e6:	d100      	bne.n	100059ea <dcd_edpt_open+0x7a>
100059e8:	005b      	lsls	r3, r3, #1
100059ea:	4919      	ldr	r1, [pc, #100]	; (10005a50 <dcd_edpt_open+0xe0>)
100059ec:	193f      	adds	r7, r7, r4
100059ee:	680a      	ldr	r2, [r1, #0]
100059f0:	017f      	lsls	r7, r7, #5
100059f2:	18d3      	adds	r3, r2, r3
100059f4:	600b      	str	r3, [r1, #0]
100059f6:	4b17      	ldr	r3, [pc, #92]	; (10005a54 <dcd_edpt_open+0xe4>)
100059f8:	19ed      	adds	r5, r5, r7
100059fa:	60ea      	str	r2, [r5, #12]
100059fc:	405a      	eors	r2, r3
100059fe:	2380      	movs	r3, #128	; 0x80
10005a00:	061b      	lsls	r3, r3, #24
10005a02:	4313      	orrs	r3, r2
10005a04:	464a      	mov	r2, r9
10005a06:	0696      	lsls	r6, r2, #26
10005a08:	431e      	orrs	r6, r3
10005a0a:	686b      	ldr	r3, [r5, #4]
10005a0c:	601e      	str	r6, [r3, #0]
10005a0e:	e00e      	b.n	10005a2e <dcd_edpt_open+0xbe>
10005a10:	4811      	ldr	r0, [pc, #68]	; (10005a58 <dcd_edpt_open+0xe8>)
10005a12:	4680      	mov	r8, r0
10005a14:	0188      	lsls	r0, r1, #6
10005a16:	4442      	add	r2, r8
10005a18:	1828      	adds	r0, r5, r0
10005a1a:	6282      	str	r2, [r0, #40]	; 0x28
10005a1c:	6016      	str	r6, [r2, #0]
10005a1e:	2900      	cmp	r1, #0
10005a20:	d10a      	bne.n	10005a38 <dcd_edpt_open+0xc8>
10005a22:	2300      	movs	r3, #0
10005a24:	0164      	lsls	r4, r4, #5
10005a26:	192d      	adds	r5, r5, r4
10005a28:	606b      	str	r3, [r5, #4]
10005a2a:	4b0c      	ldr	r3, [pc, #48]	; (10005a5c <dcd_edpt_open+0xec>)
10005a2c:	60eb      	str	r3, [r5, #12]
10005a2e:	2001      	movs	r0, #1
10005a30:	bc0c      	pop	{r2, r3}
10005a32:	4690      	mov	r8, r2
10005a34:	4699      	mov	r9, r3
10005a36:	bdf0      	pop	{r4, r5, r6, r7, pc}
10005a38:	4a06      	ldr	r2, [pc, #24]	; (10005a54 <dcd_edpt_open+0xe4>)
10005a3a:	00c9      	lsls	r1, r1, #3
10005a3c:	4694      	mov	ip, r2
10005a3e:	4461      	add	r1, ip
10005a40:	6241      	str	r1, [r0, #36]	; 0x24
10005a42:	e7cb      	b.n	100059dc <dcd_edpt_open+0x6c>
10005a44:	2000122c 	.word	0x2000122c
10005a48:	50100084 	.word	0x50100084
10005a4c:	50100004 	.word	0x50100004
10005a50:	20001638 	.word	0x20001638
10005a54:	50100000 	.word	0x50100000
10005a58:	50100080 	.word	0x50100080
10005a5c:	50100100 	.word	0x50100100

10005a60 <dcd_edpt_close_all>:
10005a60:	2300      	movs	r3, #0
10005a62:	4a1c      	ldr	r2, [pc, #112]	; (10005ad4 <dcd_edpt_close_all+0x74>)
10005a64:	b510      	push	{r4, lr}
10005a66:	6093      	str	r3, [r2, #8]
10005a68:	60d3      	str	r3, [r2, #12]
10005a6a:	4a1b      	ldr	r2, [pc, #108]	; (10005ad8 <dcd_edpt_close_all+0x78>)
10005a6c:	2100      	movs	r1, #0
10005a6e:	6093      	str	r3, [r2, #8]
10005a70:	60d3      	str	r3, [r2, #12]
10005a72:	4a1a      	ldr	r2, [pc, #104]	; (10005adc <dcd_edpt_close_all+0x7c>)
10005a74:	481a      	ldr	r0, [pc, #104]	; (10005ae0 <dcd_edpt_close_all+0x80>)
10005a76:	6093      	str	r3, [r2, #8]
10005a78:	60d3      	str	r3, [r2, #12]
10005a7a:	4a1a      	ldr	r2, [pc, #104]	; (10005ae4 <dcd_edpt_close_all+0x84>)
10005a7c:	6093      	str	r3, [r2, #8]
10005a7e:	60d3      	str	r3, [r2, #12]
10005a80:	4a19      	ldr	r2, [pc, #100]	; (10005ae8 <dcd_edpt_close_all+0x88>)
10005a82:	6093      	str	r3, [r2, #8]
10005a84:	60d3      	str	r3, [r2, #12]
10005a86:	4a19      	ldr	r2, [pc, #100]	; (10005aec <dcd_edpt_close_all+0x8c>)
10005a88:	6093      	str	r3, [r2, #8]
10005a8a:	60d3      	str	r3, [r2, #12]
10005a8c:	4a18      	ldr	r2, [pc, #96]	; (10005af0 <dcd_edpt_close_all+0x90>)
10005a8e:	6093      	str	r3, [r2, #8]
10005a90:	60d3      	str	r3, [r2, #12]
10005a92:	4a18      	ldr	r2, [pc, #96]	; (10005af4 <dcd_edpt_close_all+0x94>)
10005a94:	6093      	str	r3, [r2, #8]
10005a96:	60d3      	str	r3, [r2, #12]
10005a98:	4a17      	ldr	r2, [pc, #92]	; (10005af8 <dcd_edpt_close_all+0x98>)
10005a9a:	6093      	str	r3, [r2, #8]
10005a9c:	60d3      	str	r3, [r2, #12]
10005a9e:	4a17      	ldr	r2, [pc, #92]	; (10005afc <dcd_edpt_close_all+0x9c>)
10005aa0:	6093      	str	r3, [r2, #8]
10005aa2:	60d3      	str	r3, [r2, #12]
10005aa4:	4a16      	ldr	r2, [pc, #88]	; (10005b00 <dcd_edpt_close_all+0xa0>)
10005aa6:	6093      	str	r3, [r2, #8]
10005aa8:	60d3      	str	r3, [r2, #12]
10005aaa:	4a16      	ldr	r2, [pc, #88]	; (10005b04 <dcd_edpt_close_all+0xa4>)
10005aac:	6093      	str	r3, [r2, #8]
10005aae:	60d3      	str	r3, [r2, #12]
10005ab0:	4a15      	ldr	r2, [pc, #84]	; (10005b08 <dcd_edpt_close_all+0xa8>)
10005ab2:	6093      	str	r3, [r2, #8]
10005ab4:	60d3      	str	r3, [r2, #12]
10005ab6:	4a15      	ldr	r2, [pc, #84]	; (10005b0c <dcd_edpt_close_all+0xac>)
10005ab8:	6093      	str	r3, [r2, #8]
10005aba:	60d3      	str	r3, [r2, #12]
10005abc:	4a14      	ldr	r2, [pc, #80]	; (10005b10 <dcd_edpt_close_all+0xb0>)
10005abe:	6093      	str	r3, [r2, #8]
10005ac0:	60d3      	str	r3, [r2, #12]
10005ac2:	22f0      	movs	r2, #240	; 0xf0
10005ac4:	0092      	lsls	r2, r2, #2
10005ac6:	f7ff fa01 	bl	10004ecc <__wrap_memset>
10005aca:	4b12      	ldr	r3, [pc, #72]	; (10005b14 <dcd_edpt_close_all+0xb4>)
10005acc:	4a12      	ldr	r2, [pc, #72]	; (10005b18 <dcd_edpt_close_all+0xb8>)
10005ace:	601a      	str	r2, [r3, #0]
10005ad0:	bd10      	pop	{r4, pc}
10005ad2:	46c0      	nop			; (mov r8, r8)
10005ad4:	50100000 	.word	0x50100000
10005ad8:	50100008 	.word	0x50100008
10005adc:	50100010 	.word	0x50100010
10005ae0:	2000126c 	.word	0x2000126c
10005ae4:	50100018 	.word	0x50100018
10005ae8:	50100020 	.word	0x50100020
10005aec:	50100028 	.word	0x50100028
10005af0:	50100030 	.word	0x50100030
10005af4:	50100038 	.word	0x50100038
10005af8:	50100040 	.word	0x50100040
10005afc:	50100048 	.word	0x50100048
10005b00:	50100050 	.word	0x50100050
10005b04:	50100058 	.word	0x50100058
10005b08:	50100060 	.word	0x50100060
10005b0c:	50100068 	.word	0x50100068
10005b10:	50100070 	.word	0x50100070
10005b14:	20001638 	.word	0x20001638
10005b18:	50100180 	.word	0x50100180

10005b1c <dcd_edpt_xfer>:
10005b1c:	207f      	movs	r0, #127	; 0x7f
10005b1e:	b520      	push	{r5, lr}
10005b20:	0015      	movs	r5, r2
10005b22:	4008      	ands	r0, r1
10005b24:	0040      	lsls	r0, r0, #1
10005b26:	09c9      	lsrs	r1, r1, #7
10005b28:	1840      	adds	r0, r0, r1
10005b2a:	4904      	ldr	r1, [pc, #16]	; (10005b3c <dcd_edpt_xfer+0x20>)
10005b2c:	0140      	lsls	r0, r0, #5
10005b2e:	1840      	adds	r0, r0, r1
10005b30:	001a      	movs	r2, r3
10005b32:	0029      	movs	r1, r5
10005b34:	f000 f88c 	bl	10005c50 <hw_endpoint_xfer_start>
10005b38:	2001      	movs	r0, #1
10005b3a:	bd20      	pop	{r5, pc}
10005b3c:	2000122c 	.word	0x2000122c

10005b40 <dcd_edpt_stall>:
10005b40:	237f      	movs	r3, #127	; 0x7f
10005b42:	b510      	push	{r4, lr}
10005b44:	400b      	ands	r3, r1
10005b46:	09c9      	lsrs	r1, r1, #7
10005b48:	2b00      	cmp	r3, #0
10005b4a:	d103      	bne.n	10005b54 <dcd_edpt_stall+0x14>
10005b4c:	2202      	movs	r2, #2
10005b4e:	4807      	ldr	r0, [pc, #28]	; (10005b6c <dcd_edpt_stall+0x2c>)
10005b50:	1a52      	subs	r2, r2, r1
10005b52:	6682      	str	r2, [r0, #104]	; 0x68
10005b54:	2280      	movs	r2, #128	; 0x80
10005b56:	0058      	lsls	r0, r3, #1
10005b58:	1840      	adds	r0, r0, r1
10005b5a:	4b05      	ldr	r3, [pc, #20]	; (10005b70 <dcd_edpt_stall+0x30>)
10005b5c:	0140      	lsls	r0, r0, #5
10005b5e:	18c0      	adds	r0, r0, r3
10005b60:	0112      	lsls	r2, r2, #4
10005b62:	2100      	movs	r1, #0
10005b64:	f000 f848 	bl	10005bf8 <_hw_endpoint_buffer_control_update32>
10005b68:	bd10      	pop	{r4, pc}
10005b6a:	46c0      	nop			; (mov r8, r8)
10005b6c:	50112000 	.word	0x50112000
10005b70:	2000122c 	.word	0x2000122c

10005b74 <dcd_edpt_clear_stall>:
10005b74:	237f      	movs	r3, #127	; 0x7f
10005b76:	b510      	push	{r4, lr}
10005b78:	400b      	ands	r3, r1
10005b7a:	d00b      	beq.n	10005b94 <dcd_edpt_clear_stall+0x20>
10005b7c:	09c9      	lsrs	r1, r1, #7
10005b7e:	0058      	lsls	r0, r3, #1
10005b80:	1840      	adds	r0, r0, r1
10005b82:	4b05      	ldr	r3, [pc, #20]	; (10005b98 <dcd_edpt_clear_stall+0x24>)
10005b84:	0140      	lsls	r0, r0, #5
10005b86:	1818      	adds	r0, r3, r0
10005b88:	2300      	movs	r3, #0
10005b8a:	2200      	movs	r2, #0
10005b8c:	70c3      	strb	r3, [r0, #3]
10005b8e:	4903      	ldr	r1, [pc, #12]	; (10005b9c <dcd_edpt_clear_stall+0x28>)
10005b90:	f000 f832 	bl	10005bf8 <_hw_endpoint_buffer_control_update32>
10005b94:	bd10      	pop	{r4, pc}
10005b96:	46c0      	nop			; (mov r8, r8)
10005b98:	2000122c 	.word	0x2000122c
10005b9c:	fffff7ff 	.word	0xfffff7ff

10005ba0 <rp2040_usb_init>:
10005ba0:	2280      	movs	r2, #128	; 0x80
10005ba2:	4b0d      	ldr	r3, [pc, #52]	; (10005bd8 <rp2040_usb_init+0x38>)
10005ba4:	0452      	lsls	r2, r2, #17
10005ba6:	b510      	push	{r4, lr}
10005ba8:	601a      	str	r2, [r3, #0]
10005baa:	4b0c      	ldr	r3, [pc, #48]	; (10005bdc <rp2040_usb_init+0x3c>)
10005bac:	490c      	ldr	r1, [pc, #48]	; (10005be0 <rp2040_usb_init+0x40>)
10005bae:	601a      	str	r2, [r3, #0]
10005bb0:	0010      	movs	r0, r2
10005bb2:	688b      	ldr	r3, [r1, #8]
10005bb4:	4398      	bics	r0, r3
10005bb6:	d1fb      	bne.n	10005bb0 <rp2040_usb_init+0x10>
10005bb8:	4c0a      	ldr	r4, [pc, #40]	; (10005be4 <rp2040_usb_init+0x44>)
10005bba:	229c      	movs	r2, #156	; 0x9c
10005bbc:	2100      	movs	r1, #0
10005bbe:	0020      	movs	r0, r4
10005bc0:	f7ff f984 	bl	10004ecc <__wrap_memset>
10005bc4:	2280      	movs	r2, #128	; 0x80
10005bc6:	2100      	movs	r1, #0
10005bc8:	0152      	lsls	r2, r2, #5
10005bca:	4807      	ldr	r0, [pc, #28]	; (10005be8 <rp2040_usb_init+0x48>)
10005bcc:	f7ff f97e 	bl	10004ecc <__wrap_memset>
10005bd0:	2309      	movs	r3, #9
10005bd2:	6763      	str	r3, [r4, #116]	; 0x74
10005bd4:	bd10      	pop	{r4, pc}
10005bd6:	46c0      	nop			; (mov r8, r8)
10005bd8:	4000e000 	.word	0x4000e000
10005bdc:	4000f000 	.word	0x4000f000
10005be0:	4000c000 	.word	0x4000c000
10005be4:	50110000 	.word	0x50110000
10005be8:	50100000 	.word	0x50100000

10005bec <hw_endpoint_reset_transfer>:
10005bec:	2300      	movs	r3, #0
10005bee:	7403      	strb	r3, [r0, #16]
10005bf0:	8243      	strh	r3, [r0, #18]
10005bf2:	8283      	strh	r3, [r0, #20]
10005bf4:	6183      	str	r3, [r0, #24]
10005bf6:	4770      	bx	lr

10005bf8 <_hw_endpoint_buffer_control_update32>:
10005bf8:	b510      	push	{r4, lr}
10005bfa:	6883      	ldr	r3, [r0, #8]
10005bfc:	2900      	cmp	r1, #0
10005bfe:	d001      	beq.n	10005c04 <_hw_endpoint_buffer_control_update32+0xc>
10005c00:	681c      	ldr	r4, [r3, #0]
10005c02:	4021      	ands	r1, r4
10005c04:	2a00      	cmp	r2, #0
10005c06:	d011      	beq.n	10005c2c <_hw_endpoint_buffer_control_update32+0x34>
10005c08:	2480      	movs	r4, #128	; 0x80
10005c0a:	00e4      	lsls	r4, r4, #3
10005c0c:	4311      	orrs	r1, r2
10005c0e:	4222      	tst	r2, r4
10005c10:	d00c      	beq.n	10005c2c <_hw_endpoint_buffer_control_update32+0x34>
10005c12:	681a      	ldr	r2, [r3, #0]
10005c14:	4222      	tst	r2, r4
10005c16:	d10b      	bne.n	10005c30 <_hw_endpoint_buffer_control_update32+0x38>
10005c18:	4a0a      	ldr	r2, [pc, #40]	; (10005c44 <_hw_endpoint_buffer_control_update32+0x4c>)
10005c1a:	400a      	ands	r2, r1
10005c1c:	601a      	str	r2, [r3, #0]
10005c1e:	e7ff      	b.n	10005c20 <_hw_endpoint_buffer_control_update32+0x28>
10005c20:	e7ff      	b.n	10005c22 <_hw_endpoint_buffer_control_update32+0x2a>
10005c22:	e7ff      	b.n	10005c24 <_hw_endpoint_buffer_control_update32+0x2c>
10005c24:	e7ff      	b.n	10005c26 <_hw_endpoint_buffer_control_update32+0x2e>
10005c26:	e7ff      	b.n	10005c28 <_hw_endpoint_buffer_control_update32+0x30>
10005c28:	e7ff      	b.n	10005c2a <_hw_endpoint_buffer_control_update32+0x32>
10005c2a:	6883      	ldr	r3, [r0, #8]
10005c2c:	6019      	str	r1, [r3, #0]
10005c2e:	bd10      	pop	{r4, pc}
10005c30:	227f      	movs	r2, #127	; 0x7f
10005c32:	7881      	ldrb	r1, [r0, #2]
10005c34:	4804      	ldr	r0, [pc, #16]	; (10005c48 <_hw_endpoint_buffer_control_update32+0x50>)
10005c36:	09cb      	lsrs	r3, r1, #7
10005c38:	4011      	ands	r1, r2
10005c3a:	4a04      	ldr	r2, [pc, #16]	; (10005c4c <_hw_endpoint_buffer_control_update32+0x54>)
10005c3c:	009b      	lsls	r3, r3, #2
10005c3e:	589a      	ldr	r2, [r3, r2]
10005c40:	f7fe fdac 	bl	1000479c <panic>
10005c44:	fffffbff 	.word	0xfffffbff
10005c48:	10008d4c 	.word	0x10008d4c
10005c4c:	200005f8 	.word	0x200005f8

10005c50 <hw_endpoint_xfer_start>:
10005c50:	b5f0      	push	{r4, r5, r6, r7, lr}
10005c52:	46c6      	mov	lr, r8
10005c54:	2300      	movs	r3, #0
10005c56:	b500      	push	{lr}
10005c58:	8283      	strh	r3, [r0, #20]
10005c5a:	3301      	adds	r3, #1
10005c5c:	7403      	strb	r3, [r0, #16]
10005c5e:	6843      	ldr	r3, [r0, #4]
10005c60:	0004      	movs	r4, r0
10005c62:	681e      	ldr	r6, [r3, #0]
10005c64:	8b83      	ldrh	r3, [r0, #28]
10005c66:	6181      	str	r1, [r0, #24]
10005c68:	1c1f      	adds	r7, r3, #0
10005c6a:	4293      	cmp	r3, r2
10005c6c:	d900      	bls.n	10005c70 <hw_endpoint_xfer_start+0x20>
10005c6e:	1c17      	adds	r7, r2, #0
10005c70:	2580      	movs	r5, #128	; 0x80
10005c72:	b2bf      	uxth	r7, r7
10005c74:	1bd2      	subs	r2, r2, r7
10005c76:	78e3      	ldrb	r3, [r4, #3]
10005c78:	b292      	uxth	r2, r2
10005c7a:	00ed      	lsls	r5, r5, #3
10005c7c:	8262      	strh	r2, [r4, #18]
10005c7e:	433d      	orrs	r5, r7
10005c80:	2b00      	cmp	r3, #0
10005c82:	d002      	beq.n	10005c8a <hw_endpoint_xfer_start+0x3a>
10005c84:	2590      	movs	r5, #144	; 0x90
10005c86:	01ad      	lsls	r5, r5, #6
10005c88:	433d      	orrs	r5, r7
10005c8a:	2001      	movs	r0, #1
10005c8c:	4043      	eors	r3, r0
10005c8e:	70e3      	strb	r3, [r4, #3]
10005c90:	7863      	ldrb	r3, [r4, #1]
10005c92:	2b00      	cmp	r3, #0
10005c94:	d050      	beq.n	10005d38 <hw_endpoint_xfer_start+0xe8>
10005c96:	2a00      	cmp	r2, #0
10005c98:	d11d      	bne.n	10005cd6 <hw_endpoint_xfer_start+0x86>
10005c9a:	23a0      	movs	r3, #160	; 0xa0
10005c9c:	01db      	lsls	r3, r3, #7
10005c9e:	431d      	orrs	r5, r3
10005ca0:	4b38      	ldr	r3, [pc, #224]	; (10005d84 <hw_endpoint_xfer_start+0x134>)
10005ca2:	6c1b      	ldr	r3, [r3, #64]	; 0x40
10005ca4:	4b38      	ldr	r3, [pc, #224]	; (10005d88 <hw_endpoint_xfer_start+0x138>)
10005ca6:	4033      	ands	r3, r6
10005ca8:	2680      	movs	r6, #128	; 0x80
10005caa:	05b6      	lsls	r6, r6, #22
10005cac:	431e      	orrs	r6, r3
10005cae:	6863      	ldr	r3, [r4, #4]
10005cb0:	68a2      	ldr	r2, [r4, #8]
10005cb2:	601e      	str	r6, [r3, #0]
10005cb4:	6813      	ldr	r3, [r2, #0]
10005cb6:	055b      	lsls	r3, r3, #21
10005cb8:	d459      	bmi.n	10005d6e <hw_endpoint_xfer_start+0x11e>
10005cba:	4b34      	ldr	r3, [pc, #208]	; (10005d8c <hw_endpoint_xfer_start+0x13c>)
10005cbc:	402b      	ands	r3, r5
10005cbe:	6013      	str	r3, [r2, #0]
10005cc0:	e7ff      	b.n	10005cc2 <hw_endpoint_xfer_start+0x72>
10005cc2:	e7ff      	b.n	10005cc4 <hw_endpoint_xfer_start+0x74>
10005cc4:	e7ff      	b.n	10005cc6 <hw_endpoint_xfer_start+0x76>
10005cc6:	e7ff      	b.n	10005cc8 <hw_endpoint_xfer_start+0x78>
10005cc8:	e7ff      	b.n	10005cca <hw_endpoint_xfer_start+0x7a>
10005cca:	e7ff      	b.n	10005ccc <hw_endpoint_xfer_start+0x7c>
10005ccc:	68a3      	ldr	r3, [r4, #8]
10005cce:	601d      	str	r5, [r3, #0]
10005cd0:	bc04      	pop	{r2}
10005cd2:	4690      	mov	r8, r2
10005cd4:	bdf0      	pop	{r4, r5, r6, r7, pc}
10005cd6:	2380      	movs	r3, #128	; 0x80
10005cd8:	015b      	lsls	r3, r3, #5
10005cda:	431d      	orrs	r5, r3
10005cdc:	4b29      	ldr	r3, [pc, #164]	; (10005d84 <hw_endpoint_xfer_start+0x134>)
10005cde:	6c1b      	ldr	r3, [r3, #64]	; 0x40
10005ce0:	079b      	lsls	r3, r3, #30
10005ce2:	d402      	bmi.n	10005cea <hw_endpoint_xfer_start+0x9a>
10005ce4:	78a3      	ldrb	r3, [r4, #2]
10005ce6:	09db      	lsrs	r3, r3, #7
10005ce8:	d0dc      	beq.n	10005ca4 <hw_endpoint_xfer_start+0x54>
10005cea:	8ba3      	ldrh	r3, [r4, #28]
10005cec:	1c19      	adds	r1, r3, #0
10005cee:	4293      	cmp	r3, r2
10005cf0:	d900      	bls.n	10005cf4 <hw_endpoint_xfer_start+0xa4>
10005cf2:	1c11      	adds	r1, r2, #0
10005cf4:	2780      	movs	r7, #128	; 0x80
10005cf6:	b28b      	uxth	r3, r1
10005cf8:	00ff      	lsls	r7, r7, #3
10005cfa:	1ad2      	subs	r2, r2, r3
10005cfc:	4698      	mov	r8, r3
10005cfe:	431f      	orrs	r7, r3
10005d00:	78e3      	ldrb	r3, [r4, #3]
10005d02:	b292      	uxth	r2, r2
10005d04:	8262      	strh	r2, [r4, #18]
10005d06:	2b00      	cmp	r3, #0
10005d08:	d003      	beq.n	10005d12 <hw_endpoint_xfer_start+0xc2>
10005d0a:	2790      	movs	r7, #144	; 0x90
10005d0c:	4641      	mov	r1, r8
10005d0e:	01bf      	lsls	r7, r7, #6
10005d10:	430f      	orrs	r7, r1
10005d12:	2101      	movs	r1, #1
10005d14:	404b      	eors	r3, r1
10005d16:	70e3      	strb	r3, [r4, #3]
10005d18:	7863      	ldrb	r3, [r4, #1]
10005d1a:	2b00      	cmp	r3, #0
10005d1c:	d019      	beq.n	10005d52 <hw_endpoint_xfer_start+0x102>
10005d1e:	2a00      	cmp	r2, #0
10005d20:	d102      	bne.n	10005d28 <hw_endpoint_xfer_start+0xd8>
10005d22:	2380      	movs	r3, #128	; 0x80
10005d24:	01db      	lsls	r3, r3, #7
10005d26:	431f      	orrs	r7, r3
10005d28:	4b19      	ldr	r3, [pc, #100]	; (10005d90 <hw_endpoint_xfer_start+0x140>)
10005d2a:	043f      	lsls	r7, r7, #16
10005d2c:	4033      	ands	r3, r6
10005d2e:	26a0      	movs	r6, #160	; 0xa0
10005d30:	05f6      	lsls	r6, r6, #23
10005d32:	433d      	orrs	r5, r7
10005d34:	431e      	orrs	r6, r3
10005d36:	e7ba      	b.n	10005cae <hw_endpoint_xfer_start+0x5e>
10005d38:	003a      	movs	r2, r7
10005d3a:	68e0      	ldr	r0, [r4, #12]
10005d3c:	f7ff f8cc 	bl	10004ed8 <__wrap___aeabi_memcpy>
10005d40:	69a3      	ldr	r3, [r4, #24]
10005d42:	8a62      	ldrh	r2, [r4, #18]
10005d44:	469c      	mov	ip, r3
10005d46:	2380      	movs	r3, #128	; 0x80
10005d48:	4467      	add	r7, ip
10005d4a:	021b      	lsls	r3, r3, #8
10005d4c:	61a7      	str	r7, [r4, #24]
10005d4e:	431d      	orrs	r5, r3
10005d50:	e7a1      	b.n	10005c96 <hw_endpoint_xfer_start+0x46>
10005d52:	68e0      	ldr	r0, [r4, #12]
10005d54:	4642      	mov	r2, r8
10005d56:	3040      	adds	r0, #64	; 0x40
10005d58:	69a1      	ldr	r1, [r4, #24]
10005d5a:	f7ff f8bd 	bl	10004ed8 <__wrap___aeabi_memcpy>
10005d5e:	69a3      	ldr	r3, [r4, #24]
10005d60:	8a62      	ldrh	r2, [r4, #18]
10005d62:	4443      	add	r3, r8
10005d64:	61a3      	str	r3, [r4, #24]
10005d66:	2380      	movs	r3, #128	; 0x80
10005d68:	021b      	lsls	r3, r3, #8
10005d6a:	431f      	orrs	r7, r3
10005d6c:	e7d7      	b.n	10005d1e <hw_endpoint_xfer_start+0xce>
10005d6e:	227f      	movs	r2, #127	; 0x7f
10005d70:	78a1      	ldrb	r1, [r4, #2]
10005d72:	4808      	ldr	r0, [pc, #32]	; (10005d94 <hw_endpoint_xfer_start+0x144>)
10005d74:	09cb      	lsrs	r3, r1, #7
10005d76:	4011      	ands	r1, r2
10005d78:	4a07      	ldr	r2, [pc, #28]	; (10005d98 <hw_endpoint_xfer_start+0x148>)
10005d7a:	009b      	lsls	r3, r3, #2
10005d7c:	589a      	ldr	r2, [r3, r2]
10005d7e:	f7fe fd0d 	bl	1000479c <panic>
10005d82:	46c0      	nop			; (mov r8, r8)
10005d84:	50110000 	.word	0x50110000
10005d88:	afffffff 	.word	0xafffffff
10005d8c:	fffffbff 	.word	0xfffffbff
10005d90:	dfffffff 	.word	0xdfffffff
10005d94:	10008d4c 	.word	0x10008d4c
10005d98:	200005f8 	.word	0x200005f8

10005d9c <hw_endpoint_xfer_continue>:
10005d9c:	b5f0      	push	{r4, r5, r6, r7, lr}
10005d9e:	46c6      	mov	lr, r8
10005da0:	b500      	push	{lr}
10005da2:	7c06      	ldrb	r6, [r0, #16]
10005da4:	0004      	movs	r4, r0
10005da6:	2e00      	cmp	r6, #0
10005da8:	d100      	bne.n	10005dac <hw_endpoint_xfer_continue+0x10>
10005daa:	e0d8      	b.n	10005f5e <hw_endpoint_xfer_continue+0x1c2>
10005dac:	6883      	ldr	r3, [r0, #8]
10005dae:	681a      	ldr	r2, [r3, #0]
10005db0:	681d      	ldr	r5, [r3, #0]
10005db2:	7843      	ldrb	r3, [r0, #1]
10005db4:	05ad      	lsls	r5, r5, #22
10005db6:	0dad      	lsrs	r5, r5, #22
10005db8:	2b00      	cmp	r3, #0
10005dba:	d150      	bne.n	10005e5e <hw_endpoint_xfer_continue+0xc2>
10005dbc:	8a83      	ldrh	r3, [r0, #20]
10005dbe:	18eb      	adds	r3, r5, r3
10005dc0:	b29b      	uxth	r3, r3
10005dc2:	8283      	strh	r3, [r0, #20]
10005dc4:	8ba1      	ldrh	r1, [r4, #28]
10005dc6:	6862      	ldr	r2, [r4, #4]
10005dc8:	428d      	cmp	r5, r1
10005dca:	d206      	bcs.n	10005dda <hw_endpoint_xfer_continue+0x3e>
10005dcc:	2300      	movs	r3, #0
10005dce:	8263      	strh	r3, [r4, #18]
10005dd0:	6813      	ldr	r3, [r2, #0]
10005dd2:	0030      	movs	r0, r6
10005dd4:	bc04      	pop	{r2}
10005dd6:	4690      	mov	r8, r2
10005dd8:	bdf0      	pop	{r4, r5, r6, r7, pc}
10005dda:	6812      	ldr	r2, [r2, #0]
10005ddc:	0052      	lsls	r2, r2, #1
10005dde:	d501      	bpl.n	10005de4 <hw_endpoint_xfer_continue+0x48>
10005de0:	428d      	cmp	r5, r1
10005de2:	d069      	beq.n	10005eb8 <hw_endpoint_xfer_continue+0x11c>
10005de4:	8a63      	ldrh	r3, [r4, #18]
10005de6:	2b00      	cmp	r3, #0
10005de8:	d0f3      	beq.n	10005dd2 <hw_endpoint_xfer_continue+0x36>
10005dea:	6862      	ldr	r2, [r4, #4]
10005dec:	1c1f      	adds	r7, r3, #0
10005dee:	6816      	ldr	r6, [r2, #0]
10005df0:	428b      	cmp	r3, r1
10005df2:	d85f      	bhi.n	10005eb4 <hw_endpoint_xfer_continue+0x118>
10005df4:	2580      	movs	r5, #128	; 0x80
10005df6:	b2bf      	uxth	r7, r7
10005df8:	1bdb      	subs	r3, r3, r7
10005dfa:	78e2      	ldrb	r2, [r4, #3]
10005dfc:	b29b      	uxth	r3, r3
10005dfe:	00ed      	lsls	r5, r5, #3
10005e00:	8263      	strh	r3, [r4, #18]
10005e02:	433d      	orrs	r5, r7
10005e04:	2a00      	cmp	r2, #0
10005e06:	d137      	bne.n	10005e78 <hw_endpoint_xfer_continue+0xdc>
10005e08:	2101      	movs	r1, #1
10005e0a:	404a      	eors	r2, r1
10005e0c:	70e2      	strb	r2, [r4, #3]
10005e0e:	7862      	ldrb	r2, [r4, #1]
10005e10:	2a00      	cmp	r2, #0
10005e12:	d03a      	beq.n	10005e8a <hw_endpoint_xfer_continue+0xee>
10005e14:	2b00      	cmp	r3, #0
10005e16:	d047      	beq.n	10005ea8 <hw_endpoint_xfer_continue+0x10c>
10005e18:	2280      	movs	r2, #128	; 0x80
10005e1a:	0152      	lsls	r2, r2, #5
10005e1c:	4315      	orrs	r5, r2
10005e1e:	4a58      	ldr	r2, [pc, #352]	; (10005f80 <hw_endpoint_xfer_continue+0x1e4>)
10005e20:	6c12      	ldr	r2, [r2, #64]	; 0x40
10005e22:	0792      	lsls	r2, r2, #30
10005e24:	d457      	bmi.n	10005ed6 <hw_endpoint_xfer_continue+0x13a>
10005e26:	78a2      	ldrb	r2, [r4, #2]
10005e28:	09d2      	lsrs	r2, r2, #7
10005e2a:	d154      	bne.n	10005ed6 <hw_endpoint_xfer_continue+0x13a>
10005e2c:	4b55      	ldr	r3, [pc, #340]	; (10005f84 <hw_endpoint_xfer_continue+0x1e8>)
10005e2e:	4033      	ands	r3, r6
10005e30:	2680      	movs	r6, #128	; 0x80
10005e32:	05b6      	lsls	r6, r6, #22
10005e34:	431e      	orrs	r6, r3
10005e36:	6863      	ldr	r3, [r4, #4]
10005e38:	68a2      	ldr	r2, [r4, #8]
10005e3a:	601e      	str	r6, [r3, #0]
10005e3c:	6813      	ldr	r3, [r2, #0]
10005e3e:	055b      	lsls	r3, r3, #21
10005e40:	d500      	bpl.n	10005e44 <hw_endpoint_xfer_continue+0xa8>
10005e42:	e093      	b.n	10005f6c <hw_endpoint_xfer_continue+0x1d0>
10005e44:	4b50      	ldr	r3, [pc, #320]	; (10005f88 <hw_endpoint_xfer_continue+0x1ec>)
10005e46:	402b      	ands	r3, r5
10005e48:	6013      	str	r3, [r2, #0]
10005e4a:	e7ff      	b.n	10005e4c <hw_endpoint_xfer_continue+0xb0>
10005e4c:	e7ff      	b.n	10005e4e <hw_endpoint_xfer_continue+0xb2>
10005e4e:	e7ff      	b.n	10005e50 <hw_endpoint_xfer_continue+0xb4>
10005e50:	e7ff      	b.n	10005e52 <hw_endpoint_xfer_continue+0xb6>
10005e52:	e7ff      	b.n	10005e54 <hw_endpoint_xfer_continue+0xb8>
10005e54:	e7ff      	b.n	10005e56 <hw_endpoint_xfer_continue+0xba>
10005e56:	68a3      	ldr	r3, [r4, #8]
10005e58:	2600      	movs	r6, #0
10005e5a:	601d      	str	r5, [r3, #0]
10005e5c:	e7b9      	b.n	10005dd2 <hw_endpoint_xfer_continue+0x36>
10005e5e:	002a      	movs	r2, r5
10005e60:	68c1      	ldr	r1, [r0, #12]
10005e62:	6980      	ldr	r0, [r0, #24]
10005e64:	f7ff f838 	bl	10004ed8 <__wrap___aeabi_memcpy>
10005e68:	8aa3      	ldrh	r3, [r4, #20]
10005e6a:	69a2      	ldr	r2, [r4, #24]
10005e6c:	18eb      	adds	r3, r5, r3
10005e6e:	b29b      	uxth	r3, r3
10005e70:	1952      	adds	r2, r2, r5
10005e72:	82a3      	strh	r3, [r4, #20]
10005e74:	61a2      	str	r2, [r4, #24]
10005e76:	e7a5      	b.n	10005dc4 <hw_endpoint_xfer_continue+0x28>
10005e78:	2101      	movs	r1, #1
10005e7a:	2590      	movs	r5, #144	; 0x90
10005e7c:	404a      	eors	r2, r1
10005e7e:	70e2      	strb	r2, [r4, #3]
10005e80:	7862      	ldrb	r2, [r4, #1]
10005e82:	01ad      	lsls	r5, r5, #6
10005e84:	433d      	orrs	r5, r7
10005e86:	2a00      	cmp	r2, #0
10005e88:	d1c4      	bne.n	10005e14 <hw_endpoint_xfer_continue+0x78>
10005e8a:	003a      	movs	r2, r7
10005e8c:	69a1      	ldr	r1, [r4, #24]
10005e8e:	68e0      	ldr	r0, [r4, #12]
10005e90:	f7ff f822 	bl	10004ed8 <__wrap___aeabi_memcpy>
10005e94:	69a3      	ldr	r3, [r4, #24]
10005e96:	469c      	mov	ip, r3
10005e98:	2380      	movs	r3, #128	; 0x80
10005e9a:	021b      	lsls	r3, r3, #8
10005e9c:	431d      	orrs	r5, r3
10005e9e:	8a63      	ldrh	r3, [r4, #18]
10005ea0:	4467      	add	r7, ip
10005ea2:	61a7      	str	r7, [r4, #24]
10005ea4:	2b00      	cmp	r3, #0
10005ea6:	d1b7      	bne.n	10005e18 <hw_endpoint_xfer_continue+0x7c>
10005ea8:	23a0      	movs	r3, #160	; 0xa0
10005eaa:	01db      	lsls	r3, r3, #7
10005eac:	431d      	orrs	r5, r3
10005eae:	4b34      	ldr	r3, [pc, #208]	; (10005f80 <hw_endpoint_xfer_continue+0x1e4>)
10005eb0:	6c1b      	ldr	r3, [r3, #64]	; 0x40
10005eb2:	e7bb      	b.n	10005e2c <hw_endpoint_xfer_continue+0x90>
10005eb4:	1c0f      	adds	r7, r1, #0
10005eb6:	e79d      	b.n	10005df4 <hw_endpoint_xfer_continue+0x58>
10005eb8:	68a2      	ldr	r2, [r4, #8]
10005eba:	6815      	ldr	r5, [r2, #0]
10005ebc:	7862      	ldrb	r2, [r4, #1]
10005ebe:	01ad      	lsls	r5, r5, #6
10005ec0:	0dad      	lsrs	r5, r5, #22
10005ec2:	2a00      	cmp	r2, #0
10005ec4:	d13d      	bne.n	10005f42 <hw_endpoint_xfer_continue+0x1a6>
10005ec6:	18eb      	adds	r3, r5, r3
10005ec8:	82a3      	strh	r3, [r4, #20]
10005eca:	428d      	cmp	r5, r1
10005ecc:	d300      	bcc.n	10005ed0 <hw_endpoint_xfer_continue+0x134>
10005ece:	e789      	b.n	10005de4 <hw_endpoint_xfer_continue+0x48>
10005ed0:	2300      	movs	r3, #0
10005ed2:	8263      	strh	r3, [r4, #18]
10005ed4:	e77d      	b.n	10005dd2 <hw_endpoint_xfer_continue+0x36>
10005ed6:	8ba2      	ldrh	r2, [r4, #28]
10005ed8:	1c11      	adds	r1, r2, #0
10005eda:	429a      	cmp	r2, r3
10005edc:	d821      	bhi.n	10005f22 <hw_endpoint_xfer_continue+0x186>
10005ede:	2780      	movs	r7, #128	; 0x80
10005ee0:	b28a      	uxth	r2, r1
10005ee2:	00ff      	lsls	r7, r7, #3
10005ee4:	1a9b      	subs	r3, r3, r2
10005ee6:	4690      	mov	r8, r2
10005ee8:	4317      	orrs	r7, r2
10005eea:	78e2      	ldrb	r2, [r4, #3]
10005eec:	b29b      	uxth	r3, r3
10005eee:	8263      	strh	r3, [r4, #18]
10005ef0:	2a00      	cmp	r2, #0
10005ef2:	d003      	beq.n	10005efc <hw_endpoint_xfer_continue+0x160>
10005ef4:	2790      	movs	r7, #144	; 0x90
10005ef6:	4641      	mov	r1, r8
10005ef8:	01bf      	lsls	r7, r7, #6
10005efa:	430f      	orrs	r7, r1
10005efc:	2101      	movs	r1, #1
10005efe:	404a      	eors	r2, r1
10005f00:	70e2      	strb	r2, [r4, #3]
10005f02:	7862      	ldrb	r2, [r4, #1]
10005f04:	2a00      	cmp	r2, #0
10005f06:	d00e      	beq.n	10005f26 <hw_endpoint_xfer_continue+0x18a>
10005f08:	2b00      	cmp	r3, #0
10005f0a:	d102      	bne.n	10005f12 <hw_endpoint_xfer_continue+0x176>
10005f0c:	2380      	movs	r3, #128	; 0x80
10005f0e:	01db      	lsls	r3, r3, #7
10005f10:	431f      	orrs	r7, r3
10005f12:	4b1e      	ldr	r3, [pc, #120]	; (10005f8c <hw_endpoint_xfer_continue+0x1f0>)
10005f14:	043f      	lsls	r7, r7, #16
10005f16:	4033      	ands	r3, r6
10005f18:	26a0      	movs	r6, #160	; 0xa0
10005f1a:	05f6      	lsls	r6, r6, #23
10005f1c:	433d      	orrs	r5, r7
10005f1e:	431e      	orrs	r6, r3
10005f20:	e789      	b.n	10005e36 <hw_endpoint_xfer_continue+0x9a>
10005f22:	1c19      	adds	r1, r3, #0
10005f24:	e7db      	b.n	10005ede <hw_endpoint_xfer_continue+0x142>
10005f26:	68e0      	ldr	r0, [r4, #12]
10005f28:	4642      	mov	r2, r8
10005f2a:	3040      	adds	r0, #64	; 0x40
10005f2c:	69a1      	ldr	r1, [r4, #24]
10005f2e:	f7fe ffd3 	bl	10004ed8 <__wrap___aeabi_memcpy>
10005f32:	69a3      	ldr	r3, [r4, #24]
10005f34:	4443      	add	r3, r8
10005f36:	61a3      	str	r3, [r4, #24]
10005f38:	2380      	movs	r3, #128	; 0x80
10005f3a:	021b      	lsls	r3, r3, #8
10005f3c:	431f      	orrs	r7, r3
10005f3e:	8a63      	ldrh	r3, [r4, #18]
10005f40:	e7e2      	b.n	10005f08 <hw_endpoint_xfer_continue+0x16c>
10005f42:	68e1      	ldr	r1, [r4, #12]
10005f44:	002a      	movs	r2, r5
10005f46:	3140      	adds	r1, #64	; 0x40
10005f48:	69a0      	ldr	r0, [r4, #24]
10005f4a:	f7fe ffc5 	bl	10004ed8 <__wrap___aeabi_memcpy>
10005f4e:	8aa3      	ldrh	r3, [r4, #20]
10005f50:	8ba1      	ldrh	r1, [r4, #28]
10005f52:	18eb      	adds	r3, r5, r3
10005f54:	82a3      	strh	r3, [r4, #20]
10005f56:	69a3      	ldr	r3, [r4, #24]
10005f58:	195b      	adds	r3, r3, r5
10005f5a:	61a3      	str	r3, [r4, #24]
10005f5c:	e7b5      	b.n	10005eca <hw_endpoint_xfer_continue+0x12e>
10005f5e:	237f      	movs	r3, #127	; 0x7f
10005f60:	7881      	ldrb	r1, [r0, #2]
10005f62:	4a0b      	ldr	r2, [pc, #44]	; (10005f90 <hw_endpoint_xfer_continue+0x1f4>)
10005f64:	4019      	ands	r1, r3
10005f66:	480b      	ldr	r0, [pc, #44]	; (10005f94 <hw_endpoint_xfer_continue+0x1f8>)
10005f68:	f7fe fc18 	bl	1000479c <panic>
10005f6c:	227f      	movs	r2, #127	; 0x7f
10005f6e:	78a1      	ldrb	r1, [r4, #2]
10005f70:	4809      	ldr	r0, [pc, #36]	; (10005f98 <hw_endpoint_xfer_continue+0x1fc>)
10005f72:	09cb      	lsrs	r3, r1, #7
10005f74:	4011      	ands	r1, r2
10005f76:	4a06      	ldr	r2, [pc, #24]	; (10005f90 <hw_endpoint_xfer_continue+0x1f4>)
10005f78:	009b      	lsls	r3, r3, #2
10005f7a:	589a      	ldr	r2, [r3, r2]
10005f7c:	f7fe fc0e 	bl	1000479c <panic>
10005f80:	50110000 	.word	0x50110000
10005f84:	afffffff 	.word	0xafffffff
10005f88:	fffffbff 	.word	0xfffffbff
10005f8c:	dfffffff 	.word	0xdfffffff
10005f90:	200005f8 	.word	0x200005f8
10005f94:	10008d6c 	.word	0x10008d6c
10005f98:	10008d4c 	.word	0x10008d4c

10005f9c <tud_mounted>:
10005f9c:	4b02      	ldr	r3, [pc, #8]	; (10005fa8 <tud_mounted+0xc>)
10005f9e:	7858      	ldrb	r0, [r3, #1]
10005fa0:	1e43      	subs	r3, r0, #1
10005fa2:	4198      	sbcs	r0, r3
10005fa4:	b2c0      	uxtb	r0, r0
10005fa6:	4770      	bx	lr
10005fa8:	20000c00 	.word	0x20000c00

10005fac <tud_suspended>:
10005fac:	4b02      	ldr	r3, [pc, #8]	; (10005fb8 <tud_suspended+0xc>)
10005fae:	7818      	ldrb	r0, [r3, #0]
10005fb0:	0740      	lsls	r0, r0, #29
10005fb2:	0fc0      	lsrs	r0, r0, #31
10005fb4:	4770      	bx	lr
10005fb6:	46c0      	nop			; (mov r8, r8)
10005fb8:	20000c00 	.word	0x20000c00

10005fbc <tud_inited>:
10005fbc:	4b01      	ldr	r3, [pc, #4]	; (10005fc4 <tud_inited+0x8>)
10005fbe:	7818      	ldrb	r0, [r3, #0]
10005fc0:	4770      	bx	lr
10005fc2:	46c0      	nop			; (mov r8, r8)
10005fc4:	200016aa 	.word	0x200016aa

10005fc8 <tud_init>:
10005fc8:	b5f8      	push	{r3, r4, r5, r6, r7, lr}
10005fca:	4647      	mov	r7, r8
10005fcc:	46ce      	mov	lr, r9
10005fce:	4d2b      	ldr	r5, [pc, #172]	; (1000607c <tud_init+0xb4>)
10005fd0:	b580      	push	{r7, lr}
10005fd2:	782b      	ldrb	r3, [r5, #0]
10005fd4:	0007      	movs	r7, r0
10005fd6:	2b00      	cmp	r3, #0
10005fd8:	d004      	beq.n	10005fe4 <tud_init+0x1c>
10005fda:	2001      	movs	r0, #1
10005fdc:	bc0c      	pop	{r2, r3}
10005fde:	4690      	mov	r8, r2
10005fe0:	4699      	mov	r9, r3
10005fe2:	bdf8      	pop	{r3, r4, r5, r6, r7, pc}
10005fe4:	2253      	movs	r2, #83	; 0x53
10005fe6:	2100      	movs	r1, #0
10005fe8:	4825      	ldr	r0, [pc, #148]	; (10006080 <tud_init+0xb8>)
10005fea:	f7fe ff6f 	bl	10004ecc <__wrap_memset>
10005fee:	4c25      	ldr	r4, [pc, #148]	; (10006084 <tud_init+0xbc>)
10005ff0:	0020      	movs	r0, r4
10005ff2:	f7fe fab7 	bl	10004564 <mutex_init>
10005ff6:	4b24      	ldr	r3, [pc, #144]	; (10006088 <tud_init+0xc0>)
10005ff8:	601c      	str	r4, [r3, #0]
10005ffa:	4c24      	ldr	r4, [pc, #144]	; (1000608c <tud_init+0xc4>)
10005ffc:	0020      	movs	r0, r4
10005ffe:	301c      	adds	r0, #28
10006000:	f7fe facc 	bl	1000459c <critical_section_init>
10006004:	0020      	movs	r0, r4
10006006:	f001 fd23 	bl	10007a50 <tu_fifo_clear>
1000600a:	4b21      	ldr	r3, [pc, #132]	; (10006090 <tud_init+0xc8>)
1000600c:	601c      	str	r4, [r3, #0]
1000600e:	4b21      	ldr	r3, [pc, #132]	; (10006094 <tud_init+0xcc>)
10006010:	2b00      	cmp	r3, #0
10006012:	d02a      	beq.n	1000606a <tud_init+0xa2>
10006014:	4e20      	ldr	r6, [pc, #128]	; (10006098 <tud_init+0xd0>)
10006016:	2400      	movs	r4, #0
10006018:	0030      	movs	r0, r6
1000601a:	f7ff f94b 	bl	100052b4 <usbd_app_driver_get_cb>
1000601e:	4b1f      	ldr	r3, [pc, #124]	; (1000609c <tud_init+0xd4>)
10006020:	4a1f      	ldr	r2, [pc, #124]	; (100060a0 <tud_init+0xd8>)
10006022:	4698      	mov	r8, r3
10006024:	6018      	str	r0, [r3, #0]
10006026:	4691      	mov	r9, r2
10006028:	7833      	ldrb	r3, [r6, #0]
1000602a:	e00b      	b.n	10006044 <tud_init+0x7c>
1000602c:	4642      	mov	r2, r8
1000602e:	0063      	lsls	r3, r4, #1
10006030:	191b      	adds	r3, r3, r4
10006032:	6812      	ldr	r2, [r2, #0]
10006034:	00db      	lsls	r3, r3, #3
10006036:	589b      	ldr	r3, [r3, r2]
10006038:	4798      	blx	r3
1000603a:	3401      	adds	r4, #1
1000603c:	7833      	ldrb	r3, [r6, #0]
1000603e:	b2e4      	uxtb	r4, r4
10006040:	42a3      	cmp	r3, r4
10006042:	d309      	bcc.n	10006058 <tud_init+0x90>
10006044:	429c      	cmp	r4, r3
10006046:	d3f1      	bcc.n	1000602c <tud_init+0x64>
10006048:	d115      	bne.n	10006076 <tud_init+0xae>
1000604a:	464b      	mov	r3, r9
1000604c:	4798      	blx	r3
1000604e:	3401      	adds	r4, #1
10006050:	7833      	ldrb	r3, [r6, #0]
10006052:	b2e4      	uxtb	r4, r4
10006054:	42a3      	cmp	r3, r4
10006056:	d2f5      	bcs.n	10006044 <tud_init+0x7c>
10006058:	0038      	movs	r0, r7
1000605a:	f7ff fbd9 	bl	10005810 <dcd_init>
1000605e:	0038      	movs	r0, r7
10006060:	f7ff fbbe 	bl	100057e0 <dcd_int_enable>
10006064:	2301      	movs	r3, #1
10006066:	702b      	strb	r3, [r5, #0]
10006068:	e7b7      	b.n	10005fda <tud_init+0x12>
1000606a:	f001 f8b1 	bl	100071d0 <cdcd_init>
1000606e:	4b0a      	ldr	r3, [pc, #40]	; (10006098 <tud_init+0xd0>)
10006070:	781b      	ldrb	r3, [r3, #0]
10006072:	2b00      	cmp	r3, #0
10006074:	d0f0      	beq.n	10006058 <tud_init+0x90>
10006076:	2300      	movs	r3, #0
10006078:	681b      	ldr	r3, [r3, #0]
1000607a:	deff      	udf	#255	; 0xff
1000607c:	200016aa 	.word	0x200016aa
10006080:	20000c00 	.word	0x20000c00
10006084:	20000bb8 	.word	0x20000bb8
10006088:	20000c54 	.word	0x20000c54
1000608c:	20000600 	.word	0x20000600
10006090:	20000c58 	.word	0x20000c58
10006094:	100052b5 	.word	0x100052b5
10006098:	200016a9 	.word	0x200016a9
1000609c:	200008c8 	.word	0x200008c8
100060a0:	100071d1 	.word	0x100071d1

100060a4 <tud_task>:
100060a4:	b5f0      	push	{r4, r5, r6, r7, lr}
100060a6:	46de      	mov	lr, fp
100060a8:	4657      	mov	r7, sl
100060aa:	464e      	mov	r6, r9
100060ac:	4645      	mov	r5, r8
100060ae:	b5e0      	push	{r5, r6, r7, lr}
100060b0:	b08b      	sub	sp, #44	; 0x2c
100060b2:	f001 fa97 	bl	100075e4 <tusb_inited>
100060b6:	2800      	cmp	r0, #0
100060b8:	d100      	bne.n	100060bc <tud_task+0x18>
100060ba:	e18f      	b.n	100063dc <tud_task+0x338>
100060bc:	4bcf      	ldr	r3, [pc, #828]	; (100063fc <tud_task+0x358>)
100060be:	4ed0      	ldr	r6, [pc, #832]	; (10006400 <tud_task+0x35c>)
100060c0:	469b      	mov	fp, r3
100060c2:	ac07      	add	r4, sp, #28
100060c4:	6835      	ldr	r5, [r6, #0]
100060c6:	69ea      	ldr	r2, [r5, #28]
100060c8:	f3ef 8110 	mrs	r1, PRIMASK
100060cc:	b672      	cpsid	i
100060ce:	6813      	ldr	r3, [r2, #0]
100060d0:	2b00      	cmp	r3, #0
100060d2:	d0fc      	beq.n	100060ce <tud_task+0x2a>
100060d4:	f3bf 8f5f 	dmb	sy
100060d8:	6229      	str	r1, [r5, #32]
100060da:	0028      	movs	r0, r5
100060dc:	0021      	movs	r1, r4
100060de:	f001 fb3d 	bl	1000775c <tu_fifo_read>
100060e2:	69ea      	ldr	r2, [r5, #28]
100060e4:	6a2b      	ldr	r3, [r5, #32]
100060e6:	f3bf 8f5f 	dmb	sy
100060ea:	2100      	movs	r1, #0
100060ec:	6011      	str	r1, [r2, #0]
100060ee:	f383 8810 	msr	PRIMASK, r3
100060f2:	2800      	cmp	r0, #0
100060f4:	d100      	bne.n	100060f8 <tud_task+0x54>
100060f6:	e171      	b.n	100063dc <tud_task+0x338>
100060f8:	7863      	ldrb	r3, [r4, #1]
100060fa:	2b08      	cmp	r3, #8
100060fc:	d8e2      	bhi.n	100060c4 <tud_task+0x20>
100060fe:	465a      	mov	r2, fp
10006100:	009b      	lsls	r3, r3, #2
10006102:	58d3      	ldr	r3, [r2, r3]
10006104:	469f      	mov	pc, r3
10006106:	6863      	ldr	r3, [r4, #4]
10006108:	2b00      	cmp	r3, #0
1000610a:	d0db      	beq.n	100060c4 <tud_task+0x20>
1000610c:	68a0      	ldr	r0, [r4, #8]
1000610e:	4798      	blx	r3
10006110:	e7d8      	b.n	100060c4 <tud_task+0x20>
10006112:	227f      	movs	r2, #127	; 0x7f
10006114:	7921      	ldrb	r1, [r4, #4]
10006116:	4bbb      	ldr	r3, [pc, #748]	; (10006404 <tud_task+0x360>)
10006118:	400a      	ands	r2, r1
1000611a:	0055      	lsls	r5, r2, #1
1000611c:	09c8      	lsrs	r0, r1, #7
1000611e:	195b      	adds	r3, r3, r5
10006120:	181b      	adds	r3, r3, r0
10006122:	0018      	movs	r0, r3
10006124:	2701      	movs	r7, #1
10006126:	3030      	adds	r0, #48	; 0x30
10006128:	78c5      	ldrb	r5, [r0, #3]
1000612a:	43bd      	bics	r5, r7
1000612c:	70c5      	strb	r5, [r0, #3]
1000612e:	78c5      	ldrb	r5, [r0, #3]
10006130:	3703      	adds	r7, #3
10006132:	43bd      	bics	r5, r7
10006134:	70c5      	strb	r5, [r0, #3]
10006136:	2a00      	cmp	r2, #0
10006138:	d100      	bne.n	1000613c <tud_task+0x98>
1000613a:	e199      	b.n	10006470 <tud_task+0x3cc>
1000613c:	4ab2      	ldr	r2, [pc, #712]	; (10006408 <tud_task+0x364>)
1000613e:	7cdb      	ldrb	r3, [r3, #19]
10006140:	2a00      	cmp	r2, #0
10006142:	d100      	bne.n	10006146 <tud_task+0xa2>
10006144:	e190      	b.n	10006468 <tud_task+0x3c4>
10006146:	4ab1      	ldr	r2, [pc, #708]	; (1000640c <tud_task+0x368>)
10006148:	7812      	ldrb	r2, [r2, #0]
1000614a:	4293      	cmp	r3, r2
1000614c:	d300      	bcc.n	10006150 <tud_task+0xac>
1000614e:	e189      	b.n	10006464 <tud_task+0x3c0>
10006150:	005a      	lsls	r2, r3, #1
10006152:	18d3      	adds	r3, r2, r3
10006154:	4aae      	ldr	r2, [pc, #696]	; (10006410 <tud_task+0x36c>)
10006156:	00db      	lsls	r3, r3, #3
10006158:	6812      	ldr	r2, [r2, #0]
1000615a:	18d3      	adds	r3, r2, r3
1000615c:	2b00      	cmp	r3, #0
1000615e:	d100      	bne.n	10006162 <tud_task+0xbe>
10006160:	e13c      	b.n	100063dc <tud_task+0x338>
10006162:	691d      	ldr	r5, [r3, #16]
10006164:	7962      	ldrb	r2, [r4, #5]
10006166:	7820      	ldrb	r0, [r4, #0]
10006168:	68a3      	ldr	r3, [r4, #8]
1000616a:	47a8      	blx	r5
1000616c:	e7aa      	b.n	100060c4 <tud_task+0x20>
1000616e:	2201      	movs	r2, #1
10006170:	4fa4      	ldr	r7, [pc, #656]	; (10006404 <tud_task+0x360>)
10006172:	2101      	movs	r1, #1
10006174:	783b      	ldrb	r3, [r7, #0]
10006176:	2004      	movs	r0, #4
10006178:	4313      	orrs	r3, r2
1000617a:	703b      	strb	r3, [r7, #0]
1000617c:	2333      	movs	r3, #51	; 0x33
1000617e:	5cfa      	ldrb	r2, [r7, r3]
10006180:	438a      	bics	r2, r1
10006182:	54fa      	strb	r2, [r7, r3]
10006184:	5cfa      	ldrb	r2, [r7, r3]
10006186:	4382      	bics	r2, r0
10006188:	54fa      	strb	r2, [r7, r3]
1000618a:	3301      	adds	r3, #1
1000618c:	5cfa      	ldrb	r2, [r7, r3]
1000618e:	438a      	bics	r2, r1
10006190:	54fa      	strb	r2, [r7, r3]
10006192:	5cfa      	ldrb	r2, [r7, r3]
10006194:	4382      	bics	r2, r0
10006196:	54fa      	strb	r2, [r7, r3]
10006198:	7823      	ldrb	r3, [r4, #0]
1000619a:	2000      	movs	r0, #0
1000619c:	9301      	str	r3, [sp, #4]
1000619e:	f000 fe95 	bl	10006ecc <usbd_control_set_complete_callback>
100061a2:	2360      	movs	r3, #96	; 0x60
100061a4:	7922      	ldrb	r2, [r4, #4]
100061a6:	4013      	ands	r3, r2
100061a8:	2b60      	cmp	r3, #96	; 0x60
100061aa:	d100      	bne.n	100061ae <tud_task+0x10a>
100061ac:	e151      	b.n	10006452 <tud_task+0x3ae>
100061ae:	2b40      	cmp	r3, #64	; 0x40
100061b0:	d100      	bne.n	100061b4 <tud_task+0x110>
100061b2:	e141      	b.n	10006438 <tud_task+0x394>
100061b4:	06d2      	lsls	r2, r2, #27
100061b6:	0ed2      	lsrs	r2, r2, #27
100061b8:	2a01      	cmp	r2, #1
100061ba:	d100      	bne.n	100061be <tud_task+0x11a>
100061bc:	e16a      	b.n	10006494 <tud_task+0x3f0>
100061be:	2a00      	cmp	r2, #0
100061c0:	d100      	bne.n	100061c4 <tud_task+0x120>
100061c2:	e15b      	b.n	1000647c <tud_task+0x3d8>
100061c4:	2a02      	cmp	r2, #2
100061c6:	d000      	beq.n	100061ca <tud_task+0x126>
100061c8:	e143      	b.n	10006452 <tud_task+0x3ae>
100061ca:	227f      	movs	r2, #127	; 0x7f
100061cc:	7a21      	ldrb	r1, [r4, #8]
100061ce:	400a      	ands	r2, r1
100061d0:	2a0f      	cmp	r2, #15
100061d2:	d900      	bls.n	100061d6 <tud_task+0x132>
100061d4:	e13d      	b.n	10006452 <tud_task+0x3ae>
100061d6:	09c8      	lsrs	r0, r1, #7
100061d8:	4684      	mov	ip, r0
100061da:	0052      	lsls	r2, r2, #1
100061dc:	18b8      	adds	r0, r7, r2
100061de:	4d8a      	ldr	r5, [pc, #552]	; (10006408 <tud_task+0x364>)
100061e0:	4460      	add	r0, ip
100061e2:	7cc0      	ldrb	r0, [r0, #19]
100061e4:	2d00      	cmp	r5, #0
100061e6:	d100      	bne.n	100061ea <tud_task+0x146>
100061e8:	e18f      	b.n	1000650a <tud_task+0x466>
100061ea:	4d88      	ldr	r5, [pc, #544]	; (1000640c <tud_task+0x368>)
100061ec:	782d      	ldrb	r5, [r5, #0]
100061ee:	42a8      	cmp	r0, r5
100061f0:	d300      	bcc.n	100061f4 <tud_task+0x150>
100061f2:	e188      	b.n	10006506 <tud_task+0x462>
100061f4:	0045      	lsls	r5, r0, #1
100061f6:	1828      	adds	r0, r5, r0
100061f8:	4d85      	ldr	r5, [pc, #532]	; (10006410 <tud_task+0x36c>)
100061fa:	00c0      	lsls	r0, r0, #3
100061fc:	682d      	ldr	r5, [r5, #0]
100061fe:	182d      	adds	r5, r5, r0
10006200:	2b00      	cmp	r3, #0
10006202:	d100      	bne.n	10006206 <tud_task+0x162>
10006204:	e187      	b.n	10006516 <tud_task+0x472>
10006206:	2d00      	cmp	r5, #0
10006208:	d100      	bne.n	1000620c <tud_task+0x168>
1000620a:	e122      	b.n	10006452 <tud_task+0x3ae>
1000620c:	68e8      	ldr	r0, [r5, #12]
1000620e:	f000 fe5d 	bl	10006ecc <usbd_control_set_complete_callback>
10006212:	68eb      	ldr	r3, [r5, #12]
10006214:	aa08      	add	r2, sp, #32
10006216:	2100      	movs	r1, #0
10006218:	9801      	ldr	r0, [sp, #4]
1000621a:	4798      	blx	r3
1000621c:	e116      	b.n	1000644c <tud_task+0x3a8>
1000621e:	4b79      	ldr	r3, [pc, #484]	; (10006404 <tud_task+0x360>)
10006220:	781b      	ldrb	r3, [r3, #0]
10006222:	07db      	lsls	r3, r3, #31
10006224:	d400      	bmi.n	10006228 <tud_task+0x184>
10006226:	e74d      	b.n	100060c4 <tud_task+0x20>
10006228:	4b7a      	ldr	r3, [pc, #488]	; (10006414 <tud_task+0x370>)
1000622a:	2b00      	cmp	r3, #0
1000622c:	d100      	bne.n	10006230 <tud_task+0x18c>
1000622e:	e749      	b.n	100060c4 <tud_task+0x20>
10006230:	e000      	b.n	10006234 <tud_task+0x190>
10006232:	bf00      	nop
10006234:	e746      	b.n	100060c4 <tud_task+0x20>
10006236:	4b73      	ldr	r3, [pc, #460]	; (10006404 <tud_task+0x360>)
10006238:	781a      	ldrb	r2, [r3, #0]
1000623a:	07d2      	lsls	r2, r2, #31
1000623c:	d400      	bmi.n	10006240 <tud_task+0x19c>
1000623e:	e741      	b.n	100060c4 <tud_task+0x20>
10006240:	4a75      	ldr	r2, [pc, #468]	; (10006418 <tud_task+0x374>)
10006242:	2a00      	cmp	r2, #0
10006244:	d100      	bne.n	10006248 <tud_task+0x1a4>
10006246:	e73d      	b.n	100060c4 <tud_task+0x20>
10006248:	7818      	ldrb	r0, [r3, #0]
1000624a:	0700      	lsls	r0, r0, #28
1000624c:	0fc0      	lsrs	r0, r0, #31
1000624e:	e000      	b.n	10006252 <tud_task+0x1ae>
10006250:	bf00      	nop
10006252:	e737      	b.n	100060c4 <tud_task+0x20>
10006254:	4d6d      	ldr	r5, [pc, #436]	; (1000640c <tud_task+0x368>)
10006256:	4a6c      	ldr	r2, [pc, #432]	; (10006408 <tud_task+0x364>)
10006258:	782b      	ldrb	r3, [r5, #0]
1000625a:	2a00      	cmp	r2, #0
1000625c:	d100      	bne.n	10006260 <tud_task+0x1bc>
1000625e:	e0b7      	b.n	100063d0 <tud_task+0x32c>
10006260:	2700      	movs	r7, #0
10006262:	496b      	ldr	r1, [pc, #428]	; (10006410 <tud_task+0x36c>)
10006264:	001a      	movs	r2, r3
10006266:	4688      	mov	r8, r1
10006268:	429f      	cmp	r7, r3
1000626a:	d214      	bcs.n	10006296 <tud_task+0x1f2>
1000626c:	4641      	mov	r1, r8
1000626e:	6809      	ldr	r1, [r1, #0]
10006270:	007b      	lsls	r3, r7, #1
10006272:	468c      	mov	ip, r1
10006274:	19db      	adds	r3, r3, r7
10006276:	00db      	lsls	r3, r3, #3
10006278:	4463      	add	r3, ip
1000627a:	695b      	ldr	r3, [r3, #20]
1000627c:	2b00      	cmp	r3, #0
1000627e:	d00d      	beq.n	1000629c <tud_task+0x1f8>
10006280:	7820      	ldrb	r0, [r4, #0]
10006282:	4798      	blx	r3
10006284:	3701      	adds	r7, #1
10006286:	782a      	ldrb	r2, [r5, #0]
10006288:	b2ff      	uxtb	r7, r7
1000628a:	4297      	cmp	r7, r2
1000628c:	d900      	bls.n	10006290 <tud_task+0x1ec>
1000628e:	e719      	b.n	100060c4 <tud_task+0x20>
10006290:	0013      	movs	r3, r2
10006292:	429f      	cmp	r7, r3
10006294:	d3ea      	bcc.n	1000626c <tud_task+0x1c8>
10006296:	429f      	cmp	r7, r3
10006298:	d000      	beq.n	1000629c <tud_task+0x1f8>
1000629a:	e09c      	b.n	100063d6 <tud_task+0x332>
1000629c:	3701      	adds	r7, #1
1000629e:	b2ff      	uxtb	r7, r7
100062a0:	4297      	cmp	r7, r2
100062a2:	d900      	bls.n	100062a6 <tud_task+0x202>
100062a4:	e70e      	b.n	100060c4 <tud_task+0x20>
100062a6:	0013      	movs	r3, r2
100062a8:	e7f3      	b.n	10006292 <tud_task+0x1ee>
100062aa:	7823      	ldrb	r3, [r4, #0]
100062ac:	4d57      	ldr	r5, [pc, #348]	; (1000640c <tud_task+0x368>)
100062ae:	4a56      	ldr	r2, [pc, #344]	; (10006408 <tud_task+0x364>)
100062b0:	4698      	mov	r8, r3
100062b2:	2700      	movs	r7, #0
100062b4:	782b      	ldrb	r3, [r5, #0]
100062b6:	2a00      	cmp	r2, #0
100062b8:	d100      	bne.n	100062bc <tud_task+0x218>
100062ba:	e0b3      	b.n	10006424 <tud_task+0x380>
100062bc:	4a57      	ldr	r2, [pc, #348]	; (1000641c <tud_task+0x378>)
100062be:	4692      	mov	sl, r2
100062c0:	4a53      	ldr	r2, [pc, #332]	; (10006410 <tud_task+0x36c>)
100062c2:	4691      	mov	r9, r2
100062c4:	002a      	movs	r2, r5
100062c6:	4645      	mov	r5, r8
100062c8:	4690      	mov	r8, r2
100062ca:	e00f      	b.n	100062ec <tud_task+0x248>
100062cc:	464a      	mov	r2, r9
100062ce:	6812      	ldr	r2, [r2, #0]
100062d0:	007b      	lsls	r3, r7, #1
100062d2:	4694      	mov	ip, r2
100062d4:	19db      	adds	r3, r3, r7
100062d6:	00db      	lsls	r3, r3, #3
100062d8:	4463      	add	r3, ip
100062da:	685b      	ldr	r3, [r3, #4]
100062dc:	0028      	movs	r0, r5
100062de:	4798      	blx	r3
100062e0:	4643      	mov	r3, r8
100062e2:	3701      	adds	r7, #1
100062e4:	781b      	ldrb	r3, [r3, #0]
100062e6:	b2ff      	uxtb	r7, r7
100062e8:	42bb      	cmp	r3, r7
100062ea:	d30b      	bcc.n	10006304 <tud_task+0x260>
100062ec:	429f      	cmp	r7, r3
100062ee:	d3ed      	bcc.n	100062cc <tud_task+0x228>
100062f0:	d16b      	bne.n	100063ca <tud_task+0x326>
100062f2:	4653      	mov	r3, sl
100062f4:	0028      	movs	r0, r5
100062f6:	4798      	blx	r3
100062f8:	4643      	mov	r3, r8
100062fa:	3701      	adds	r7, #1
100062fc:	781b      	ldrb	r3, [r3, #0]
100062fe:	b2ff      	uxtb	r7, r7
10006300:	42bb      	cmp	r3, r7
10006302:	d2f3      	bcs.n	100062ec <tud_task+0x248>
10006304:	4d3f      	ldr	r5, [pc, #252]	; (10006404 <tud_task+0x360>)
10006306:	2253      	movs	r2, #83	; 0x53
10006308:	2100      	movs	r1, #0
1000630a:	0028      	movs	r0, r5
1000630c:	f7fe fdde 	bl	10004ecc <__wrap_memset>
10006310:	2210      	movs	r2, #16
10006312:	21ff      	movs	r1, #255	; 0xff
10006314:	1ce8      	adds	r0, r5, #3
10006316:	f7fe fdd9 	bl	10004ecc <__wrap_memset>
1000631a:	0028      	movs	r0, r5
1000631c:	2220      	movs	r2, #32
1000631e:	21ff      	movs	r1, #255	; 0xff
10006320:	3013      	adds	r0, #19
10006322:	f7fe fdd3 	bl	10004ecc <__wrap_memset>
10006326:	f000 fdc7 	bl	10006eb8 <usbd_control_reset>
1000632a:	4b3d      	ldr	r3, [pc, #244]	; (10006420 <tud_task+0x37c>)
1000632c:	2b00      	cmp	r3, #0
1000632e:	d100      	bne.n	10006332 <tud_task+0x28e>
10006330:	e6c8      	b.n	100060c4 <tud_task+0x20>
10006332:	e000      	b.n	10006336 <tud_task+0x292>
10006334:	bf00      	nop
10006336:	e6c5      	b.n	100060c4 <tud_task+0x20>
10006338:	7823      	ldrb	r3, [r4, #0]
1000633a:	4d34      	ldr	r5, [pc, #208]	; (1000640c <tud_task+0x368>)
1000633c:	4a32      	ldr	r2, [pc, #200]	; (10006408 <tud_task+0x364>)
1000633e:	4698      	mov	r8, r3
10006340:	2700      	movs	r7, #0
10006342:	782b      	ldrb	r3, [r5, #0]
10006344:	2a00      	cmp	r2, #0
10006346:	d050      	beq.n	100063ea <tud_task+0x346>
10006348:	4a34      	ldr	r2, [pc, #208]	; (1000641c <tud_task+0x378>)
1000634a:	4692      	mov	sl, r2
1000634c:	4a30      	ldr	r2, [pc, #192]	; (10006410 <tud_task+0x36c>)
1000634e:	4691      	mov	r9, r2
10006350:	002a      	movs	r2, r5
10006352:	4645      	mov	r5, r8
10006354:	4690      	mov	r8, r2
10006356:	e00f      	b.n	10006378 <tud_task+0x2d4>
10006358:	464a      	mov	r2, r9
1000635a:	6812      	ldr	r2, [r2, #0]
1000635c:	007b      	lsls	r3, r7, #1
1000635e:	4694      	mov	ip, r2
10006360:	19db      	adds	r3, r3, r7
10006362:	00db      	lsls	r3, r3, #3
10006364:	4463      	add	r3, ip
10006366:	685b      	ldr	r3, [r3, #4]
10006368:	0028      	movs	r0, r5
1000636a:	4798      	blx	r3
1000636c:	4643      	mov	r3, r8
1000636e:	3701      	adds	r7, #1
10006370:	781b      	ldrb	r3, [r3, #0]
10006372:	b2ff      	uxtb	r7, r7
10006374:	42bb      	cmp	r3, r7
10006376:	d30b      	bcc.n	10006390 <tud_task+0x2ec>
10006378:	429f      	cmp	r7, r3
1000637a:	d3ed      	bcc.n	10006358 <tud_task+0x2b4>
1000637c:	d125      	bne.n	100063ca <tud_task+0x326>
1000637e:	4653      	mov	r3, sl
10006380:	0028      	movs	r0, r5
10006382:	4798      	blx	r3
10006384:	4643      	mov	r3, r8
10006386:	3701      	adds	r7, #1
10006388:	781b      	ldrb	r3, [r3, #0]
1000638a:	b2ff      	uxtb	r7, r7
1000638c:	42bb      	cmp	r3, r7
1000638e:	d2f3      	bcs.n	10006378 <tud_task+0x2d4>
10006390:	4d1c      	ldr	r5, [pc, #112]	; (10006404 <tud_task+0x360>)
10006392:	2253      	movs	r2, #83	; 0x53
10006394:	2100      	movs	r1, #0
10006396:	0028      	movs	r0, r5
10006398:	f7fe fd98 	bl	10004ecc <__wrap_memset>
1000639c:	2210      	movs	r2, #16
1000639e:	21ff      	movs	r1, #255	; 0xff
100063a0:	1ce8      	adds	r0, r5, #3
100063a2:	f7fe fd93 	bl	10004ecc <__wrap_memset>
100063a6:	0028      	movs	r0, r5
100063a8:	2220      	movs	r2, #32
100063aa:	21ff      	movs	r1, #255	; 0xff
100063ac:	3013      	adds	r0, #19
100063ae:	f7fe fd8d 	bl	10004ecc <__wrap_memset>
100063b2:	f000 fd81 	bl	10006eb8 <usbd_control_reset>
100063b6:	7923      	ldrb	r3, [r4, #4]
100063b8:	70ab      	strb	r3, [r5, #2]
100063ba:	e683      	b.n	100060c4 <tud_task+0x20>
100063bc:	9801      	ldr	r0, [sp, #4]
100063be:	f000 ff45 	bl	1000724c <cdcd_reset>
100063c2:	782b      	ldrb	r3, [r5, #0]
100063c4:	2b00      	cmp	r3, #0
100063c6:	d100      	bne.n	100063ca <tud_task+0x326>
100063c8:	e292      	b.n	100068f0 <tud_task+0x84c>
100063ca:	2300      	movs	r3, #0
100063cc:	685b      	ldr	r3, [r3, #4]
100063ce:	deff      	udf	#255	; 0xff
100063d0:	2b00      	cmp	r3, #0
100063d2:	d100      	bne.n	100063d6 <tud_task+0x332>
100063d4:	e676      	b.n	100060c4 <tud_task+0x20>
100063d6:	2300      	movs	r3, #0
100063d8:	695b      	ldr	r3, [r3, #20]
100063da:	deff      	udf	#255	; 0xff
100063dc:	b00b      	add	sp, #44	; 0x2c
100063de:	bc3c      	pop	{r2, r3, r4, r5}
100063e0:	4690      	mov	r8, r2
100063e2:	4699      	mov	r9, r3
100063e4:	46a2      	mov	sl, r4
100063e6:	46ab      	mov	fp, r5
100063e8:	bdf0      	pop	{r4, r5, r6, r7, pc}
100063ea:	4640      	mov	r0, r8
100063ec:	f000 ff2e 	bl	1000724c <cdcd_reset>
100063f0:	782b      	ldrb	r3, [r5, #0]
100063f2:	2b00      	cmp	r3, #0
100063f4:	d0cc      	beq.n	10006390 <tud_task+0x2ec>
100063f6:	2300      	movs	r3, #0
100063f8:	685b      	ldr	r3, [r3, #4]
100063fa:	deff      	udf	#255	; 0xff
100063fc:	10008d98 	.word	0x10008d98
10006400:	20000c58 	.word	0x20000c58
10006404:	20000c00 	.word	0x20000c00
10006408:	100052b5 	.word	0x100052b5
1000640c:	200016a9 	.word	0x200016a9
10006410:	200008c8 	.word	0x200008c8
	...
1000641c:	1000724d 	.word	0x1000724d
10006420:	00000000 	.word	0x00000000
10006424:	4640      	mov	r0, r8
10006426:	f000 ff11 	bl	1000724c <cdcd_reset>
1000642a:	782b      	ldrb	r3, [r5, #0]
1000642c:	2b00      	cmp	r3, #0
1000642e:	d100      	bne.n	10006432 <tud_task+0x38e>
10006430:	e768      	b.n	10006304 <tud_task+0x260>
10006432:	2300      	movs	r3, #0
10006434:	685b      	ldr	r3, [r3, #4]
10006436:	deff      	udf	#255	; 0xff
10006438:	48c9      	ldr	r0, [pc, #804]	; (10006760 <tud_task+0x6bc>)
1000643a:	2800      	cmp	r0, #0
1000643c:	d009      	beq.n	10006452 <tud_task+0x3ae>
1000643e:	f000 fd45 	bl	10006ecc <usbd_control_set_complete_callback>
10006442:	aa08      	add	r2, sp, #32
10006444:	2100      	movs	r1, #0
10006446:	9801      	ldr	r0, [sp, #4]
10006448:	e000      	b.n	1000644c <tud_task+0x3a8>
1000644a:	bf00      	nop
1000644c:	2800      	cmp	r0, #0
1000644e:	d000      	beq.n	10006452 <tud_task+0x3ae>
10006450:	e638      	b.n	100060c4 <tud_task+0x20>
10006452:	7820      	ldrb	r0, [r4, #0]
10006454:	2100      	movs	r1, #0
10006456:	f7ff fb73 	bl	10005b40 <dcd_edpt_stall>
1000645a:	7820      	ldrb	r0, [r4, #0]
1000645c:	2180      	movs	r1, #128	; 0x80
1000645e:	f7ff fb6f 	bl	10005b40 <dcd_edpt_stall>
10006462:	e62f      	b.n	100060c4 <tud_task+0x20>
10006464:	1a9b      	subs	r3, r3, r2
10006466:	b2db      	uxtb	r3, r3
10006468:	2b00      	cmp	r3, #0
1000646a:	d1b7      	bne.n	100063dc <tud_task+0x338>
1000646c:	4dbd      	ldr	r5, [pc, #756]	; (10006764 <tud_task+0x6c0>)
1000646e:	e679      	b.n	10006164 <tud_task+0xc0>
10006470:	7962      	ldrb	r2, [r4, #5]
10006472:	7820      	ldrb	r0, [r4, #0]
10006474:	68a3      	ldr	r3, [r4, #8]
10006476:	f000 fd3d 	bl	10006ef4 <usbd_control_xfer_cb>
1000647a:	e623      	b.n	100060c4 <tud_task+0x20>
1000647c:	2b20      	cmp	r3, #32
1000647e:	d100      	bne.n	10006482 <tud_task+0x3de>
10006480:	e128      	b.n	100066d4 <tud_task+0x630>
10006482:	2b00      	cmp	r3, #0
10006484:	d1e5      	bne.n	10006452 <tud_task+0x3ae>
10006486:	7963      	ldrb	r3, [r4, #5]
10006488:	2b09      	cmp	r3, #9
1000648a:	d8e2      	bhi.n	10006452 <tud_task+0x3ae>
1000648c:	4ab6      	ldr	r2, [pc, #728]	; (10006768 <tud_task+0x6c4>)
1000648e:	009b      	lsls	r3, r3, #2
10006490:	58d3      	ldr	r3, [r2, r3]
10006492:	469f      	mov	pc, r3
10006494:	7a23      	ldrb	r3, [r4, #8]
10006496:	2b0f      	cmp	r3, #15
10006498:	d8db      	bhi.n	10006452 <tud_task+0x3ae>
1000649a:	4ab4      	ldr	r2, [pc, #720]	; (1000676c <tud_task+0x6c8>)
1000649c:	18fb      	adds	r3, r7, r3
1000649e:	78db      	ldrb	r3, [r3, #3]
100064a0:	2a00      	cmp	r2, #0
100064a2:	d02b      	beq.n	100064fc <tud_task+0x458>
100064a4:	4ab2      	ldr	r2, [pc, #712]	; (10006770 <tud_task+0x6cc>)
100064a6:	7812      	ldrb	r2, [r2, #0]
100064a8:	4293      	cmp	r3, r2
100064aa:	d225      	bcs.n	100064f8 <tud_task+0x454>
100064ac:	4ab1      	ldr	r2, [pc, #708]	; (10006774 <tud_task+0x6d0>)
100064ae:	005d      	lsls	r5, r3, #1
100064b0:	18eb      	adds	r3, r5, r3
100064b2:	6815      	ldr	r5, [r2, #0]
100064b4:	00db      	lsls	r3, r3, #3
100064b6:	18ed      	adds	r5, r5, r3
100064b8:	2d00      	cmp	r5, #0
100064ba:	d0ca      	beq.n	10006452 <tud_task+0x3ae>
100064bc:	68e8      	ldr	r0, [r5, #12]
100064be:	f000 fd05 	bl	10006ecc <usbd_control_set_complete_callback>
100064c2:	68eb      	ldr	r3, [r5, #12]
100064c4:	aa08      	add	r2, sp, #32
100064c6:	2100      	movs	r1, #0
100064c8:	9801      	ldr	r0, [sp, #4]
100064ca:	4798      	blx	r3
100064cc:	2800      	cmp	r0, #0
100064ce:	d000      	beq.n	100064d2 <tud_task+0x42e>
100064d0:	e5f8      	b.n	100060c4 <tud_task+0x20>
100064d2:	2560      	movs	r5, #96	; 0x60
100064d4:	7923      	ldrb	r3, [r4, #4]
100064d6:	401d      	ands	r5, r3
100064d8:	d1bb      	bne.n	10006452 <tud_task+0x3ae>
100064da:	7963      	ldrb	r3, [r4, #5]
100064dc:	3b0a      	subs	r3, #10
100064de:	2b01      	cmp	r3, #1
100064e0:	d8b7      	bhi.n	10006452 <tud_task+0x3ae>
100064e2:	f000 fcf3 	bl	10006ecc <usbd_control_set_complete_callback>
100064e6:	7963      	ldrb	r3, [r4, #5]
100064e8:	2b0a      	cmp	r3, #10
100064ea:	d100      	bne.n	100064ee <tud_task+0x44a>
100064ec:	e150      	b.n	10006790 <tud_task+0x6ec>
100064ee:	a908      	add	r1, sp, #32
100064f0:	9801      	ldr	r0, [sp, #4]
100064f2:	f000 fc6f 	bl	10006dd4 <tud_control_status>
100064f6:	e5e5      	b.n	100060c4 <tud_task+0x20>
100064f8:	1a9b      	subs	r3, r3, r2
100064fa:	b2db      	uxtb	r3, r3
100064fc:	2b00      	cmp	r3, #0
100064fe:	d1a8      	bne.n	10006452 <tud_task+0x3ae>
10006500:	489d      	ldr	r0, [pc, #628]	; (10006778 <tud_task+0x6d4>)
10006502:	4d9e      	ldr	r5, [pc, #632]	; (1000677c <tud_task+0x6d8>)
10006504:	e7db      	b.n	100064be <tud_task+0x41a>
10006506:	1b40      	subs	r0, r0, r5
10006508:	b2c0      	uxtb	r0, r0
1000650a:	2800      	cmp	r0, #0
1000650c:	d100      	bne.n	10006510 <tud_task+0x46c>
1000650e:	e0f8      	b.n	10006702 <tud_task+0x65e>
10006510:	2500      	movs	r5, #0
10006512:	2b00      	cmp	r3, #0
10006514:	d19d      	bne.n	10006452 <tud_task+0x3ae>
10006516:	7963      	ldrb	r3, [r4, #5]
10006518:	4699      	mov	r9, r3
1000651a:	2b01      	cmp	r3, #1
1000651c:	d004      	beq.n	10006528 <tud_task+0x484>
1000651e:	2b00      	cmp	r3, #0
10006520:	d100      	bne.n	10006524 <tud_task+0x480>
10006522:	e0fa      	b.n	1000671a <tud_task+0x676>
10006524:	2b03      	cmp	r3, #3
10006526:	d194      	bne.n	10006452 <tud_task+0x3ae>
10006528:	88e3      	ldrh	r3, [r4, #6]
1000652a:	2b00      	cmp	r3, #0
1000652c:	d11b      	bne.n	10006566 <tud_task+0x4c2>
1000652e:	464b      	mov	r3, r9
10006530:	18ba      	adds	r2, r7, r2
10006532:	2b01      	cmp	r3, #1
10006534:	d100      	bne.n	10006538 <tud_task+0x494>
10006536:	e0fa      	b.n	1000672e <tud_task+0x68a>
10006538:	0013      	movs	r3, r2
1000653a:	2230      	movs	r2, #48	; 0x30
1000653c:	4690      	mov	r8, r2
1000653e:	4463      	add	r3, ip
10006540:	4498      	add	r8, r3
10006542:	4643      	mov	r3, r8
10006544:	78db      	ldrb	r3, [r3, #3]
10006546:	079b      	lsls	r3, r3, #30
10006548:	d40d      	bmi.n	10006566 <tud_task+0x4c2>
1000654a:	9801      	ldr	r0, [sp, #4]
1000654c:	f7ff faf8 	bl	10005b40 <dcd_edpt_stall>
10006550:	4643      	mov	r3, r8
10006552:	2202      	movs	r2, #2
10006554:	78db      	ldrb	r3, [r3, #3]
10006556:	4313      	orrs	r3, r2
10006558:	4642      	mov	r2, r8
1000655a:	70d3      	strb	r3, [r2, #3]
1000655c:	78d3      	ldrb	r3, [r2, #3]
1000655e:	2201      	movs	r2, #1
10006560:	4313      	orrs	r3, r2
10006562:	4642      	mov	r2, r8
10006564:	70d3      	strb	r3, [r2, #3]
10006566:	2d00      	cmp	r5, #0
10006568:	d100      	bne.n	1000656c <tud_task+0x4c8>
1000656a:	e5ab      	b.n	100060c4 <tud_task+0x20>
1000656c:	68e8      	ldr	r0, [r5, #12]
1000656e:	f000 fcad 	bl	10006ecc <usbd_control_set_complete_callback>
10006572:	68eb      	ldr	r3, [r5, #12]
10006574:	aa08      	add	r2, sp, #32
10006576:	2100      	movs	r1, #0
10006578:	9801      	ldr	r0, [sp, #4]
1000657a:	4798      	blx	r3
1000657c:	2000      	movs	r0, #0
1000657e:	f000 fca5 	bl	10006ecc <usbd_control_set_complete_callback>
10006582:	2334      	movs	r3, #52	; 0x34
10006584:	5cfb      	ldrb	r3, [r7, r3]
10006586:	07db      	lsls	r3, r3, #31
10006588:	d500      	bpl.n	1000658c <tud_task+0x4e8>
1000658a:	e59b      	b.n	100060c4 <tud_task+0x20>
1000658c:	e7af      	b.n	100064ee <tud_task+0x44a>
1000658e:	79a3      	ldrb	r3, [r4, #6]
10006590:	9303      	str	r3, [sp, #12]
10006592:	001a      	movs	r2, r3
10006594:	787b      	ldrb	r3, [r7, #1]
10006596:	429a      	cmp	r2, r3
10006598:	d007      	beq.n	100065aa <tud_task+0x506>
1000659a:	787b      	ldrb	r3, [r7, #1]
1000659c:	2b00      	cmp	r3, #0
1000659e:	d000      	beq.n	100065a2 <tud_task+0x4fe>
100065a0:	e17e      	b.n	100068a0 <tud_task+0x7fc>
100065a2:	9b03      	ldr	r3, [sp, #12]
100065a4:	2b00      	cmp	r3, #0
100065a6:	d000      	beq.n	100065aa <tud_task+0x506>
100065a8:	e0fb      	b.n	100067a2 <tud_task+0x6fe>
100065aa:	9b03      	ldr	r3, [sp, #12]
100065ac:	a908      	add	r1, sp, #32
100065ae:	9801      	ldr	r0, [sp, #4]
100065b0:	707b      	strb	r3, [r7, #1]
100065b2:	f000 fc0f 	bl	10006dd4 <tud_control_status>
100065b6:	e585      	b.n	100060c4 <tud_task+0x20>
100065b8:	787b      	ldrb	r3, [r7, #1]
100065ba:	aa06      	add	r2, sp, #24
100065bc:	3202      	adds	r2, #2
100065be:	7013      	strb	r3, [r2, #0]
100065c0:	a908      	add	r1, sp, #32
100065c2:	2301      	movs	r3, #1
100065c4:	9801      	ldr	r0, [sp, #4]
100065c6:	f000 fc1d 	bl	10006e04 <tud_control_xfer>
100065ca:	e57b      	b.n	100060c4 <tud_task+0x20>
100065cc:	88e0      	ldrh	r0, [r4, #6]
100065ce:	0a03      	lsrs	r3, r0, #8
100065d0:	b2c0      	uxtb	r0, r0
100065d2:	2b0f      	cmp	r3, #15
100065d4:	d900      	bls.n	100065d8 <tud_task+0x534>
100065d6:	e73c      	b.n	10006452 <tud_task+0x3ae>
100065d8:	4969      	ldr	r1, [pc, #420]	; (10006780 <tud_task+0x6dc>)
100065da:	009a      	lsls	r2, r3, #2
100065dc:	588a      	ldr	r2, [r1, r2]
100065de:	4697      	mov	pc, r2
100065e0:	a808      	add	r0, sp, #32
100065e2:	f000 fc79 	bl	10006ed8 <usbd_control_set_request>
100065e6:	79a1      	ldrb	r1, [r4, #6]
100065e8:	9801      	ldr	r0, [sp, #4]
100065ea:	f7ff f8ff 	bl	100057ec <dcd_set_address>
100065ee:	2202      	movs	r2, #2
100065f0:	783b      	ldrb	r3, [r7, #0]
100065f2:	4313      	orrs	r3, r2
100065f4:	703b      	strb	r3, [r7, #0]
100065f6:	e565      	b.n	100060c4 <tud_task+0x20>
100065f8:	88e3      	ldrh	r3, [r4, #6]
100065fa:	2b01      	cmp	r3, #1
100065fc:	d000      	beq.n	10006600 <tud_task+0x55c>
100065fe:	e728      	b.n	10006452 <tud_task+0x3ae>
10006600:	2208      	movs	r2, #8
10006602:	783b      	ldrb	r3, [r7, #0]
10006604:	a908      	add	r1, sp, #32
10006606:	4393      	bics	r3, r2
10006608:	9801      	ldr	r0, [sp, #4]
1000660a:	703b      	strb	r3, [r7, #0]
1000660c:	f000 fbe2 	bl	10006dd4 <tud_control_status>
10006610:	e558      	b.n	100060c4 <tud_task+0x20>
10006612:	2002      	movs	r0, #2
10006614:	7839      	ldrb	r1, [r7, #0]
10006616:	ab06      	add	r3, sp, #24
10006618:	1c9a      	adds	r2, r3, #2
1000661a:	068b      	lsls	r3, r1, #26
1000661c:	0889      	lsrs	r1, r1, #2
1000661e:	0fdb      	lsrs	r3, r3, #31
10006620:	4001      	ands	r1, r0
10006622:	430b      	orrs	r3, r1
10006624:	8013      	strh	r3, [r2, #0]
10006626:	a908      	add	r1, sp, #32
10006628:	2302      	movs	r3, #2
1000662a:	9801      	ldr	r0, [sp, #4]
1000662c:	f000 fbea 	bl	10006e04 <tud_control_xfer>
10006630:	e548      	b.n	100060c4 <tud_task+0x20>
10006632:	88e3      	ldrh	r3, [r4, #6]
10006634:	2b01      	cmp	r3, #1
10006636:	d000      	beq.n	1000663a <tud_task+0x596>
10006638:	e70b      	b.n	10006452 <tud_task+0x3ae>
1000663a:	2208      	movs	r2, #8
1000663c:	783b      	ldrb	r3, [r7, #0]
1000663e:	a908      	add	r1, sp, #32
10006640:	4313      	orrs	r3, r2
10006642:	9801      	ldr	r0, [sp, #4]
10006644:	703b      	strb	r3, [r7, #0]
10006646:	f000 fbc5 	bl	10006dd4 <tud_control_status>
1000664a:	e53b      	b.n	100060c4 <tud_task+0x20>
1000664c:	4b4d      	ldr	r3, [pc, #308]	; (10006784 <tud_task+0x6e0>)
1000664e:	2b00      	cmp	r3, #0
10006650:	d100      	bne.n	10006654 <tud_task+0x5b0>
10006652:	e6fe      	b.n	10006452 <tud_task+0x3ae>
10006654:	e000      	b.n	10006658 <tud_task+0x5b4>
10006656:	bf00      	nop
10006658:	78c3      	ldrb	r3, [r0, #3]
1000665a:	7881      	ldrb	r1, [r0, #2]
1000665c:	021b      	lsls	r3, r3, #8
1000665e:	0002      	movs	r2, r0
10006660:	430b      	orrs	r3, r1
10006662:	9801      	ldr	r0, [sp, #4]
10006664:	a908      	add	r1, sp, #32
10006666:	f000 fbcd 	bl	10006e04 <tud_control_xfer>
1000666a:	e6ef      	b.n	1000644c <tud_task+0x3a8>
1000666c:	4b46      	ldr	r3, [pc, #280]	; (10006788 <tud_task+0x6e4>)
1000666e:	2b00      	cmp	r3, #0
10006670:	d100      	bne.n	10006674 <tud_task+0x5d0>
10006672:	e6ee      	b.n	10006452 <tud_task+0x3ae>
10006674:	e000      	b.n	10006678 <tud_task+0x5d4>
10006676:	bf00      	nop
10006678:	1e02      	subs	r2, r0, #0
1000667a:	d100      	bne.n	1000667e <tud_task+0x5da>
1000667c:	e6e9      	b.n	10006452 <tud_task+0x3ae>
1000667e:	7813      	ldrb	r3, [r2, #0]
10006680:	a908      	add	r1, sp, #32
10006682:	9801      	ldr	r0, [sp, #4]
10006684:	f000 fbbe 	bl	10006e04 <tud_control_xfer>
10006688:	e6e0      	b.n	1000644c <tud_task+0x3a8>
1000668a:	8921      	ldrh	r1, [r4, #8]
1000668c:	f7fe ff62 	bl	10005554 <tud_descriptor_string_cb>
10006690:	1e02      	subs	r2, r0, #0
10006692:	d1f4      	bne.n	1000667e <tud_task+0x5da>
10006694:	e6dd      	b.n	10006452 <tud_task+0x3ae>
10006696:	2b02      	cmp	r3, #2
10006698:	d100      	bne.n	1000669c <tud_task+0x5f8>
1000669a:	e176      	b.n	1000698a <tud_task+0x8e6>
1000669c:	4b3b      	ldr	r3, [pc, #236]	; (1000678c <tud_task+0x6e8>)
1000669e:	2b00      	cmp	r3, #0
100066a0:	d100      	bne.n	100066a4 <tud_task+0x600>
100066a2:	e6d6      	b.n	10006452 <tud_task+0x3ae>
100066a4:	e000      	b.n	100066a8 <tud_task+0x604>
100066a6:	bf00      	nop
100066a8:	2800      	cmp	r0, #0
100066aa:	d100      	bne.n	100066ae <tud_task+0x60a>
100066ac:	e6d1      	b.n	10006452 <tud_task+0x3ae>
100066ae:	78c3      	ldrb	r3, [r0, #3]
100066b0:	7882      	ldrb	r2, [r0, #2]
100066b2:	021b      	lsls	r3, r3, #8
100066b4:	4313      	orrs	r3, r2
100066b6:	a908      	add	r1, sp, #32
100066b8:	0002      	movs	r2, r0
100066ba:	9801      	ldr	r0, [sp, #4]
100066bc:	f000 fba2 	bl	10006e04 <tud_control_xfer>
100066c0:	e6c4      	b.n	1000644c <tud_task+0x3a8>
100066c2:	f7fe ff3f 	bl	10005544 <tud_descriptor_device_cb>
100066c6:	2312      	movs	r3, #18
100066c8:	0002      	movs	r2, r0
100066ca:	a908      	add	r1, sp, #32
100066cc:	9801      	ldr	r0, [sp, #4]
100066ce:	f000 fb99 	bl	10006e04 <tud_control_xfer>
100066d2:	e6bb      	b.n	1000644c <tud_task+0x3a8>
100066d4:	7a23      	ldrb	r3, [r4, #8]
100066d6:	2b0f      	cmp	r3, #15
100066d8:	d900      	bls.n	100066dc <tud_task+0x638>
100066da:	e6ba      	b.n	10006452 <tud_task+0x3ae>
100066dc:	4a23      	ldr	r2, [pc, #140]	; (1000676c <tud_task+0x6c8>)
100066de:	18fb      	adds	r3, r7, r3
100066e0:	78db      	ldrb	r3, [r3, #3]
100066e2:	2a00      	cmp	r2, #0
100066e4:	d013      	beq.n	1000670e <tud_task+0x66a>
100066e6:	4a22      	ldr	r2, [pc, #136]	; (10006770 <tud_task+0x6cc>)
100066e8:	7812      	ldrb	r2, [r2, #0]
100066ea:	4293      	cmp	r3, r2
100066ec:	d20d      	bcs.n	1000670a <tud_task+0x666>
100066ee:	4a21      	ldr	r2, [pc, #132]	; (10006774 <tud_task+0x6d0>)
100066f0:	005d      	lsls	r5, r3, #1
100066f2:	18eb      	adds	r3, r5, r3
100066f4:	6815      	ldr	r5, [r2, #0]
100066f6:	00db      	lsls	r3, r3, #3
100066f8:	18ed      	adds	r5, r5, r3
100066fa:	2d00      	cmp	r5, #0
100066fc:	d100      	bne.n	10006700 <tud_task+0x65c>
100066fe:	e6a8      	b.n	10006452 <tud_task+0x3ae>
10006700:	e584      	b.n	1000620c <tud_task+0x168>
10006702:	2b00      	cmp	r3, #0
10006704:	d106      	bne.n	10006714 <tud_task+0x670>
10006706:	4d1d      	ldr	r5, [pc, #116]	; (1000677c <tud_task+0x6d8>)
10006708:	e705      	b.n	10006516 <tud_task+0x472>
1000670a:	1a9b      	subs	r3, r3, r2
1000670c:	b2db      	uxtb	r3, r3
1000670e:	2b00      	cmp	r3, #0
10006710:	d000      	beq.n	10006714 <tud_task+0x670>
10006712:	e69e      	b.n	10006452 <tud_task+0x3ae>
10006714:	4818      	ldr	r0, [pc, #96]	; (10006778 <tud_task+0x6d4>)
10006716:	4d19      	ldr	r5, [pc, #100]	; (1000677c <tud_task+0x6d8>)
10006718:	e579      	b.n	1000620e <tud_task+0x16a>
1000671a:	18ba      	adds	r2, r7, r2
1000671c:	0013      	movs	r3, r2
1000671e:	4463      	add	r3, ip
10006720:	3330      	adds	r3, #48	; 0x30
10006722:	78db      	ldrb	r3, [r3, #3]
10006724:	aa06      	add	r2, sp, #24
10006726:	079b      	lsls	r3, r3, #30
10006728:	0fdb      	lsrs	r3, r3, #31
1000672a:	3202      	adds	r2, #2
1000672c:	e77a      	b.n	10006624 <tud_task+0x580>
1000672e:	332f      	adds	r3, #47	; 0x2f
10006730:	4698      	mov	r8, r3
10006732:	4462      	add	r2, ip
10006734:	4490      	add	r8, r2
10006736:	4643      	mov	r3, r8
10006738:	78db      	ldrb	r3, [r3, #3]
1000673a:	079b      	lsls	r3, r3, #30
1000673c:	d400      	bmi.n	10006740 <tud_task+0x69c>
1000673e:	e712      	b.n	10006566 <tud_task+0x4c2>
10006740:	9801      	ldr	r0, [sp, #4]
10006742:	f7ff fa17 	bl	10005b74 <dcd_edpt_clear_stall>
10006746:	4643      	mov	r3, r8
10006748:	2202      	movs	r2, #2
1000674a:	78db      	ldrb	r3, [r3, #3]
1000674c:	4393      	bics	r3, r2
1000674e:	4642      	mov	r2, r8
10006750:	70d3      	strb	r3, [r2, #3]
10006752:	78d3      	ldrb	r3, [r2, #3]
10006754:	464a      	mov	r2, r9
10006756:	4393      	bics	r3, r2
10006758:	4642      	mov	r2, r8
1000675a:	70d3      	strb	r3, [r2, #3]
1000675c:	e703      	b.n	10006566 <tud_task+0x4c2>
1000675e:	46c0      	nop			; (mov r8, r8)
10006760:	00000000 	.word	0x00000000
10006764:	10007441 	.word	0x10007441
10006768:	10008dbc 	.word	0x10008dbc
1000676c:	100052b5 	.word	0x100052b5
10006770:	200016a9 	.word	0x200016a9
10006774:	200008c8 	.word	0x200008c8
10006778:	1000735d 	.word	0x1000735d
1000677c:	10008e24 	.word	0x10008e24
10006780:	10008de4 	.word	0x10008de4
	...
10006790:	ab06      	add	r3, sp, #24
10006792:	1c9a      	adds	r2, r3, #2
10006794:	a908      	add	r1, sp, #32
10006796:	2301      	movs	r3, #1
10006798:	9801      	ldr	r0, [sp, #4]
1000679a:	7015      	strb	r5, [r2, #0]
1000679c:	f000 fb32 	bl	10006e04 <tud_control_xfer>
100067a0:	e490      	b.n	100060c4 <tud_task+0x20>
100067a2:	1e58      	subs	r0, r3, #1
100067a4:	b2c0      	uxtb	r0, r0
100067a6:	f7fe fed1 	bl	1000554c <tud_descriptor_configuration_cb>
100067aa:	2800      	cmp	r0, #0
100067ac:	d100      	bne.n	100067b0 <tud_task+0x70c>
100067ae:	e650      	b.n	10006452 <tud_task+0x3ae>
100067b0:	7843      	ldrb	r3, [r0, #1]
100067b2:	2b02      	cmp	r3, #2
100067b4:	d000      	beq.n	100067b8 <tud_task+0x714>
100067b6:	e64c      	b.n	10006452 <tud_task+0x3ae>
100067b8:	2501      	movs	r5, #1
100067ba:	79c3      	ldrb	r3, [r0, #7]
100067bc:	115a      	asrs	r2, r3, #5
100067be:	402a      	ands	r2, r5
100067c0:	0112      	lsls	r2, r2, #4
100067c2:	4691      	mov	r9, r2
100067c4:	783a      	ldrb	r2, [r7, #0]
100067c6:	119b      	asrs	r3, r3, #6
100067c8:	4690      	mov	r8, r2
100067ca:	2210      	movs	r2, #16
100067cc:	4641      	mov	r1, r8
100067ce:	4391      	bics	r1, r2
100067d0:	000a      	movs	r2, r1
100067d2:	4649      	mov	r1, r9
100067d4:	430a      	orrs	r2, r1
100067d6:	2120      	movs	r1, #32
100067d8:	402b      	ands	r3, r5
100067da:	438a      	bics	r2, r1
100067dc:	015b      	lsls	r3, r3, #5
100067de:	4313      	orrs	r3, r2
100067e0:	703b      	strb	r3, [r7, #0]
100067e2:	2309      	movs	r3, #9
100067e4:	4699      	mov	r9, r3
100067e6:	78c3      	ldrb	r3, [r0, #3]
100067e8:	7882      	ldrb	r2, [r0, #2]
100067ea:	021b      	lsls	r3, r3, #8
100067ec:	4313      	orrs	r3, r2
100067ee:	18c3      	adds	r3, r0, r3
100067f0:	4481      	add	r9, r0
100067f2:	9304      	str	r3, [sp, #16]
100067f4:	4599      	cmp	r9, r3
100067f6:	d300      	bcc.n	100067fa <tud_task+0x756>
100067f8:	e0c0      	b.n	1000697c <tud_task+0x8d8>
100067fa:	464d      	mov	r5, r9
100067fc:	2201      	movs	r2, #1
100067fe:	786b      	ldrb	r3, [r5, #1]
10006800:	9202      	str	r2, [sp, #8]
10006802:	2b0b      	cmp	r3, #11
10006804:	d104      	bne.n	10006810 <tud_task+0x76c>
10006806:	78eb      	ldrb	r3, [r5, #3]
10006808:	9302      	str	r3, [sp, #8]
1000680a:	782b      	ldrb	r3, [r5, #0]
1000680c:	18ed      	adds	r5, r5, r3
1000680e:	786b      	ldrb	r3, [r5, #1]
10006810:	2b04      	cmp	r3, #4
10006812:	d000      	beq.n	10006816 <tud_task+0x772>
10006814:	e61d      	b.n	10006452 <tud_task+0x3ae>
10006816:	2200      	movs	r2, #0
10006818:	9b04      	ldr	r3, [sp, #16]
1000681a:	4690      	mov	r8, r2
1000681c:	1b5b      	subs	r3, r3, r5
1000681e:	b29b      	uxth	r3, r3
10006820:	469a      	mov	sl, r3
10006822:	4a67      	ldr	r2, [pc, #412]	; (100069c0 <tud_task+0x91c>)
10006824:	4b67      	ldr	r3, [pc, #412]	; (100069c4 <tud_task+0x920>)
10006826:	781b      	ldrb	r3, [r3, #0]
10006828:	2a00      	cmp	r2, #0
1000682a:	d025      	beq.n	10006878 <tud_task+0x7d4>
1000682c:	002a      	movs	r2, r5
1000682e:	4645      	mov	r5, r8
10006830:	4690      	mov	r8, r2
10006832:	429d      	cmp	r5, r3
10006834:	d21a      	bcs.n	1000686c <tud_task+0x7c8>
10006836:	4a64      	ldr	r2, [pc, #400]	; (100069c8 <tud_task+0x924>)
10006838:	006b      	lsls	r3, r5, #1
1000683a:	6812      	ldr	r2, [r2, #0]
1000683c:	195b      	adds	r3, r3, r5
1000683e:	4691      	mov	r9, r2
10006840:	00db      	lsls	r3, r3, #3
10006842:	4499      	add	r9, r3
10006844:	464b      	mov	r3, r9
10006846:	689b      	ldr	r3, [r3, #8]
10006848:	9205      	str	r2, [sp, #20]
1000684a:	4652      	mov	r2, sl
1000684c:	4641      	mov	r1, r8
1000684e:	9801      	ldr	r0, [sp, #4]
10006850:	4798      	blx	r3
10006852:	2808      	cmp	r0, #8
10006854:	d903      	bls.n	1000685e <tud_task+0x7ba>
10006856:	4653      	mov	r3, sl
10006858:	4283      	cmp	r3, r0
1000685a:	d300      	bcc.n	1000685e <tud_task+0x7ba>
1000685c:	e0a7      	b.n	100069ae <tud_task+0x90a>
1000685e:	4b59      	ldr	r3, [pc, #356]	; (100069c4 <tud_task+0x920>)
10006860:	3501      	adds	r5, #1
10006862:	781b      	ldrb	r3, [r3, #0]
10006864:	b2ed      	uxtb	r5, r5
10006866:	42ab      	cmp	r3, r5
10006868:	d2e3      	bcs.n	10006832 <tud_task+0x78e>
1000686a:	e5f2      	b.n	10006452 <tud_task+0x3ae>
1000686c:	429d      	cmp	r5, r3
1000686e:	d114      	bne.n	1000689a <tud_task+0x7f6>
10006870:	4a56      	ldr	r2, [pc, #344]	; (100069cc <tud_task+0x928>)
10006872:	4b57      	ldr	r3, [pc, #348]	; (100069d0 <tud_task+0x92c>)
10006874:	4691      	mov	r9, r2
10006876:	e7e8      	b.n	1000684a <tud_task+0x7a6>
10006878:	4652      	mov	r2, sl
1000687a:	0029      	movs	r1, r5
1000687c:	9801      	ldr	r0, [sp, #4]
1000687e:	f000 fcfb 	bl	10007278 <cdcd_open>
10006882:	46d0      	mov	r8, sl
10006884:	4682      	mov	sl, r0
10006886:	2808      	cmp	r0, #8
10006888:	d902      	bls.n	10006890 <tud_task+0x7ec>
1000688a:	4643      	mov	r3, r8
1000688c:	4283      	cmp	r3, r0
1000688e:	d242      	bcs.n	10006916 <tud_task+0x872>
10006890:	4b4c      	ldr	r3, [pc, #304]	; (100069c4 <tud_task+0x920>)
10006892:	781b      	ldrb	r3, [r3, #0]
10006894:	2b00      	cmp	r3, #0
10006896:	d100      	bne.n	1000689a <tud_task+0x7f6>
10006898:	e5db      	b.n	10006452 <tud_task+0x3ae>
1000689a:	2300      	movs	r3, #0
1000689c:	689b      	ldr	r3, [r3, #8]
1000689e:	deff      	udf	#255	; 0xff
100068a0:	9801      	ldr	r0, [sp, #4]
100068a2:	f7ff f8dd 	bl	10005a60 <dcd_edpt_close_all>
100068a6:	78bb      	ldrb	r3, [r7, #2]
100068a8:	4d46      	ldr	r5, [pc, #280]	; (100069c4 <tud_task+0x920>)
100068aa:	4a45      	ldr	r2, [pc, #276]	; (100069c0 <tud_task+0x91c>)
100068ac:	469a      	mov	sl, r3
100068ae:	2100      	movs	r1, #0
100068b0:	782b      	ldrb	r3, [r5, #0]
100068b2:	2a00      	cmp	r2, #0
100068b4:	d100      	bne.n	100068b8 <tud_task+0x814>
100068b6:	e581      	b.n	100063bc <tud_task+0x318>
100068b8:	4a43      	ldr	r2, [pc, #268]	; (100069c8 <tud_task+0x924>)
100068ba:	4690      	mov	r8, r2
100068bc:	002a      	movs	r2, r5
100068be:	000d      	movs	r5, r1
100068c0:	4691      	mov	r9, r2
100068c2:	e00f      	b.n	100068e4 <tud_task+0x840>
100068c4:	4642      	mov	r2, r8
100068c6:	6812      	ldr	r2, [r2, #0]
100068c8:	006b      	lsls	r3, r5, #1
100068ca:	4694      	mov	ip, r2
100068cc:	195b      	adds	r3, r3, r5
100068ce:	00db      	lsls	r3, r3, #3
100068d0:	4463      	add	r3, ip
100068d2:	685b      	ldr	r3, [r3, #4]
100068d4:	9801      	ldr	r0, [sp, #4]
100068d6:	4798      	blx	r3
100068d8:	464b      	mov	r3, r9
100068da:	3501      	adds	r5, #1
100068dc:	781b      	ldrb	r3, [r3, #0]
100068de:	b2ed      	uxtb	r5, r5
100068e0:	42ab      	cmp	r3, r5
100068e2:	d305      	bcc.n	100068f0 <tud_task+0x84c>
100068e4:	429d      	cmp	r5, r3
100068e6:	d3ed      	bcc.n	100068c4 <tud_task+0x820>
100068e8:	d000      	beq.n	100068ec <tud_task+0x848>
100068ea:	e56e      	b.n	100063ca <tud_task+0x326>
100068ec:	4b39      	ldr	r3, [pc, #228]	; (100069d4 <tud_task+0x930>)
100068ee:	e7f1      	b.n	100068d4 <tud_task+0x830>
100068f0:	2253      	movs	r2, #83	; 0x53
100068f2:	2100      	movs	r1, #0
100068f4:	0038      	movs	r0, r7
100068f6:	f7fe fae9 	bl	10004ecc <__wrap_memset>
100068fa:	2210      	movs	r2, #16
100068fc:	21ff      	movs	r1, #255	; 0xff
100068fe:	1cf8      	adds	r0, r7, #3
10006900:	f7fe fae4 	bl	10004ecc <__wrap_memset>
10006904:	0038      	movs	r0, r7
10006906:	2220      	movs	r2, #32
10006908:	3013      	adds	r0, #19
1000690a:	21ff      	movs	r1, #255	; 0xff
1000690c:	f7fe fade 	bl	10004ecc <__wrap_memset>
10006910:	4653      	mov	r3, sl
10006912:	70bb      	strb	r3, [r7, #2]
10006914:	e645      	b.n	100065a2 <tud_task+0x4fe>
10006916:	4b2d      	ldr	r3, [pc, #180]	; (100069cc <tud_task+0x928>)
10006918:	4699      	mov	r9, r3
1000691a:	4b29      	ldr	r3, [pc, #164]	; (100069c0 <tud_task+0x91c>)
1000691c:	4698      	mov	r8, r3
1000691e:	9b02      	ldr	r3, [sp, #8]
10006920:	2b01      	cmp	r3, #1
10006922:	d035      	beq.n	10006990 <tud_task+0x8ec>
10006924:	9b02      	ldr	r3, [sp, #8]
10006926:	2b00      	cmp	r3, #0
10006928:	d017      	beq.n	1000695a <tud_task+0x8b6>
1000692a:	78a9      	ldrb	r1, [r5, #2]
1000692c:	187a      	adds	r2, r7, r1
1000692e:	78d2      	ldrb	r2, [r2, #3]
10006930:	000b      	movs	r3, r1
10006932:	2aff      	cmp	r2, #255	; 0xff
10006934:	d000      	beq.n	10006938 <tud_task+0x894>
10006936:	e58c      	b.n	10006452 <tud_task+0x3ae>
10006938:	2200      	movs	r2, #0
1000693a:	e006      	b.n	1000694a <tud_task+0x8a6>
1000693c:	188b      	adds	r3, r1, r2
1000693e:	b2db      	uxtb	r3, r3
10006940:	18f8      	adds	r0, r7, r3
10006942:	78c0      	ldrb	r0, [r0, #3]
10006944:	28ff      	cmp	r0, #255	; 0xff
10006946:	d000      	beq.n	1000694a <tud_task+0x8a6>
10006948:	e583      	b.n	10006452 <tud_task+0x3ae>
1000694a:	4640      	mov	r0, r8
1000694c:	18fb      	adds	r3, r7, r3
1000694e:	70d8      	strb	r0, [r3, #3]
10006950:	3201      	adds	r2, #1
10006952:	9b02      	ldr	r3, [sp, #8]
10006954:	b2d2      	uxtb	r2, r2
10006956:	429a      	cmp	r2, r3
10006958:	d3f0      	bcc.n	1000693c <tud_task+0x898>
1000695a:	0038      	movs	r0, r7
1000695c:	4643      	mov	r3, r8
1000695e:	0029      	movs	r1, r5
10006960:	3013      	adds	r0, #19
10006962:	4652      	mov	r2, sl
10006964:	f000 fe7e 	bl	10007664 <tu_edpt_bind_driver>
10006968:	4b16      	ldr	r3, [pc, #88]	; (100069c4 <tud_task+0x920>)
1000696a:	4455      	add	r5, sl
1000696c:	781b      	ldrb	r3, [r3, #0]
1000696e:	4543      	cmp	r3, r8
10006970:	d200      	bcs.n	10006974 <tud_task+0x8d0>
10006972:	e56e      	b.n	10006452 <tud_task+0x3ae>
10006974:	9b04      	ldr	r3, [sp, #16]
10006976:	42ab      	cmp	r3, r5
10006978:	d900      	bls.n	1000697c <tud_task+0x8d8>
1000697a:	e73f      	b.n	100067fc <tud_task+0x758>
1000697c:	4b16      	ldr	r3, [pc, #88]	; (100069d8 <tud_task+0x934>)
1000697e:	2b00      	cmp	r3, #0
10006980:	d100      	bne.n	10006984 <tud_task+0x8e0>
10006982:	e612      	b.n	100065aa <tud_task+0x506>
10006984:	e000      	b.n	10006988 <tud_task+0x8e4>
10006986:	bf00      	nop
10006988:	e60f      	b.n	100065aa <tud_task+0x506>
1000698a:	f7fe fddf 	bl	1000554c <tud_descriptor_configuration_cb>
1000698e:	e68b      	b.n	100066a8 <tud_task+0x604>
10006990:	4648      	mov	r0, r9
10006992:	6880      	ldr	r0, [r0, #8]
10006994:	78a9      	ldrb	r1, [r5, #2]
10006996:	4684      	mov	ip, r0
10006998:	480d      	ldr	r0, [pc, #52]	; (100069d0 <tud_task+0x92c>)
1000699a:	187b      	adds	r3, r7, r1
1000699c:	78da      	ldrb	r2, [r3, #3]
1000699e:	4584      	cmp	ip, r0
100069a0:	d00a      	beq.n	100069b8 <tud_task+0x914>
100069a2:	2aff      	cmp	r2, #255	; 0xff
100069a4:	d000      	beq.n	100069a8 <tud_task+0x904>
100069a6:	e554      	b.n	10006452 <tud_task+0x3ae>
100069a8:	4642      	mov	r2, r8
100069aa:	70da      	strb	r2, [r3, #3]
100069ac:	e7d5      	b.n	1000695a <tud_task+0x8b6>
100069ae:	4643      	mov	r3, r8
100069b0:	4682      	mov	sl, r0
100069b2:	46a8      	mov	r8, r5
100069b4:	001d      	movs	r5, r3
100069b6:	e7b2      	b.n	1000691e <tud_task+0x87a>
100069b8:	2302      	movs	r3, #2
100069ba:	9302      	str	r3, [sp, #8]
100069bc:	e7b6      	b.n	1000692c <tud_task+0x888>
100069be:	46c0      	nop			; (mov r8, r8)
100069c0:	100052b5 	.word	0x100052b5
100069c4:	200016a9 	.word	0x200016a9
100069c8:	200008c8 	.word	0x200008c8
100069cc:	10008e24 	.word	0x10008e24
100069d0:	10007279 	.word	0x10007279
100069d4:	1000724d 	.word	0x1000724d
100069d8:	00000000 	.word	0x00000000

100069dc <dcd_event_bus_signal>:
100069dc:	b570      	push	{r4, r5, r6, lr}
100069de:	b086      	sub	sp, #24
100069e0:	466b      	mov	r3, sp
100069e2:	0005      	movs	r5, r0
100069e4:	000c      	movs	r4, r1
100069e6:	1c98      	adds	r0, r3, #2
100069e8:	220a      	movs	r2, #10
100069ea:	2100      	movs	r1, #0
100069ec:	f7fe fa6e 	bl	10004ecc <__wrap_memset>
100069f0:	466b      	mov	r3, sp
100069f2:	701d      	strb	r5, [r3, #0]
100069f4:	705c      	strb	r4, [r3, #1]
100069f6:	2c03      	cmp	r4, #3
100069f8:	d04f      	beq.n	10006a9a <dcd_event_bus_signal+0xbe>
100069fa:	d91b      	bls.n	10006a34 <dcd_event_bus_signal+0x58>
100069fc:	2c04      	cmp	r4, #4
100069fe:	d007      	beq.n	10006a10 <dcd_event_bus_signal+0x34>
10006a00:	2c05      	cmp	r4, #5
10006a02:	d140      	bne.n	10006a86 <dcd_event_bus_signal+0xaa>
10006a04:	4b3c      	ldr	r3, [pc, #240]	; (10006af8 <dcd_event_bus_signal+0x11c>)
10006a06:	781a      	ldrb	r2, [r3, #0]
10006a08:	07d2      	lsls	r2, r2, #31
10006a0a:	d466      	bmi.n	10006ada <dcd_event_bus_signal+0xfe>
10006a0c:	b006      	add	sp, #24
10006a0e:	bd70      	pop	{r4, r5, r6, pc}
10006a10:	4b39      	ldr	r3, [pc, #228]	; (10006af8 <dcd_event_bus_signal+0x11c>)
10006a12:	781a      	ldrb	r2, [r3, #0]
10006a14:	07d2      	lsls	r2, r2, #31
10006a16:	d5f9      	bpl.n	10006a0c <dcd_event_bus_signal+0x30>
10006a18:	2104      	movs	r1, #4
10006a1a:	781a      	ldrb	r2, [r3, #0]
10006a1c:	430a      	orrs	r2, r1
10006a1e:	701a      	strb	r2, [r3, #0]
10006a20:	4b36      	ldr	r3, [pc, #216]	; (10006afc <dcd_event_bus_signal+0x120>)
10006a22:	681c      	ldr	r4, [r3, #0]
10006a24:	69e2      	ldr	r2, [r4, #28]
10006a26:	f3ef 8110 	mrs	r1, PRIMASK
10006a2a:	b672      	cpsid	i
10006a2c:	6813      	ldr	r3, [r2, #0]
10006a2e:	2b00      	cmp	r3, #0
10006a30:	d119      	bne.n	10006a66 <dcd_event_bus_signal+0x8a>
10006a32:	e7fb      	b.n	10006a2c <dcd_event_bus_signal+0x50>
10006a34:	2c02      	cmp	r4, #2
10006a36:	d126      	bne.n	10006a86 <dcd_event_bus_signal+0xaa>
10006a38:	2101      	movs	r1, #1
10006a3a:	4b2f      	ldr	r3, [pc, #188]	; (10006af8 <dcd_event_bus_signal+0x11c>)
10006a3c:	781a      	ldrb	r2, [r3, #0]
10006a3e:	438a      	bics	r2, r1
10006a40:	701a      	strb	r2, [r3, #0]
10006a42:	781a      	ldrb	r2, [r3, #0]
10006a44:	3103      	adds	r1, #3
10006a46:	43a2      	bics	r2, r4
10006a48:	701a      	strb	r2, [r3, #0]
10006a4a:	2200      	movs	r2, #0
10006a4c:	705a      	strb	r2, [r3, #1]
10006a4e:	781a      	ldrb	r2, [r3, #0]
10006a50:	438a      	bics	r2, r1
10006a52:	701a      	strb	r2, [r3, #0]
10006a54:	4b29      	ldr	r3, [pc, #164]	; (10006afc <dcd_event_bus_signal+0x120>)
10006a56:	681c      	ldr	r4, [r3, #0]
10006a58:	69e2      	ldr	r2, [r4, #28]
10006a5a:	f3ef 8110 	mrs	r1, PRIMASK
10006a5e:	b672      	cpsid	i
10006a60:	6813      	ldr	r3, [r2, #0]
10006a62:	2b00      	cmp	r3, #0
10006a64:	d0fc      	beq.n	10006a60 <dcd_event_bus_signal+0x84>
10006a66:	f3bf 8f5f 	dmb	sy
10006a6a:	6221      	str	r1, [r4, #32]
10006a6c:	4669      	mov	r1, sp
10006a6e:	0020      	movs	r0, r4
10006a70:	f000 ff3a 	bl	100078e8 <tu_fifo_write>
10006a74:	69e2      	ldr	r2, [r4, #28]
10006a76:	6a23      	ldr	r3, [r4, #32]
10006a78:	f3bf 8f5f 	dmb	sy
10006a7c:	2100      	movs	r1, #0
10006a7e:	6011      	str	r1, [r2, #0]
10006a80:	f383 8810 	msr	PRIMASK, r3
10006a84:	e7c2      	b.n	10006a0c <dcd_event_bus_signal+0x30>
10006a86:	4b1d      	ldr	r3, [pc, #116]	; (10006afc <dcd_event_bus_signal+0x120>)
10006a88:	681c      	ldr	r4, [r3, #0]
10006a8a:	69e2      	ldr	r2, [r4, #28]
10006a8c:	f3ef 8110 	mrs	r1, PRIMASK
10006a90:	b672      	cpsid	i
10006a92:	6813      	ldr	r3, [r2, #0]
10006a94:	2b00      	cmp	r3, #0
10006a96:	d1e6      	bne.n	10006a66 <dcd_event_bus_signal+0x8a>
10006a98:	e7fb      	b.n	10006a92 <dcd_event_bus_signal+0xb6>
10006a9a:	4b17      	ldr	r3, [pc, #92]	; (10006af8 <dcd_event_bus_signal+0x11c>)
10006a9c:	781a      	ldrb	r2, [r3, #0]
10006a9e:	0752      	lsls	r2, r2, #29
10006aa0:	d5b4      	bpl.n	10006a0c <dcd_event_bus_signal+0x30>
10006aa2:	2104      	movs	r1, #4
10006aa4:	200e      	movs	r0, #14
10006aa6:	781a      	ldrb	r2, [r3, #0]
10006aa8:	4468      	add	r0, sp
10006aaa:	438a      	bics	r2, r1
10006aac:	701a      	strb	r2, [r3, #0]
10006aae:	2100      	movs	r1, #0
10006ab0:	220a      	movs	r2, #10
10006ab2:	f7fe fa0b 	bl	10004ecc <__wrap_memset>
10006ab6:	2305      	movs	r3, #5
10006ab8:	ae03      	add	r6, sp, #12
10006aba:	7073      	strb	r3, [r6, #1]
10006abc:	4b0f      	ldr	r3, [pc, #60]	; (10006afc <dcd_event_bus_signal+0x120>)
10006abe:	7035      	strb	r5, [r6, #0]
10006ac0:	681c      	ldr	r4, [r3, #0]
10006ac2:	69e2      	ldr	r2, [r4, #28]
10006ac4:	f3ef 8110 	mrs	r1, PRIMASK
10006ac8:	b672      	cpsid	i
10006aca:	6813      	ldr	r3, [r2, #0]
10006acc:	2b00      	cmp	r3, #0
10006ace:	d0fc      	beq.n	10006aca <dcd_event_bus_signal+0xee>
10006ad0:	f3bf 8f5f 	dmb	sy
10006ad4:	6221      	str	r1, [r4, #32]
10006ad6:	0031      	movs	r1, r6
10006ad8:	e7c9      	b.n	10006a6e <dcd_event_bus_signal+0x92>
10006ada:	2104      	movs	r1, #4
10006adc:	781a      	ldrb	r2, [r3, #0]
10006ade:	438a      	bics	r2, r1
10006ae0:	701a      	strb	r2, [r3, #0]
10006ae2:	4b06      	ldr	r3, [pc, #24]	; (10006afc <dcd_event_bus_signal+0x120>)
10006ae4:	681c      	ldr	r4, [r3, #0]
10006ae6:	69e2      	ldr	r2, [r4, #28]
10006ae8:	f3ef 8110 	mrs	r1, PRIMASK
10006aec:	b672      	cpsid	i
10006aee:	6813      	ldr	r3, [r2, #0]
10006af0:	2b00      	cmp	r3, #0
10006af2:	d1b8      	bne.n	10006a66 <dcd_event_bus_signal+0x8a>
10006af4:	e7fb      	b.n	10006aee <dcd_event_bus_signal+0x112>
10006af6:	46c0      	nop			; (mov r8, r8)
10006af8:	20000c00 	.word	0x20000c00
10006afc:	20000c58 	.word	0x20000c58

10006b00 <dcd_event_bus_reset>:
10006b00:	b570      	push	{r4, r5, r6, lr}
10006b02:	b084      	sub	sp, #16
10006b04:	466b      	mov	r3, sp
10006b06:	0006      	movs	r6, r0
10006b08:	000d      	movs	r5, r1
10006b0a:	220a      	movs	r2, #10
10006b0c:	2100      	movs	r1, #0
10006b0e:	1d98      	adds	r0, r3, #6
10006b10:	f7fe f9dc 	bl	10004ecc <__wrap_memset>
10006b14:	2301      	movs	r3, #1
10006b16:	ac01      	add	r4, sp, #4
10006b18:	7063      	strb	r3, [r4, #1]
10006b1a:	4b0e      	ldr	r3, [pc, #56]	; (10006b54 <dcd_event_bus_reset+0x54>)
10006b1c:	7125      	strb	r5, [r4, #4]
10006b1e:	681d      	ldr	r5, [r3, #0]
10006b20:	7026      	strb	r6, [r4, #0]
10006b22:	69ea      	ldr	r2, [r5, #28]
10006b24:	f3ef 8310 	mrs	r3, PRIMASK
10006b28:	b672      	cpsid	i
10006b2a:	6811      	ldr	r1, [r2, #0]
10006b2c:	2900      	cmp	r1, #0
10006b2e:	d0fc      	beq.n	10006b2a <dcd_event_bus_reset+0x2a>
10006b30:	f3bf 8f5f 	dmb	sy
10006b34:	622b      	str	r3, [r5, #32]
10006b36:	0021      	movs	r1, r4
10006b38:	0028      	movs	r0, r5
10006b3a:	f000 fed5 	bl	100078e8 <tu_fifo_write>
10006b3e:	69ea      	ldr	r2, [r5, #28]
10006b40:	6a2b      	ldr	r3, [r5, #32]
10006b42:	f3bf 8f5f 	dmb	sy
10006b46:	2100      	movs	r1, #0
10006b48:	6011      	str	r1, [r2, #0]
10006b4a:	f383 8810 	msr	PRIMASK, r3
10006b4e:	b004      	add	sp, #16
10006b50:	bd70      	pop	{r4, r5, r6, pc}
10006b52:	46c0      	nop			; (mov r8, r8)
10006b54:	20000c58 	.word	0x20000c58

10006b58 <dcd_event_setup_received>:
10006b58:	2300      	movs	r3, #0
10006b5a:	b530      	push	{r4, r5, lr}
10006b5c:	b085      	sub	sp, #20
10006b5e:	ad01      	add	r5, sp, #4
10006b60:	806b      	strh	r3, [r5, #2]
10006b62:	7028      	strb	r0, [r5, #0]
10006b64:	3306      	adds	r3, #6
10006b66:	2208      	movs	r2, #8
10006b68:	a802      	add	r0, sp, #8
10006b6a:	706b      	strb	r3, [r5, #1]
10006b6c:	f7fe f9b4 	bl	10004ed8 <__wrap___aeabi_memcpy>
10006b70:	4b0c      	ldr	r3, [pc, #48]	; (10006ba4 <dcd_event_setup_received+0x4c>)
10006b72:	681c      	ldr	r4, [r3, #0]
10006b74:	69e2      	ldr	r2, [r4, #28]
10006b76:	f3ef 8310 	mrs	r3, PRIMASK
10006b7a:	b672      	cpsid	i
10006b7c:	6811      	ldr	r1, [r2, #0]
10006b7e:	2900      	cmp	r1, #0
10006b80:	d0fc      	beq.n	10006b7c <dcd_event_setup_received+0x24>
10006b82:	f3bf 8f5f 	dmb	sy
10006b86:	6223      	str	r3, [r4, #32]
10006b88:	0029      	movs	r1, r5
10006b8a:	0020      	movs	r0, r4
10006b8c:	f000 feac 	bl	100078e8 <tu_fifo_write>
10006b90:	69e2      	ldr	r2, [r4, #28]
10006b92:	6a23      	ldr	r3, [r4, #32]
10006b94:	f3bf 8f5f 	dmb	sy
10006b98:	2100      	movs	r1, #0
10006b9a:	6011      	str	r1, [r2, #0]
10006b9c:	f383 8810 	msr	PRIMASK, r3
10006ba0:	b005      	add	sp, #20
10006ba2:	bd30      	pop	{r4, r5, pc}
10006ba4:	20000c58 	.word	0x20000c58

10006ba8 <dcd_event_xfer_complete>:
10006ba8:	b5f0      	push	{r4, r5, r6, r7, lr}
10006baa:	46c6      	mov	lr, r8
10006bac:	b500      	push	{lr}
10006bae:	b084      	sub	sp, #16
10006bb0:	001d      	movs	r5, r3
10006bb2:	466b      	mov	r3, sp
10006bb4:	4680      	mov	r8, r0
10006bb6:	000f      	movs	r7, r1
10006bb8:	0016      	movs	r6, r2
10006bba:	2100      	movs	r1, #0
10006bbc:	2206      	movs	r2, #6
10006bbe:	1d98      	adds	r0, r3, #6
10006bc0:	f7fe f984 	bl	10004ecc <__wrap_memset>
10006bc4:	4643      	mov	r3, r8
10006bc6:	ac01      	add	r4, sp, #4
10006bc8:	7023      	strb	r3, [r4, #0]
10006bca:	2307      	movs	r3, #7
10006bcc:	7063      	strb	r3, [r4, #1]
10006bce:	4b0f      	ldr	r3, [pc, #60]	; (10006c0c <dcd_event_xfer_complete+0x64>)
10006bd0:	7165      	strb	r5, [r4, #5]
10006bd2:	681d      	ldr	r5, [r3, #0]
10006bd4:	7127      	strb	r7, [r4, #4]
10006bd6:	60a6      	str	r6, [r4, #8]
10006bd8:	69ea      	ldr	r2, [r5, #28]
10006bda:	f3ef 8310 	mrs	r3, PRIMASK
10006bde:	b672      	cpsid	i
10006be0:	6811      	ldr	r1, [r2, #0]
10006be2:	2900      	cmp	r1, #0
10006be4:	d0fc      	beq.n	10006be0 <dcd_event_xfer_complete+0x38>
10006be6:	f3bf 8f5f 	dmb	sy
10006bea:	622b      	str	r3, [r5, #32]
10006bec:	0021      	movs	r1, r4
10006bee:	0028      	movs	r0, r5
10006bf0:	f000 fe7a 	bl	100078e8 <tu_fifo_write>
10006bf4:	69ea      	ldr	r2, [r5, #28]
10006bf6:	6a2b      	ldr	r3, [r5, #32]
10006bf8:	f3bf 8f5f 	dmb	sy
10006bfc:	2100      	movs	r1, #0
10006bfe:	6011      	str	r1, [r2, #0]
10006c00:	f383 8810 	msr	PRIMASK, r3
10006c04:	b004      	add	sp, #16
10006c06:	bc04      	pop	{r2}
10006c08:	4690      	mov	r8, r2
10006c0a:	bdf0      	pop	{r4, r5, r6, r7, pc}
10006c0c:	20000c58 	.word	0x20000c58

10006c10 <usbd_open_edpt_pair>:
10006c10:	b5f0      	push	{r4, r5, r6, r7, lr}
10006c12:	46de      	mov	lr, fp
10006c14:	464f      	mov	r7, r9
10006c16:	4646      	mov	r6, r8
10006c18:	4683      	mov	fp, r0
10006c1a:	b5c0      	push	{r6, r7, lr}
10006c1c:	000c      	movs	r4, r1
10006c1e:	2a00      	cmp	r2, #0
10006c20:	d043      	beq.n	10006caa <usbd_open_edpt_pair+0x9a>
10006c22:	7849      	ldrb	r1, [r1, #1]
10006c24:	2905      	cmp	r1, #5
10006c26:	d116      	bne.n	10006c56 <usbd_open_edpt_pair+0x46>
10006c28:	78e6      	ldrb	r6, [r4, #3]
10006c2a:	07b6      	lsls	r6, r6, #30
10006c2c:	0fb6      	lsrs	r6, r6, #30
10006c2e:	42b3      	cmp	r3, r6
10006c30:	d111      	bne.n	10006c56 <usbd_open_edpt_pair+0x46>
10006c32:	237f      	movs	r3, #127	; 0x7f
10006c34:	78a1      	ldrb	r1, [r4, #2]
10006c36:	400b      	ands	r3, r1
10006c38:	2b0f      	cmp	r3, #15
10006c3a:	d80c      	bhi.n	10006c56 <usbd_open_edpt_pair+0x46>
10006c3c:	1e53      	subs	r3, r2, #1
10006c3e:	4698      	mov	r8, r3
10006c40:	4b1b      	ldr	r3, [pc, #108]	; (10006cb0 <usbd_open_edpt_pair+0xa0>)
10006c42:	2500      	movs	r5, #0
10006c44:	4699      	mov	r9, r3
10006c46:	277f      	movs	r7, #127	; 0x7f
10006c48:	464b      	mov	r3, r9
10006c4a:	0020      	movs	r0, r4
10006c4c:	7899      	ldrb	r1, [r3, #2]
10006c4e:	f000 fccd 	bl	100075ec <tu_edpt_validate>
10006c52:	2800      	cmp	r0, #0
10006c54:	d105      	bne.n	10006c62 <usbd_open_edpt_pair+0x52>
10006c56:	2000      	movs	r0, #0
10006c58:	bc1c      	pop	{r2, r3, r4}
10006c5a:	4690      	mov	r8, r2
10006c5c:	4699      	mov	r9, r3
10006c5e:	46a3      	mov	fp, r4
10006c60:	bdf0      	pop	{r4, r5, r6, r7, pc}
10006c62:	0021      	movs	r1, r4
10006c64:	4658      	mov	r0, fp
10006c66:	f7fe fe83 	bl	10005970 <dcd_edpt_open>
10006c6a:	2800      	cmp	r0, #0
10006c6c:	d0f3      	beq.n	10006c56 <usbd_open_edpt_pair+0x46>
10006c6e:	78a3      	ldrb	r3, [r4, #2]
10006c70:	09da      	lsrs	r2, r3, #7
10006c72:	2a01      	cmp	r2, #1
10006c74:	d013      	beq.n	10006c9e <usbd_open_edpt_pair+0x8e>
10006c76:	9a08      	ldr	r2, [sp, #32]
10006c78:	7013      	strb	r3, [r2, #0]
10006c7a:	7823      	ldrb	r3, [r4, #0]
10006c7c:	18e4      	adds	r4, r4, r3
10006c7e:	4545      	cmp	r5, r8
10006c80:	d013      	beq.n	10006caa <usbd_open_edpt_pair+0x9a>
10006c82:	7863      	ldrb	r3, [r4, #1]
10006c84:	2b05      	cmp	r3, #5
10006c86:	d1e6      	bne.n	10006c56 <usbd_open_edpt_pair+0x46>
10006c88:	78e3      	ldrb	r3, [r4, #3]
10006c8a:	079b      	lsls	r3, r3, #30
10006c8c:	0f9b      	lsrs	r3, r3, #30
10006c8e:	42b3      	cmp	r3, r6
10006c90:	d1e1      	bne.n	10006c56 <usbd_open_edpt_pair+0x46>
10006c92:	78a3      	ldrb	r3, [r4, #2]
10006c94:	3501      	adds	r5, #1
10006c96:	403b      	ands	r3, r7
10006c98:	2b0f      	cmp	r3, #15
10006c9a:	d9d5      	bls.n	10006c48 <usbd_open_edpt_pair+0x38>
10006c9c:	e7db      	b.n	10006c56 <usbd_open_edpt_pair+0x46>
10006c9e:	9a09      	ldr	r2, [sp, #36]	; 0x24
10006ca0:	7013      	strb	r3, [r2, #0]
10006ca2:	7823      	ldrb	r3, [r4, #0]
10006ca4:	18e4      	adds	r4, r4, r3
10006ca6:	4545      	cmp	r5, r8
10006ca8:	d1eb      	bne.n	10006c82 <usbd_open_edpt_pair+0x72>
10006caa:	2001      	movs	r0, #1
10006cac:	e7d4      	b.n	10006c58 <usbd_open_edpt_pair+0x48>
10006cae:	46c0      	nop			; (mov r8, r8)
10006cb0:	20000c00 	.word	0x20000c00

10006cb4 <usbd_edpt_open>:
10006cb4:	237f      	movs	r3, #127	; 0x7f
10006cb6:	b570      	push	{r4, r5, r6, lr}
10006cb8:	788a      	ldrb	r2, [r1, #2]
10006cba:	0005      	movs	r5, r0
10006cbc:	000c      	movs	r4, r1
10006cbe:	4013      	ands	r3, r2
10006cc0:	2b0f      	cmp	r3, #15
10006cc2:	d901      	bls.n	10006cc8 <usbd_edpt_open+0x14>
10006cc4:	2000      	movs	r0, #0
10006cc6:	bd70      	pop	{r4, r5, r6, pc}
10006cc8:	4b05      	ldr	r3, [pc, #20]	; (10006ce0 <usbd_edpt_open+0x2c>)
10006cca:	0020      	movs	r0, r4
10006ccc:	7899      	ldrb	r1, [r3, #2]
10006cce:	f000 fc8d 	bl	100075ec <tu_edpt_validate>
10006cd2:	2800      	cmp	r0, #0
10006cd4:	d0f6      	beq.n	10006cc4 <usbd_edpt_open+0x10>
10006cd6:	0021      	movs	r1, r4
10006cd8:	0028      	movs	r0, r5
10006cda:	f7fe fe49 	bl	10005970 <dcd_edpt_open>
10006cde:	e7f2      	b.n	10006cc6 <usbd_edpt_open+0x12>
10006ce0:	20000c00 	.word	0x20000c00

10006ce4 <usbd_edpt_claim>:
10006ce4:	237f      	movs	r3, #127	; 0x7f
10006ce6:	b570      	push	{r4, r5, r6, lr}
10006ce8:	400b      	ands	r3, r1
10006cea:	4c13      	ldr	r4, [pc, #76]	; (10006d38 <usbd_edpt_claim+0x54>)
10006cec:	005b      	lsls	r3, r3, #1
10006cee:	09c9      	lsrs	r1, r1, #7
10006cf0:	18e4      	adds	r4, r4, r3
10006cf2:	1864      	adds	r4, r4, r1
10006cf4:	3430      	adds	r4, #48	; 0x30
10006cf6:	78e5      	ldrb	r5, [r4, #3]
10006cf8:	07ed      	lsls	r5, r5, #31
10006cfa:	0fed      	lsrs	r5, r5, #31
10006cfc:	d104      	bne.n	10006d08 <usbd_edpt_claim+0x24>
10006cfe:	78e3      	ldrb	r3, [r4, #3]
10006d00:	075b      	lsls	r3, r3, #29
10006d02:	d503      	bpl.n	10006d0c <usbd_edpt_claim+0x28>
10006d04:	0028      	movs	r0, r5
10006d06:	bd70      	pop	{r4, r5, r6, pc}
10006d08:	2500      	movs	r5, #0
10006d0a:	e7fb      	b.n	10006d04 <usbd_edpt_claim+0x20>
10006d0c:	2101      	movs	r1, #1
10006d0e:	4e0b      	ldr	r6, [pc, #44]	; (10006d3c <usbd_edpt_claim+0x58>)
10006d10:	4249      	negs	r1, r1
10006d12:	6830      	ldr	r0, [r6, #0]
10006d14:	f001 f99c 	bl	10008050 <__mutex_enter_timeout_ms_veneer>
10006d18:	78e3      	ldrb	r3, [r4, #3]
10006d1a:	07db      	lsls	r3, r3, #31
10006d1c:	d407      	bmi.n	10006d2e <usbd_edpt_claim+0x4a>
10006d1e:	78e3      	ldrb	r3, [r4, #3]
10006d20:	075b      	lsls	r3, r3, #29
10006d22:	d404      	bmi.n	10006d2e <usbd_edpt_claim+0x4a>
10006d24:	2204      	movs	r2, #4
10006d26:	2501      	movs	r5, #1
10006d28:	78e3      	ldrb	r3, [r4, #3]
10006d2a:	4313      	orrs	r3, r2
10006d2c:	70e3      	strb	r3, [r4, #3]
10006d2e:	6830      	ldr	r0, [r6, #0]
10006d30:	f001 f976 	bl	10008020 <__mutex_exit_veneer>
10006d34:	e7e6      	b.n	10006d04 <usbd_edpt_claim+0x20>
10006d36:	46c0      	nop			; (mov r8, r8)
10006d38:	20000c00 	.word	0x20000c00
10006d3c:	20000c54 	.word	0x20000c54

10006d40 <usbd_edpt_release>:
10006d40:	b570      	push	{r4, r5, r6, lr}
10006d42:	000d      	movs	r5, r1
10006d44:	2101      	movs	r1, #1
10006d46:	4c0f      	ldr	r4, [pc, #60]	; (10006d84 <usbd_edpt_release+0x44>)
10006d48:	4249      	negs	r1, r1
10006d4a:	6820      	ldr	r0, [r4, #0]
10006d4c:	f001 f980 	bl	10008050 <__mutex_enter_timeout_ms_veneer>
10006d50:	217f      	movs	r1, #127	; 0x7f
10006d52:	4029      	ands	r1, r5
10006d54:	004b      	lsls	r3, r1, #1
10006d56:	490c      	ldr	r1, [pc, #48]	; (10006d88 <usbd_edpt_release+0x48>)
10006d58:	09ed      	lsrs	r5, r5, #7
10006d5a:	18c9      	adds	r1, r1, r3
10006d5c:	1949      	adds	r1, r1, r5
10006d5e:	3130      	adds	r1, #48	; 0x30
10006d60:	78cb      	ldrb	r3, [r1, #3]
10006d62:	2500      	movs	r5, #0
10006d64:	07db      	lsls	r3, r3, #31
10006d66:	d407      	bmi.n	10006d78 <usbd_edpt_release+0x38>
10006d68:	78cb      	ldrb	r3, [r1, #3]
10006d6a:	075b      	lsls	r3, r3, #29
10006d6c:	d504      	bpl.n	10006d78 <usbd_edpt_release+0x38>
10006d6e:	2204      	movs	r2, #4
10006d70:	78cb      	ldrb	r3, [r1, #3]
10006d72:	3501      	adds	r5, #1
10006d74:	4393      	bics	r3, r2
10006d76:	70cb      	strb	r3, [r1, #3]
10006d78:	6820      	ldr	r0, [r4, #0]
10006d7a:	f001 f951 	bl	10008020 <__mutex_exit_veneer>
10006d7e:	0028      	movs	r0, r5
10006d80:	bd70      	pop	{r4, r5, r6, pc}
10006d82:	46c0      	nop			; (mov r8, r8)
10006d84:	20000c54 	.word	0x20000c54
10006d88:	20000c00 	.word	0x20000c00

10006d8c <usbd_edpt_xfer>:
10006d8c:	b570      	push	{r4, r5, r6, lr}
10006d8e:	247f      	movs	r4, #127	; 0x7f
10006d90:	400c      	ands	r4, r1
10006d92:	0065      	lsls	r5, r4, #1
10006d94:	4c0e      	ldr	r4, [pc, #56]	; (10006dd0 <usbd_edpt_xfer+0x44>)
10006d96:	0006      	movs	r6, r0
10006d98:	1964      	adds	r4, r4, r5
10006d9a:	09c8      	lsrs	r0, r1, #7
10006d9c:	1824      	adds	r4, r4, r0
10006d9e:	3430      	adds	r4, #48	; 0x30
10006da0:	78e5      	ldrb	r5, [r4, #3]
10006da2:	2000      	movs	r0, #0
10006da4:	07ed      	lsls	r5, r5, #31
10006da6:	d500      	bpl.n	10006daa <usbd_edpt_xfer+0x1e>
10006da8:	bd70      	pop	{r4, r5, r6, pc}
10006daa:	2501      	movs	r5, #1
10006dac:	78e0      	ldrb	r0, [r4, #3]
10006dae:	4328      	orrs	r0, r5
10006db0:	70e0      	strb	r0, [r4, #3]
10006db2:	0030      	movs	r0, r6
10006db4:	f7fe feb2 	bl	10005b1c <dcd_edpt_xfer>
10006db8:	2800      	cmp	r0, #0
10006dba:	d1f5      	bne.n	10006da8 <usbd_edpt_xfer+0x1c>
10006dbc:	2201      	movs	r2, #1
10006dbe:	78e3      	ldrb	r3, [r4, #3]
10006dc0:	4393      	bics	r3, r2
10006dc2:	70e3      	strb	r3, [r4, #3]
10006dc4:	78e3      	ldrb	r3, [r4, #3]
10006dc6:	3203      	adds	r2, #3
10006dc8:	4393      	bics	r3, r2
10006dca:	70e3      	strb	r3, [r4, #3]
10006dcc:	e7ec      	b.n	10006da8 <usbd_edpt_xfer+0x1c>
10006dce:	46c0      	nop			; (mov r8, r8)
10006dd0:	20000c00 	.word	0x20000c00

10006dd4 <tud_control_status>:
10006dd4:	b570      	push	{r4, r5, r6, lr}
10006dd6:	4c0a      	ldr	r4, [pc, #40]	; (10006e00 <tud_control_status+0x2c>)
10006dd8:	0006      	movs	r6, r0
10006dda:	2208      	movs	r2, #8
10006ddc:	0020      	movs	r0, r4
10006dde:	000d      	movs	r5, r1
10006de0:	f7fe f87a 	bl	10004ed8 <__wrap___aeabi_memcpy>
10006de4:	2300      	movs	r3, #0
10006de6:	2100      	movs	r1, #0
10006de8:	60a3      	str	r3, [r4, #8]
10006dea:	60e3      	str	r3, [r4, #12]
10006dec:	5669      	ldrsb	r1, [r5, r1]
10006dee:	0030      	movs	r0, r6
10006df0:	43c9      	mvns	r1, r1
10006df2:	0fc9      	lsrs	r1, r1, #31
10006df4:	01c9      	lsls	r1, r1, #7
10006df6:	2200      	movs	r2, #0
10006df8:	f7ff ffc8 	bl	10006d8c <usbd_edpt_xfer>
10006dfc:	bd70      	pop	{r4, r5, r6, pc}
10006dfe:	46c0      	nop			; (mov r8, r8)
10006e00:	20000ba4 	.word	0x20000ba4

10006e04 <tud_control_xfer>:
10006e04:	b5f0      	push	{r4, r5, r6, r7, lr}
10006e06:	46c6      	mov	lr, r8
10006e08:	4690      	mov	r8, r2
10006e0a:	4c29      	ldr	r4, [pc, #164]	; (10006eb0 <tud_control_xfer+0xac>)
10006e0c:	2208      	movs	r2, #8
10006e0e:	b500      	push	{lr}
10006e10:	0006      	movs	r6, r0
10006e12:	0020      	movs	r0, r4
10006e14:	000d      	movs	r5, r1
10006e16:	001f      	movs	r7, r3
10006e18:	f7fe f85e 	bl	10004ed8 <__wrap___aeabi_memcpy>
10006e1c:	4643      	mov	r3, r8
10006e1e:	60a3      	str	r3, [r4, #8]
10006e20:	2300      	movs	r3, #0
10006e22:	81e3      	strh	r3, [r4, #14]
10006e24:	79eb      	ldrb	r3, [r5, #7]
10006e26:	79aa      	ldrb	r2, [r5, #6]
10006e28:	021b      	lsls	r3, r3, #8
10006e2a:	4313      	orrs	r3, r2
10006e2c:	1c1a      	adds	r2, r3, #0
10006e2e:	42bb      	cmp	r3, r7
10006e30:	d900      	bls.n	10006e34 <tud_control_xfer+0x30>
10006e32:	1c3a      	adds	r2, r7, #0
10006e34:	b297      	uxth	r7, r2
10006e36:	81a2      	strh	r2, [r4, #12]
10006e38:	2b00      	cmp	r3, #0
10006e3a:	d012      	beq.n	10006e62 <tud_control_xfer+0x5e>
10006e3c:	2f00      	cmp	r7, #0
10006e3e:	d01d      	beq.n	10006e7c <tud_control_xfer+0x78>
10006e40:	4643      	mov	r3, r8
10006e42:	2b00      	cmp	r3, #0
10006e44:	d02e      	beq.n	10006ea4 <tud_control_xfer+0xa0>
10006e46:	1c3b      	adds	r3, r7, #0
10006e48:	2f40      	cmp	r7, #64	; 0x40
10006e4a:	d81d      	bhi.n	10006e88 <tud_control_xfer+0x84>
10006e4c:	b29f      	uxth	r7, r3
10006e4e:	7823      	ldrb	r3, [r4, #0]
10006e50:	2b7f      	cmp	r3, #127	; 0x7f
10006e52:	d81e      	bhi.n	10006e92 <tud_control_xfer+0x8e>
10006e54:	2100      	movs	r1, #0
10006e56:	4a17      	ldr	r2, [pc, #92]	; (10006eb4 <tud_control_xfer+0xb0>)
10006e58:	003b      	movs	r3, r7
10006e5a:	0030      	movs	r0, r6
10006e5c:	f7ff ff96 	bl	10006d8c <usbd_edpt_xfer>
10006e60:	e009      	b.n	10006e76 <tud_control_xfer+0x72>
10006e62:	2100      	movs	r1, #0
10006e64:	5669      	ldrsb	r1, [r5, r1]
10006e66:	2300      	movs	r3, #0
10006e68:	43c9      	mvns	r1, r1
10006e6a:	0fc9      	lsrs	r1, r1, #31
10006e6c:	01c9      	lsls	r1, r1, #7
10006e6e:	2200      	movs	r2, #0
10006e70:	0030      	movs	r0, r6
10006e72:	f7ff ff8b 	bl	10006d8c <usbd_edpt_xfer>
10006e76:	bc04      	pop	{r2}
10006e78:	4690      	mov	r8, r2
10006e7a:	bdf0      	pop	{r4, r5, r6, r7, pc}
10006e7c:	7823      	ldrb	r3, [r4, #0]
10006e7e:	2b7f      	cmp	r3, #127	; 0x7f
10006e80:	d812      	bhi.n	10006ea8 <tud_control_xfer+0xa4>
10006e82:	2100      	movs	r1, #0
10006e84:	2200      	movs	r2, #0
10006e86:	e7e7      	b.n	10006e58 <tud_control_xfer+0x54>
10006e88:	2340      	movs	r3, #64	; 0x40
10006e8a:	b29f      	uxth	r7, r3
10006e8c:	7823      	ldrb	r3, [r4, #0]
10006e8e:	2b7f      	cmp	r3, #127	; 0x7f
10006e90:	d9e0      	bls.n	10006e54 <tud_control_xfer+0x50>
10006e92:	4c08      	ldr	r4, [pc, #32]	; (10006eb4 <tud_control_xfer+0xb0>)
10006e94:	003a      	movs	r2, r7
10006e96:	4641      	mov	r1, r8
10006e98:	0020      	movs	r0, r4
10006e9a:	f7fe f81d 	bl	10004ed8 <__wrap___aeabi_memcpy>
10006e9e:	2180      	movs	r1, #128	; 0x80
10006ea0:	0022      	movs	r2, r4
10006ea2:	e7d9      	b.n	10006e58 <tud_control_xfer+0x54>
10006ea4:	2000      	movs	r0, #0
10006ea6:	e7e6      	b.n	10006e76 <tud_control_xfer+0x72>
10006ea8:	2180      	movs	r1, #128	; 0x80
10006eaa:	2200      	movs	r2, #0
10006eac:	e7d4      	b.n	10006e58 <tud_control_xfer+0x54>
10006eae:	46c0      	nop			; (mov r8, r8)
10006eb0:	20000ba4 	.word	0x20000ba4
10006eb4:	20000bc0 	.word	0x20000bc0

10006eb8 <usbd_control_reset>:
10006eb8:	b510      	push	{r4, lr}
10006eba:	2214      	movs	r2, #20
10006ebc:	2100      	movs	r1, #0
10006ebe:	4802      	ldr	r0, [pc, #8]	; (10006ec8 <usbd_control_reset+0x10>)
10006ec0:	f7fe f804 	bl	10004ecc <__wrap_memset>
10006ec4:	bd10      	pop	{r4, pc}
10006ec6:	46c0      	nop			; (mov r8, r8)
10006ec8:	20000ba4 	.word	0x20000ba4

10006ecc <usbd_control_set_complete_callback>:
10006ecc:	4b01      	ldr	r3, [pc, #4]	; (10006ed4 <usbd_control_set_complete_callback+0x8>)
10006ece:	6118      	str	r0, [r3, #16]
10006ed0:	4770      	bx	lr
10006ed2:	46c0      	nop			; (mov r8, r8)
10006ed4:	20000ba4 	.word	0x20000ba4

10006ed8 <usbd_control_set_request>:
10006ed8:	b510      	push	{r4, lr}
10006eda:	4c05      	ldr	r4, [pc, #20]	; (10006ef0 <usbd_control_set_request+0x18>)
10006edc:	0001      	movs	r1, r0
10006ede:	2208      	movs	r2, #8
10006ee0:	0020      	movs	r0, r4
10006ee2:	f7fd fff9 	bl	10004ed8 <__wrap___aeabi_memcpy>
10006ee6:	2300      	movs	r3, #0
10006ee8:	60a3      	str	r3, [r4, #8]
10006eea:	60e3      	str	r3, [r4, #12]
10006eec:	bd10      	pop	{r4, pc}
10006eee:	46c0      	nop			; (mov r8, r8)
10006ef0:	20000ba4 	.word	0x20000ba4

10006ef4 <usbd_control_xfer_cb>:
10006ef4:	b5f8      	push	{r3, r4, r5, r6, r7, lr}
10006ef6:	4c3b      	ldr	r4, [pc, #236]	; (10006fe4 <usbd_control_xfer_cb+0xf0>)
10006ef8:	001d      	movs	r5, r3
10006efa:	7823      	ldrb	r3, [r4, #0]
10006efc:	0006      	movs	r6, r0
10006efe:	09da      	lsrs	r2, r3, #7
10006f00:	09c9      	lsrs	r1, r1, #7
10006f02:	428a      	cmp	r2, r1
10006f04:	d012      	beq.n	10006f2c <usbd_control_xfer_cb+0x38>
10006f06:	2000      	movs	r0, #0
10006f08:	2d00      	cmp	r5, #0
10006f0a:	d10e      	bne.n	10006f2a <usbd_control_xfer_cb+0x36>
10006f0c:	4b36      	ldr	r3, [pc, #216]	; (10006fe8 <usbd_control_xfer_cb+0xf4>)
10006f0e:	2b00      	cmp	r3, #0
10006f10:	d003      	beq.n	10006f1a <usbd_control_xfer_cb+0x26>
10006f12:	0021      	movs	r1, r4
10006f14:	0030      	movs	r0, r6
10006f16:	f7fe fd1d 	bl	10005954 <dcd_edpt0_status_complete>
10006f1a:	6923      	ldr	r3, [r4, #16]
10006f1c:	2b00      	cmp	r3, #0
10006f1e:	d05a      	beq.n	10006fd6 <usbd_control_xfer_cb+0xe2>
10006f20:	0022      	movs	r2, r4
10006f22:	2102      	movs	r1, #2
10006f24:	0030      	movs	r0, r6
10006f26:	4798      	blx	r3
10006f28:	2001      	movs	r0, #1
10006f2a:	bdf8      	pop	{r3, r4, r5, r6, r7, pc}
10006f2c:	68a7      	ldr	r7, [r4, #8]
10006f2e:	2b7f      	cmp	r3, #127	; 0x7f
10006f30:	d808      	bhi.n	10006f44 <usbd_control_xfer_cb+0x50>
10006f32:	2000      	movs	r0, #0
10006f34:	2f00      	cmp	r7, #0
10006f36:	d0f8      	beq.n	10006f2a <usbd_control_xfer_cb+0x36>
10006f38:	0038      	movs	r0, r7
10006f3a:	002a      	movs	r2, r5
10006f3c:	492b      	ldr	r1, [pc, #172]	; (10006fec <usbd_control_xfer_cb+0xf8>)
10006f3e:	f7fd ffcb 	bl	10004ed8 <__wrap___aeabi_memcpy>
10006f42:	68a7      	ldr	r7, [r4, #8]
10006f44:	89e2      	ldrh	r2, [r4, #14]
10006f46:	88e3      	ldrh	r3, [r4, #6]
10006f48:	1952      	adds	r2, r2, r5
10006f4a:	b292      	uxth	r2, r2
10006f4c:	197f      	adds	r7, r7, r5
10006f4e:	81e2      	strh	r2, [r4, #14]
10006f50:	60a7      	str	r7, [r4, #8]
10006f52:	4293      	cmp	r3, r2
10006f54:	d001      	beq.n	10006f5a <usbd_control_xfer_cb+0x66>
10006f56:	2d3f      	cmp	r5, #63	; 0x3f
10006f58:	d813      	bhi.n	10006f82 <usbd_control_xfer_cb+0x8e>
10006f5a:	6923      	ldr	r3, [r4, #16]
10006f5c:	2b00      	cmp	r3, #0
10006f5e:	d005      	beq.n	10006f6c <usbd_control_xfer_cb+0x78>
10006f60:	0022      	movs	r2, r4
10006f62:	2101      	movs	r1, #1
10006f64:	0030      	movs	r0, r6
10006f66:	4798      	blx	r3
10006f68:	2800      	cmp	r0, #0
10006f6a:	d01d      	beq.n	10006fa8 <usbd_control_xfer_cb+0xb4>
10006f6c:	2100      	movs	r1, #0
10006f6e:	5661      	ldrsb	r1, [r4, r1]
10006f70:	2300      	movs	r3, #0
10006f72:	43c9      	mvns	r1, r1
10006f74:	0fc9      	lsrs	r1, r1, #31
10006f76:	01c9      	lsls	r1, r1, #7
10006f78:	2200      	movs	r2, #0
10006f7a:	0030      	movs	r0, r6
10006f7c:	f7ff ff06 	bl	10006d8c <usbd_edpt_xfer>
10006f80:	e7d3      	b.n	10006f2a <usbd_control_xfer_cb+0x36>
10006f82:	89a0      	ldrh	r0, [r4, #12]
10006f84:	1a81      	subs	r1, r0, r2
10006f86:	1c0d      	adds	r5, r1, #0
10006f88:	b289      	uxth	r1, r1
10006f8a:	2940      	cmp	r1, #64	; 0x40
10006f8c:	d816      	bhi.n	10006fbc <usbd_control_xfer_cb+0xc8>
10006f8e:	7823      	ldrb	r3, [r4, #0]
10006f90:	b2ad      	uxth	r5, r5
10006f92:	2b7f      	cmp	r3, #127	; 0x7f
10006f94:	d814      	bhi.n	10006fc0 <usbd_control_xfer_cb+0xcc>
10006f96:	2100      	movs	r1, #0
10006f98:	4282      	cmp	r2, r0
10006f9a:	d01e      	beq.n	10006fda <usbd_control_xfer_cb+0xe6>
10006f9c:	4a13      	ldr	r2, [pc, #76]	; (10006fec <usbd_control_xfer_cb+0xf8>)
10006f9e:	002b      	movs	r3, r5
10006fa0:	0030      	movs	r0, r6
10006fa2:	f7ff fef3 	bl	10006d8c <usbd_edpt_xfer>
10006fa6:	e7c0      	b.n	10006f2a <usbd_control_xfer_cb+0x36>
10006fa8:	2100      	movs	r1, #0
10006faa:	0030      	movs	r0, r6
10006fac:	f7fe fdc8 	bl	10005b40 <dcd_edpt_stall>
10006fb0:	0030      	movs	r0, r6
10006fb2:	2180      	movs	r1, #128	; 0x80
10006fb4:	f7fe fdc4 	bl	10005b40 <dcd_edpt_stall>
10006fb8:	2001      	movs	r0, #1
10006fba:	e7b6      	b.n	10006f2a <usbd_control_xfer_cb+0x36>
10006fbc:	2540      	movs	r5, #64	; 0x40
10006fbe:	e7e6      	b.n	10006f8e <usbd_control_xfer_cb+0x9a>
10006fc0:	4282      	cmp	r2, r0
10006fc2:	d00c      	beq.n	10006fde <usbd_control_xfer_cb+0xea>
10006fc4:	4c09      	ldr	r4, [pc, #36]	; (10006fec <usbd_control_xfer_cb+0xf8>)
10006fc6:	002a      	movs	r2, r5
10006fc8:	0039      	movs	r1, r7
10006fca:	0020      	movs	r0, r4
10006fcc:	f7fd ff84 	bl	10004ed8 <__wrap___aeabi_memcpy>
10006fd0:	2180      	movs	r1, #128	; 0x80
10006fd2:	0022      	movs	r2, r4
10006fd4:	e7e3      	b.n	10006f9e <usbd_control_xfer_cb+0xaa>
10006fd6:	2001      	movs	r0, #1
10006fd8:	e7a7      	b.n	10006f2a <usbd_control_xfer_cb+0x36>
10006fda:	2200      	movs	r2, #0
10006fdc:	e7df      	b.n	10006f9e <usbd_control_xfer_cb+0xaa>
10006fde:	2180      	movs	r1, #128	; 0x80
10006fe0:	2200      	movs	r2, #0
10006fe2:	e7dc      	b.n	10006f9e <usbd_control_xfer_cb+0xaa>
10006fe4:	20000ba4 	.word	0x20000ba4
10006fe8:	10005955 	.word	0x10005955
10006fec:	20000bc0 	.word	0x20000bc0

10006ff0 <tud_cdc_n_connected>:
10006ff0:	b510      	push	{r4, lr}
10006ff2:	0004      	movs	r4, r0
10006ff4:	f7fe ffd2 	bl	10005f9c <tud_mounted>
10006ff8:	2800      	cmp	r0, #0
10006ffa:	d101      	bne.n	10007000 <tud_cdc_n_connected+0x10>
10006ffc:	2000      	movs	r0, #0
10006ffe:	bd10      	pop	{r4, pc}
10007000:	f7fe ffd4 	bl	10005fac <tud_suspended>
10007004:	2800      	cmp	r0, #0
10007006:	d1f9      	bne.n	10006ffc <tud_cdc_n_connected+0xc>
10007008:	20b6      	movs	r0, #182	; 0xb6
1000700a:	0080      	lsls	r0, r0, #2
1000700c:	4344      	muls	r4, r0
1000700e:	4803      	ldr	r0, [pc, #12]	; (1000701c <tud_cdc_n_connected+0x2c>)
10007010:	1900      	adds	r0, r0, r4
10007012:	7903      	ldrb	r3, [r0, #4]
10007014:	2001      	movs	r0, #1
10007016:	4018      	ands	r0, r3
10007018:	e7f1      	b.n	10006ffe <tud_cdc_n_connected+0xe>
1000701a:	46c0      	nop			; (mov r8, r8)
1000701c:	200008cc 	.word	0x200008cc

10007020 <tud_cdc_n_available>:
10007020:	0003      	movs	r3, r0
10007022:	20b6      	movs	r0, #182	; 0xb6
10007024:	0080      	lsls	r0, r0, #2
10007026:	4358      	muls	r0, r3
10007028:	b510      	push	{r4, lr}
1000702a:	4b03      	ldr	r3, [pc, #12]	; (10007038 <tud_cdc_n_available+0x18>)
1000702c:	3010      	adds	r0, #16
1000702e:	18c0      	adds	r0, r0, r3
10007030:	f000 fb6a 	bl	10007708 <tu_fifo_count>
10007034:	bd10      	pop	{r4, pc}
10007036:	46c0      	nop			; (mov r8, r8)
10007038:	200008cc 	.word	0x200008cc

1000703c <tud_cdc_n_read>:
1000703c:	b5f0      	push	{r4, r5, r6, r7, lr}
1000703e:	25b6      	movs	r5, #182	; 0xb6
10007040:	00ad      	lsls	r5, r5, #2
10007042:	4345      	muls	r5, r0
10007044:	002c      	movs	r4, r5
10007046:	46c6      	mov	lr, r8
10007048:	4e17      	ldr	r6, [pc, #92]	; (100070a8 <tud_cdc_n_read+0x6c>)
1000704a:	3410      	adds	r4, #16
1000704c:	19a4      	adds	r4, r4, r6
1000704e:	b500      	push	{lr}
10007050:	b292      	uxth	r2, r2
10007052:	0020      	movs	r0, r4
10007054:	f000 fbd0 	bl	100077f8 <tu_fifo_read_n>
10007058:	0007      	movs	r7, r0
1000705a:	0020      	movs	r0, r4
1000705c:	f000 fb6e 	bl	1000773c <tu_fifo_remaining>
10007060:	283f      	cmp	r0, #63	; 0x3f
10007062:	d803      	bhi.n	1000706c <tud_cdc_n_read+0x30>
10007064:	0038      	movs	r0, r7
10007066:	bc04      	pop	{r2}
10007068:	4690      	mov	r8, r2
1000706a:	bdf0      	pop	{r4, r5, r6, r7, pc}
1000706c:	1973      	adds	r3, r6, r5
1000706e:	78d9      	ldrb	r1, [r3, #3]
10007070:	2000      	movs	r0, #0
10007072:	4698      	mov	r8, r3
10007074:	f7ff fe36 	bl	10006ce4 <usbd_edpt_claim>
10007078:	2800      	cmp	r0, #0
1000707a:	d0f3      	beq.n	10007064 <tud_cdc_n_read+0x28>
1000707c:	0020      	movs	r0, r4
1000707e:	f000 fb5d 	bl	1000773c <tu_fifo_remaining>
10007082:	283f      	cmp	r0, #63	; 0x3f
10007084:	d805      	bhi.n	10007092 <tud_cdc_n_read+0x56>
10007086:	4643      	mov	r3, r8
10007088:	2000      	movs	r0, #0
1000708a:	78d9      	ldrb	r1, [r3, #3]
1000708c:	f7ff fe58 	bl	10006d40 <usbd_edpt_release>
10007090:	e7e8      	b.n	10007064 <tud_cdc_n_read+0x28>
10007092:	2396      	movs	r3, #150	; 0x96
10007094:	009b      	lsls	r3, r3, #2
10007096:	18ea      	adds	r2, r5, r3
10007098:	4643      	mov	r3, r8
1000709a:	1992      	adds	r2, r2, r6
1000709c:	78d9      	ldrb	r1, [r3, #3]
1000709e:	2000      	movs	r0, #0
100070a0:	2340      	movs	r3, #64	; 0x40
100070a2:	f7ff fe73 	bl	10006d8c <usbd_edpt_xfer>
100070a6:	e7dd      	b.n	10007064 <tud_cdc_n_read+0x28>
100070a8:	200008cc 	.word	0x200008cc

100070ac <tud_cdc_n_write>:
100070ac:	b5f0      	push	{r4, r5, r6, r7, lr}
100070ae:	25b6      	movs	r5, #182	; 0xb6
100070b0:	00ad      	lsls	r5, r5, #2
100070b2:	4345      	muls	r5, r0
100070b4:	002c      	movs	r4, r5
100070b6:	46c6      	mov	lr, r8
100070b8:	4e1f      	ldr	r6, [pc, #124]	; (10007138 <tud_cdc_n_write+0x8c>)
100070ba:	342c      	adds	r4, #44	; 0x2c
100070bc:	19a4      	adds	r4, r4, r6
100070be:	b500      	push	{lr}
100070c0:	b292      	uxth	r2, r2
100070c2:	0020      	movs	r0, r4
100070c4:	f000 fc50 	bl	10007968 <tu_fifo_write_n>
100070c8:	0007      	movs	r7, r0
100070ca:	0020      	movs	r0, r4
100070cc:	f000 fb1c 	bl	10007708 <tu_fifo_count>
100070d0:	283f      	cmp	r0, #63	; 0x3f
100070d2:	d803      	bhi.n	100070dc <tud_cdc_n_write+0x30>
100070d4:	0038      	movs	r0, r7
100070d6:	bc04      	pop	{r2}
100070d8:	4690      	mov	r8, r2
100070da:	bdf0      	pop	{r4, r5, r6, r7, pc}
100070dc:	f7fe ff5e 	bl	10005f9c <tud_mounted>
100070e0:	2800      	cmp	r0, #0
100070e2:	d0f7      	beq.n	100070d4 <tud_cdc_n_write+0x28>
100070e4:	f7fe ff62 	bl	10005fac <tud_suspended>
100070e8:	2800      	cmp	r0, #0
100070ea:	d1f3      	bne.n	100070d4 <tud_cdc_n_write+0x28>
100070ec:	0020      	movs	r0, r4
100070ee:	f000 fb0b 	bl	10007708 <tu_fifo_count>
100070f2:	2800      	cmp	r0, #0
100070f4:	d0ee      	beq.n	100070d4 <tud_cdc_n_write+0x28>
100070f6:	1973      	adds	r3, r6, r5
100070f8:	7899      	ldrb	r1, [r3, #2]
100070fa:	2000      	movs	r0, #0
100070fc:	4698      	mov	r8, r3
100070fe:	f7ff fdf1 	bl	10006ce4 <usbd_edpt_claim>
10007102:	2800      	cmp	r0, #0
10007104:	d0e6      	beq.n	100070d4 <tud_cdc_n_write+0x28>
10007106:	23a6      	movs	r3, #166	; 0xa6
10007108:	009b      	lsls	r3, r3, #2
1000710a:	469c      	mov	ip, r3
1000710c:	4465      	add	r5, ip
1000710e:	19ae      	adds	r6, r5, r6
10007110:	0031      	movs	r1, r6
10007112:	2240      	movs	r2, #64	; 0x40
10007114:	0020      	movs	r0, r4
10007116:	f000 fb6f 	bl	100077f8 <tu_fifo_read_n>
1000711a:	4643      	mov	r3, r8
1000711c:	7899      	ldrb	r1, [r3, #2]
1000711e:	2800      	cmp	r0, #0
10007120:	d005      	beq.n	1000712e <tud_cdc_n_write+0x82>
10007122:	0003      	movs	r3, r0
10007124:	0032      	movs	r2, r6
10007126:	2000      	movs	r0, #0
10007128:	f7ff fe30 	bl	10006d8c <usbd_edpt_xfer>
1000712c:	e7d2      	b.n	100070d4 <tud_cdc_n_write+0x28>
1000712e:	2000      	movs	r0, #0
10007130:	f7ff fe06 	bl	10006d40 <usbd_edpt_release>
10007134:	e7ce      	b.n	100070d4 <tud_cdc_n_write+0x28>
10007136:	46c0      	nop			; (mov r8, r8)
10007138:	200008cc 	.word	0x200008cc

1000713c <tud_cdc_n_write_flush>:
1000713c:	b5f8      	push	{r3, r4, r5, r6, r7, lr}
1000713e:	0005      	movs	r5, r0
10007140:	f7fe ff2c 	bl	10005f9c <tud_mounted>
10007144:	2800      	cmp	r0, #0
10007146:	d101      	bne.n	1000714c <tud_cdc_n_write_flush+0x10>
10007148:	2000      	movs	r0, #0
1000714a:	bdf8      	pop	{r3, r4, r5, r6, r7, pc}
1000714c:	f7fe ff2e 	bl	10005fac <tud_suspended>
10007150:	2800      	cmp	r0, #0
10007152:	d1f9      	bne.n	10007148 <tud_cdc_n_write_flush+0xc>
10007154:	24b6      	movs	r4, #182	; 0xb6
10007156:	00a4      	lsls	r4, r4, #2
10007158:	4365      	muls	r5, r4
1000715a:	002e      	movs	r6, r5
1000715c:	4f14      	ldr	r7, [pc, #80]	; (100071b0 <tud_cdc_n_write_flush+0x74>)
1000715e:	362c      	adds	r6, #44	; 0x2c
10007160:	19f6      	adds	r6, r6, r7
10007162:	0030      	movs	r0, r6
10007164:	f000 fad0 	bl	10007708 <tu_fifo_count>
10007168:	2800      	cmp	r0, #0
1000716a:	d0ed      	beq.n	10007148 <tud_cdc_n_write_flush+0xc>
1000716c:	197c      	adds	r4, r7, r5
1000716e:	78a1      	ldrb	r1, [r4, #2]
10007170:	2000      	movs	r0, #0
10007172:	f7ff fdb7 	bl	10006ce4 <usbd_edpt_claim>
10007176:	2800      	cmp	r0, #0
10007178:	d0e6      	beq.n	10007148 <tud_cdc_n_write_flush+0xc>
1000717a:	23a6      	movs	r3, #166	; 0xa6
1000717c:	009b      	lsls	r3, r3, #2
1000717e:	469c      	mov	ip, r3
10007180:	4465      	add	r5, ip
10007182:	19ed      	adds	r5, r5, r7
10007184:	0029      	movs	r1, r5
10007186:	0030      	movs	r0, r6
10007188:	2240      	movs	r2, #64	; 0x40
1000718a:	f000 fb35 	bl	100077f8 <tu_fifo_read_n>
1000718e:	78a1      	ldrb	r1, [r4, #2]
10007190:	1e06      	subs	r6, r0, #0
10007192:	d008      	beq.n	100071a6 <tud_cdc_n_write_flush+0x6a>
10007194:	0003      	movs	r3, r0
10007196:	002a      	movs	r2, r5
10007198:	2000      	movs	r0, #0
1000719a:	f7ff fdf7 	bl	10006d8c <usbd_edpt_xfer>
1000719e:	2800      	cmp	r0, #0
100071a0:	d0d2      	beq.n	10007148 <tud_cdc_n_write_flush+0xc>
100071a2:	0030      	movs	r0, r6
100071a4:	e7d1      	b.n	1000714a <tud_cdc_n_write_flush+0xe>
100071a6:	2000      	movs	r0, #0
100071a8:	f7ff fdca 	bl	10006d40 <usbd_edpt_release>
100071ac:	e7cc      	b.n	10007148 <tud_cdc_n_write_flush+0xc>
100071ae:	46c0      	nop			; (mov r8, r8)
100071b0:	200008cc 	.word	0x200008cc

100071b4 <tud_cdc_n_write_available>:
100071b4:	0003      	movs	r3, r0
100071b6:	20b6      	movs	r0, #182	; 0xb6
100071b8:	0080      	lsls	r0, r0, #2
100071ba:	4358      	muls	r0, r3
100071bc:	b510      	push	{r4, lr}
100071be:	4b03      	ldr	r3, [pc, #12]	; (100071cc <tud_cdc_n_write_available+0x18>)
100071c0:	302c      	adds	r0, #44	; 0x2c
100071c2:	18c0      	adds	r0, r0, r3
100071c4:	f000 faba 	bl	1000773c <tu_fifo_remaining>
100071c8:	bd10      	pop	{r4, pc}
100071ca:	46c0      	nop			; (mov r8, r8)
100071cc:	200008cc 	.word	0x200008cc

100071d0 <cdcd_init>:
100071d0:	22b6      	movs	r2, #182	; 0xb6
100071d2:	b5f0      	push	{r4, r5, r6, r7, lr}
100071d4:	4c1b      	ldr	r4, [pc, #108]	; (10007244 <cdcd_init+0x74>)
100071d6:	b083      	sub	sp, #12
100071d8:	0092      	lsls	r2, r2, #2
100071da:	2100      	movs	r1, #0
100071dc:	0020      	movs	r0, r4
100071de:	f7fd fe75 	bl	10004ecc <__wrap_memset>
100071e2:	23ff      	movs	r3, #255	; 0xff
100071e4:	7163      	strb	r3, [r4, #5]
100071e6:	4b18      	ldr	r3, [pc, #96]	; (10007248 <cdcd_init+0x78>)
100071e8:	2680      	movs	r6, #128	; 0x80
100071ea:	2500      	movs	r5, #0
100071ec:	80e3      	strh	r3, [r4, #6]
100071ee:	2701      	movs	r7, #1
100071f0:	2308      	movs	r3, #8
100071f2:	0021      	movs	r1, r4
100071f4:	0020      	movs	r0, r4
100071f6:	0076      	lsls	r6, r6, #1
100071f8:	7323      	strb	r3, [r4, #12]
100071fa:	8127      	strh	r7, [r4, #8]
100071fc:	0032      	movs	r2, r6
100071fe:	3148      	adds	r1, #72	; 0x48
10007200:	9500      	str	r5, [sp, #0]
10007202:	3b07      	subs	r3, #7
10007204:	3010      	adds	r0, #16
10007206:	f000 fa43 	bl	10007690 <tu_fifo_config>
1000720a:	0021      	movs	r1, r4
1000720c:	0020      	movs	r0, r4
1000720e:	3149      	adds	r1, #73	; 0x49
10007210:	0032      	movs	r2, r6
10007212:	31ff      	adds	r1, #255	; 0xff
10007214:	9700      	str	r7, [sp, #0]
10007216:	2301      	movs	r3, #1
10007218:	302c      	adds	r0, #44	; 0x2c
1000721a:	f000 fa39 	bl	10007690 <tu_fifo_config>
1000721e:	2392      	movs	r3, #146	; 0x92
10007220:	009b      	lsls	r3, r3, #2
10007222:	18e6      	adds	r6, r4, r3
10007224:	0030      	movs	r0, r6
10007226:	f7fd f99d 	bl	10004564 <mutex_init>
1000722a:	2394      	movs	r3, #148	; 0x94
1000722c:	009b      	lsls	r3, r3, #2
1000722e:	62a6      	str	r6, [r4, #40]	; 0x28
10007230:	18e6      	adds	r6, r4, r3
10007232:	6265      	str	r5, [r4, #36]	; 0x24
10007234:	0030      	movs	r0, r6
10007236:	f7fd f995 	bl	10004564 <mutex_init>
1000723a:	6426      	str	r6, [r4, #64]	; 0x40
1000723c:	6465      	str	r5, [r4, #68]	; 0x44
1000723e:	b003      	add	sp, #12
10007240:	bdf0      	pop	{r4, r5, r6, r7, pc}
10007242:	46c0      	nop			; (mov r8, r8)
10007244:	200008cc 	.word	0x200008cc
10007248:	ffffc200 	.word	0xffffc200

1000724c <cdcd_reset>:
1000724c:	b510      	push	{r4, lr}
1000724e:	4c09      	ldr	r4, [pc, #36]	; (10007274 <cdcd_reset+0x28>)
10007250:	2205      	movs	r2, #5
10007252:	2100      	movs	r1, #0
10007254:	0020      	movs	r0, r4
10007256:	f7fd fe39 	bl	10004ecc <__wrap_memset>
1000725a:	0020      	movs	r0, r4
1000725c:	342c      	adds	r4, #44	; 0x2c
1000725e:	3010      	adds	r0, #16
10007260:	f000 fbf6 	bl	10007a50 <tu_fifo_clear>
10007264:	0020      	movs	r0, r4
10007266:	f000 fbf3 	bl	10007a50 <tu_fifo_clear>
1000726a:	2101      	movs	r1, #1
1000726c:	0020      	movs	r0, r4
1000726e:	f000 fc15 	bl	10007a9c <tu_fifo_set_overwritable>
10007272:	bd10      	pop	{r4, pc}
10007274:	200008cc 	.word	0x200008cc

10007278 <cdcd_open>:
10007278:	b5f0      	push	{r4, r5, r6, r7, lr}
1000727a:	794b      	ldrb	r3, [r1, #5]
1000727c:	b083      	sub	sp, #12
1000727e:	0006      	movs	r6, r0
10007280:	2b02      	cmp	r3, #2
10007282:	d003      	beq.n	1000728c <cdcd_open+0x14>
10007284:	2500      	movs	r5, #0
10007286:	0028      	movs	r0, r5
10007288:	b003      	add	sp, #12
1000728a:	bdf0      	pop	{r4, r5, r6, r7, pc}
1000728c:	798b      	ldrb	r3, [r1, #6]
1000728e:	2b02      	cmp	r3, #2
10007290:	d1f8      	bne.n	10007284 <cdcd_open+0xc>
10007292:	4f2f      	ldr	r7, [pc, #188]	; (10007350 <cdcd_open+0xd8>)
10007294:	78bb      	ldrb	r3, [r7, #2]
10007296:	2b00      	cmp	r3, #0
10007298:	d1f4      	bne.n	10007284 <cdcd_open+0xc>
1000729a:	788b      	ldrb	r3, [r1, #2]
1000729c:	2509      	movs	r5, #9
1000729e:	703b      	strb	r3, [r7, #0]
100072a0:	780c      	ldrb	r4, [r1, #0]
100072a2:	190c      	adds	r4, r1, r4
100072a4:	7863      	ldrb	r3, [r4, #1]
100072a6:	2b24      	cmp	r3, #36	; 0x24
100072a8:	d10b      	bne.n	100072c2 <cdcd_open+0x4a>
100072aa:	2a08      	cmp	r2, #8
100072ac:	d802      	bhi.n	100072b4 <cdcd_open+0x3c>
100072ae:	e01f      	b.n	100072f0 <cdcd_open+0x78>
100072b0:	42aa      	cmp	r2, r5
100072b2:	d31d      	bcc.n	100072f0 <cdcd_open+0x78>
100072b4:	7823      	ldrb	r3, [r4, #0]
100072b6:	18e4      	adds	r4, r4, r3
100072b8:	18ed      	adds	r5, r5, r3
100072ba:	7863      	ldrb	r3, [r4, #1]
100072bc:	b2ad      	uxth	r5, r5
100072be:	2b24      	cmp	r3, #36	; 0x24
100072c0:	d0f6      	beq.n	100072b0 <cdcd_open+0x38>
100072c2:	2b05      	cmp	r3, #5
100072c4:	d02c      	beq.n	10007320 <cdcd_open+0xa8>
100072c6:	2b04      	cmp	r3, #4
100072c8:	d112      	bne.n	100072f0 <cdcd_open+0x78>
100072ca:	7963      	ldrb	r3, [r4, #5]
100072cc:	2b0a      	cmp	r3, #10
100072ce:	d10f      	bne.n	100072f0 <cdcd_open+0x78>
100072d0:	4b20      	ldr	r3, [pc, #128]	; (10007354 <cdcd_open+0xdc>)
100072d2:	7827      	ldrb	r7, [r4, #0]
100072d4:	9301      	str	r3, [sp, #4]
100072d6:	3301      	adds	r3, #1
100072d8:	9300      	str	r3, [sp, #0]
100072da:	19e1      	adds	r1, r4, r7
100072dc:	2302      	movs	r3, #2
100072de:	2202      	movs	r2, #2
100072e0:	0030      	movs	r0, r6
100072e2:	f7ff fc95 	bl	10006c10 <usbd_open_edpt_pair>
100072e6:	2800      	cmp	r0, #0
100072e8:	d0cc      	beq.n	10007284 <cdcd_open+0xc>
100072ea:	350e      	adds	r5, #14
100072ec:	19ed      	adds	r5, r5, r7
100072ee:	b2ad      	uxth	r5, r5
100072f0:	4c19      	ldr	r4, [pc, #100]	; (10007358 <cdcd_open+0xe0>)
100072f2:	0020      	movs	r0, r4
100072f4:	f000 fa22 	bl	1000773c <tu_fifo_remaining>
100072f8:	283f      	cmp	r0, #63	; 0x3f
100072fa:	d9c4      	bls.n	10007286 <cdcd_open+0xe>
100072fc:	0026      	movs	r6, r4
100072fe:	3e10      	subs	r6, #16
10007300:	78f1      	ldrb	r1, [r6, #3]
10007302:	2000      	movs	r0, #0
10007304:	f7ff fcee 	bl	10006ce4 <usbd_edpt_claim>
10007308:	2800      	cmp	r0, #0
1000730a:	d0bc      	beq.n	10007286 <cdcd_open+0xe>
1000730c:	0020      	movs	r0, r4
1000730e:	f000 fa15 	bl	1000773c <tu_fifo_remaining>
10007312:	283f      	cmp	r0, #63	; 0x3f
10007314:	d812      	bhi.n	1000733c <cdcd_open+0xc4>
10007316:	78f1      	ldrb	r1, [r6, #3]
10007318:	2000      	movs	r0, #0
1000731a:	f7ff fd11 	bl	10006d40 <usbd_edpt_release>
1000731e:	e7b2      	b.n	10007286 <cdcd_open+0xe>
10007320:	0021      	movs	r1, r4
10007322:	0030      	movs	r0, r6
10007324:	f7ff fcc6 	bl	10006cb4 <usbd_edpt_open>
10007328:	2800      	cmp	r0, #0
1000732a:	d0ab      	beq.n	10007284 <cdcd_open+0xc>
1000732c:	78a3      	ldrb	r3, [r4, #2]
1000732e:	707b      	strb	r3, [r7, #1]
10007330:	7823      	ldrb	r3, [r4, #0]
10007332:	18ed      	adds	r5, r5, r3
10007334:	18e4      	adds	r4, r4, r3
10007336:	b2ad      	uxth	r5, r5
10007338:	7863      	ldrb	r3, [r4, #1]
1000733a:	e7c4      	b.n	100072c6 <cdcd_open+0x4e>
1000733c:	2392      	movs	r3, #146	; 0x92
1000733e:	009b      	lsls	r3, r3, #2
10007340:	18e2      	adds	r2, r4, r3
10007342:	78f1      	ldrb	r1, [r6, #3]
10007344:	2340      	movs	r3, #64	; 0x40
10007346:	2000      	movs	r0, #0
10007348:	f7ff fd20 	bl	10006d8c <usbd_edpt_xfer>
1000734c:	e79b      	b.n	10007286 <cdcd_open+0xe>
1000734e:	46c0      	nop			; (mov r8, r8)
10007350:	200008cc 	.word	0x200008cc
10007354:	200008ce 	.word	0x200008ce
10007358:	200008dc 	.word	0x200008dc

1000735c <cdcd_control_xfer_cb>:
1000735c:	b5f8      	push	{r3, r4, r5, r6, r7, lr}
1000735e:	2360      	movs	r3, #96	; 0x60
10007360:	0014      	movs	r4, r2
10007362:	7812      	ldrb	r2, [r2, #0]
10007364:	4013      	ands	r3, r2
10007366:	2200      	movs	r2, #0
10007368:	2b20      	cmp	r3, #32
1000736a:	d001      	beq.n	10007370 <cdcd_control_xfer_cb+0x14>
1000736c:	0010      	movs	r0, r2
1000736e:	bdf8      	pop	{r3, r4, r5, r6, r7, pc}
10007370:	4d2e      	ldr	r5, [pc, #184]	; (1000742c <cdcd_control_xfer_cb+0xd0>)
10007372:	7963      	ldrb	r3, [r4, #5]
10007374:	7927      	ldrb	r7, [r4, #4]
10007376:	782e      	ldrb	r6, [r5, #0]
10007378:	021b      	lsls	r3, r3, #8
1000737a:	433b      	orrs	r3, r7
1000737c:	429e      	cmp	r6, r3
1000737e:	d1f5      	bne.n	1000736c <cdcd_control_xfer_cb+0x10>
10007380:	7863      	ldrb	r3, [r4, #1]
10007382:	2b21      	cmp	r3, #33	; 0x21
10007384:	d043      	beq.n	1000740e <cdcd_control_xfer_cb+0xb2>
10007386:	d909      	bls.n	1000739c <cdcd_control_xfer_cb+0x40>
10007388:	2b22      	cmp	r3, #34	; 0x22
1000738a:	d024      	beq.n	100073d6 <cdcd_control_xfer_cb+0x7a>
1000738c:	2b23      	cmp	r3, #35	; 0x23
1000738e:	d114      	bne.n	100073ba <cdcd_control_xfer_cb+0x5e>
10007390:	2900      	cmp	r1, #0
10007392:	d045      	beq.n	10007420 <cdcd_control_xfer_cb+0xc4>
10007394:	2902      	cmp	r1, #2
10007396:	d012      	beq.n	100073be <cdcd_control_xfer_cb+0x62>
10007398:	2201      	movs	r2, #1
1000739a:	e7e7      	b.n	1000736c <cdcd_control_xfer_cb+0x10>
1000739c:	2b20      	cmp	r3, #32
1000739e:	d10c      	bne.n	100073ba <cdcd_control_xfer_cb+0x5e>
100073a0:	2900      	cmp	r1, #0
100073a2:	d036      	beq.n	10007412 <cdcd_control_xfer_cb+0xb6>
100073a4:	2902      	cmp	r1, #2
100073a6:	d1f7      	bne.n	10007398 <cdcd_control_xfer_cb+0x3c>
100073a8:	4b21      	ldr	r3, [pc, #132]	; (10007430 <cdcd_control_xfer_cb+0xd4>)
100073aa:	2b00      	cmp	r3, #0
100073ac:	d0f4      	beq.n	10007398 <cdcd_control_xfer_cb+0x3c>
100073ae:	1da9      	adds	r1, r5, #6
100073b0:	2000      	movs	r0, #0
100073b2:	f7fd ff85 	bl	100052c0 <tud_cdc_line_coding_cb>
100073b6:	2201      	movs	r2, #1
100073b8:	e7d8      	b.n	1000736c <cdcd_control_xfer_cb+0x10>
100073ba:	2200      	movs	r2, #0
100073bc:	e7d6      	b.n	1000736c <cdcd_control_xfer_cb+0x10>
100073be:	4b1d      	ldr	r3, [pc, #116]	; (10007434 <cdcd_control_xfer_cb+0xd8>)
100073c0:	2b00      	cmp	r3, #0
100073c2:	d0e9      	beq.n	10007398 <cdcd_control_xfer_cb+0x3c>
100073c4:	78e1      	ldrb	r1, [r4, #3]
100073c6:	78a3      	ldrb	r3, [r4, #2]
100073c8:	0209      	lsls	r1, r1, #8
100073ca:	4319      	orrs	r1, r3
100073cc:	2000      	movs	r0, #0
100073ce:	e000      	b.n	100073d2 <cdcd_control_xfer_cb+0x76>
100073d0:	bf00      	nop
100073d2:	2201      	movs	r2, #1
100073d4:	e7ca      	b.n	1000736c <cdcd_control_xfer_cb+0x10>
100073d6:	2900      	cmp	r1, #0
100073d8:	d022      	beq.n	10007420 <cdcd_control_xfer_cb+0xc4>
100073da:	2902      	cmp	r1, #2
100073dc:	d1dc      	bne.n	10007398 <cdcd_control_xfer_cb+0x3c>
100073de:	2601      	movs	r6, #1
100073e0:	78a1      	ldrb	r1, [r4, #2]
100073e2:	78e4      	ldrb	r4, [r4, #3]
100073e4:	0028      	movs	r0, r5
100073e6:	0224      	lsls	r4, r4, #8
100073e8:	430c      	orrs	r4, r1
100073ea:	0031      	movs	r1, r6
100073ec:	712c      	strb	r4, [r5, #4]
100073ee:	43a1      	bics	r1, r4
100073f0:	302c      	adds	r0, #44	; 0x2c
100073f2:	f000 fb53 	bl	10007a9c <tu_fifo_set_overwritable>
100073f6:	4b10      	ldr	r3, [pc, #64]	; (10007438 <cdcd_control_xfer_cb+0xdc>)
100073f8:	2b00      	cmp	r3, #0
100073fa:	d0cd      	beq.n	10007398 <cdcd_control_xfer_cb+0x3c>
100073fc:	0031      	movs	r1, r6
100073fe:	0862      	lsrs	r2, r4, #1
10007400:	4032      	ands	r2, r6
10007402:	4021      	ands	r1, r4
10007404:	2000      	movs	r0, #0
10007406:	e000      	b.n	1000740a <cdcd_control_xfer_cb+0xae>
10007408:	bf00      	nop
1000740a:	2201      	movs	r2, #1
1000740c:	e7ae      	b.n	1000736c <cdcd_control_xfer_cb+0x10>
1000740e:	2900      	cmp	r1, #0
10007410:	d1c2      	bne.n	10007398 <cdcd_control_xfer_cb+0x3c>
10007412:	4a0a      	ldr	r2, [pc, #40]	; (1000743c <cdcd_control_xfer_cb+0xe0>)
10007414:	2307      	movs	r3, #7
10007416:	0021      	movs	r1, r4
10007418:	f7ff fcf4 	bl	10006e04 <tud_control_xfer>
1000741c:	2201      	movs	r2, #1
1000741e:	e7a5      	b.n	1000736c <cdcd_control_xfer_cb+0x10>
10007420:	0021      	movs	r1, r4
10007422:	f7ff fcd7 	bl	10006dd4 <tud_control_status>
10007426:	2201      	movs	r2, #1
10007428:	e7a0      	b.n	1000736c <cdcd_control_xfer_cb+0x10>
1000742a:	46c0      	nop			; (mov r8, r8)
1000742c:	200008cc 	.word	0x200008cc
10007430:	100052c1 	.word	0x100052c1
	...
1000743c:	200008d2 	.word	0x200008d2

10007440 <cdcd_xfer_cb>:
10007440:	b5f8      	push	{r3, r4, r5, r6, r7, lr}
10007442:	4647      	mov	r7, r8
10007444:	46ce      	mov	lr, r9
10007446:	b580      	push	{r7, lr}
10007448:	4c5d      	ldr	r4, [pc, #372]	; (100075c0 <cdcd_xfer_cb+0x180>)
1000744a:	001e      	movs	r6, r3
1000744c:	78e3      	ldrb	r3, [r4, #3]
1000744e:	4680      	mov	r8, r0
10007450:	000d      	movs	r5, r1
10007452:	428b      	cmp	r3, r1
10007454:	d163      	bne.n	1000751e <cdcd_xfer_cb+0xde>
10007456:	2396      	movs	r3, #150	; 0x96
10007458:	0027      	movs	r7, r4
1000745a:	009b      	lsls	r3, r3, #2
1000745c:	3710      	adds	r7, #16
1000745e:	18e1      	adds	r1, r4, r3
10007460:	b2b2      	uxth	r2, r6
10007462:	0038      	movs	r0, r7
10007464:	f000 fa80 	bl	10007968 <tu_fifo_write_n>
10007468:	4b56      	ldr	r3, [pc, #344]	; (100075c4 <cdcd_xfer_cb+0x184>)
1000746a:	2b00      	cmp	r3, #0
1000746c:	d01c      	beq.n	100074a8 <cdcd_xfer_cb+0x68>
1000746e:	7963      	ldrb	r3, [r4, #5]
10007470:	2bff      	cmp	r3, #255	; 0xff
10007472:	d019      	beq.n	100074a8 <cdcd_xfer_cb+0x68>
10007474:	2e00      	cmp	r6, #0
10007476:	d017      	beq.n	100074a8 <cdcd_xfer_cb+0x68>
10007478:	2200      	movs	r2, #0
1000747a:	4691      	mov	r9, r2
1000747c:	e005      	b.n	1000748a <cdcd_xfer_cb+0x4a>
1000747e:	2301      	movs	r3, #1
10007480:	469c      	mov	ip, r3
10007482:	44e1      	add	r9, ip
10007484:	454e      	cmp	r6, r9
10007486:	d00f      	beq.n	100074a8 <cdcd_xfer_cb+0x68>
10007488:	7963      	ldrb	r3, [r4, #5]
1000748a:	2296      	movs	r2, #150	; 0x96
1000748c:	0092      	lsls	r2, r2, #2
1000748e:	444a      	add	r2, r9
10007490:	5ca2      	ldrb	r2, [r4, r2]
10007492:	429a      	cmp	r2, r3
10007494:	d1f3      	bne.n	1000747e <cdcd_xfer_cb+0x3e>
10007496:	0038      	movs	r0, r7
10007498:	f000 f948 	bl	1000772c <tu_fifo_empty>
1000749c:	2800      	cmp	r0, #0
1000749e:	d1ee      	bne.n	1000747e <cdcd_xfer_cb+0x3e>
100074a0:	7961      	ldrb	r1, [r4, #5]
100074a2:	e000      	b.n	100074a6 <cdcd_xfer_cb+0x66>
100074a4:	bf00      	nop
100074a6:	e7ea      	b.n	1000747e <cdcd_xfer_cb+0x3e>
100074a8:	4b47      	ldr	r3, [pc, #284]	; (100075c8 <cdcd_xfer_cb+0x188>)
100074aa:	4c48      	ldr	r4, [pc, #288]	; (100075cc <cdcd_xfer_cb+0x18c>)
100074ac:	2b00      	cmp	r3, #0
100074ae:	d004      	beq.n	100074ba <cdcd_xfer_cb+0x7a>
100074b0:	0020      	movs	r0, r4
100074b2:	f000 f93b 	bl	1000772c <tu_fifo_empty>
100074b6:	2800      	cmp	r0, #0
100074b8:	d05b      	beq.n	10007572 <cdcd_xfer_cb+0x132>
100074ba:	0020      	movs	r0, r4
100074bc:	f000 f93e 	bl	1000773c <tu_fifo_remaining>
100074c0:	283f      	cmp	r0, #63	; 0x3f
100074c2:	d859      	bhi.n	10007578 <cdcd_xfer_cb+0x138>
100074c4:	3c10      	subs	r4, #16
100074c6:	78a3      	ldrb	r3, [r4, #2]
100074c8:	42ab      	cmp	r3, r5
100074ca:	d005      	beq.n	100074d8 <cdcd_xfer_cb+0x98>
100074cc:	2401      	movs	r4, #1
100074ce:	0020      	movs	r0, r4
100074d0:	bc0c      	pop	{r2, r3}
100074d2:	4690      	mov	r8, r2
100074d4:	4699      	mov	r9, r3
100074d6:	bdf8      	pop	{r3, r4, r5, r6, r7, pc}
100074d8:	4b3d      	ldr	r3, [pc, #244]	; (100075d0 <cdcd_xfer_cb+0x190>)
100074da:	2b00      	cmp	r3, #0
100074dc:	d002      	beq.n	100074e4 <cdcd_xfer_cb+0xa4>
100074de:	2000      	movs	r0, #0
100074e0:	e000      	b.n	100074e4 <cdcd_xfer_cb+0xa4>
100074e2:	bf00      	nop
100074e4:	f7fe fd5a 	bl	10005f9c <tud_mounted>
100074e8:	2800      	cmp	r0, #0
100074ea:	d11d      	bne.n	10007528 <cdcd_xfer_cb+0xe8>
100074ec:	4c39      	ldr	r4, [pc, #228]	; (100075d4 <cdcd_xfer_cb+0x194>)
100074ee:	0020      	movs	r0, r4
100074f0:	f000 f90a 	bl	10007708 <tu_fifo_count>
100074f4:	2800      	cmp	r0, #0
100074f6:	d1e9      	bne.n	100074cc <cdcd_xfer_cb+0x8c>
100074f8:	2e00      	cmp	r6, #0
100074fa:	d0e7      	beq.n	100074cc <cdcd_xfer_cb+0x8c>
100074fc:	06b3      	lsls	r3, r6, #26
100074fe:	d1e5      	bne.n	100074cc <cdcd_xfer_cb+0x8c>
10007500:	3c2c      	subs	r4, #44	; 0x2c
10007502:	78a1      	ldrb	r1, [r4, #2]
10007504:	4640      	mov	r0, r8
10007506:	f7ff fbed 	bl	10006ce4 <usbd_edpt_claim>
1000750a:	0025      	movs	r5, r4
1000750c:	1e04      	subs	r4, r0, #0
1000750e:	d0dd      	beq.n	100074cc <cdcd_xfer_cb+0x8c>
10007510:	78a9      	ldrb	r1, [r5, #2]
10007512:	2300      	movs	r3, #0
10007514:	2200      	movs	r2, #0
10007516:	4640      	mov	r0, r8
10007518:	f7ff fc38 	bl	10006d8c <usbd_edpt_xfer>
1000751c:	e7d7      	b.n	100074ce <cdcd_xfer_cb+0x8e>
1000751e:	78a3      	ldrb	r3, [r4, #2]
10007520:	428b      	cmp	r3, r1
10007522:	d0d9      	beq.n	100074d8 <cdcd_xfer_cb+0x98>
10007524:	2400      	movs	r4, #0
10007526:	e7d2      	b.n	100074ce <cdcd_xfer_cb+0x8e>
10007528:	f7fe fd40 	bl	10005fac <tud_suspended>
1000752c:	4c29      	ldr	r4, [pc, #164]	; (100075d4 <cdcd_xfer_cb+0x194>)
1000752e:	2800      	cmp	r0, #0
10007530:	d1dd      	bne.n	100074ee <cdcd_xfer_cb+0xae>
10007532:	0020      	movs	r0, r4
10007534:	f000 f8e8 	bl	10007708 <tu_fifo_count>
10007538:	2800      	cmp	r0, #0
1000753a:	d0d8      	beq.n	100074ee <cdcd_xfer_cb+0xae>
1000753c:	0025      	movs	r5, r4
1000753e:	3d2c      	subs	r5, #44	; 0x2c
10007540:	78a9      	ldrb	r1, [r5, #2]
10007542:	2000      	movs	r0, #0
10007544:	f7ff fbce 	bl	10006ce4 <usbd_edpt_claim>
10007548:	2800      	cmp	r0, #0
1000754a:	d0d0      	beq.n	100074ee <cdcd_xfer_cb+0xae>
1000754c:	239b      	movs	r3, #155	; 0x9b
1000754e:	009b      	lsls	r3, r3, #2
10007550:	18e7      	adds	r7, r4, r3
10007552:	0039      	movs	r1, r7
10007554:	2240      	movs	r2, #64	; 0x40
10007556:	0020      	movs	r0, r4
10007558:	f000 f94e 	bl	100077f8 <tu_fifo_read_n>
1000755c:	78a9      	ldrb	r1, [r5, #2]
1000755e:	2800      	cmp	r0, #0
10007560:	d029      	beq.n	100075b6 <cdcd_xfer_cb+0x176>
10007562:	0003      	movs	r3, r0
10007564:	003a      	movs	r2, r7
10007566:	2000      	movs	r0, #0
10007568:	f7ff fc10 	bl	10006d8c <usbd_edpt_xfer>
1000756c:	2800      	cmp	r0, #0
1000756e:	d1ad      	bne.n	100074cc <cdcd_xfer_cb+0x8c>
10007570:	e7bd      	b.n	100074ee <cdcd_xfer_cb+0xae>
10007572:	e000      	b.n	10007576 <cdcd_xfer_cb+0x136>
10007574:	bf00      	nop
10007576:	e7a0      	b.n	100074ba <cdcd_xfer_cb+0x7a>
10007578:	0027      	movs	r7, r4
1000757a:	3f10      	subs	r7, #16
1000757c:	78f9      	ldrb	r1, [r7, #3]
1000757e:	2000      	movs	r0, #0
10007580:	f7ff fbb0 	bl	10006ce4 <usbd_edpt_claim>
10007584:	2800      	cmp	r0, #0
10007586:	d101      	bne.n	1000758c <cdcd_xfer_cb+0x14c>
10007588:	78bb      	ldrb	r3, [r7, #2]
1000758a:	e79d      	b.n	100074c8 <cdcd_xfer_cb+0x88>
1000758c:	0020      	movs	r0, r4
1000758e:	f000 f8d5 	bl	1000773c <tu_fifo_remaining>
10007592:	283f      	cmp	r0, #63	; 0x3f
10007594:	d805      	bhi.n	100075a2 <cdcd_xfer_cb+0x162>
10007596:	78f9      	ldrb	r1, [r7, #3]
10007598:	2000      	movs	r0, #0
1000759a:	f7ff fbd1 	bl	10006d40 <usbd_edpt_release>
1000759e:	78bb      	ldrb	r3, [r7, #2]
100075a0:	e792      	b.n	100074c8 <cdcd_xfer_cb+0x88>
100075a2:	2392      	movs	r3, #146	; 0x92
100075a4:	009b      	lsls	r3, r3, #2
100075a6:	18e2      	adds	r2, r4, r3
100075a8:	78f9      	ldrb	r1, [r7, #3]
100075aa:	2340      	movs	r3, #64	; 0x40
100075ac:	2000      	movs	r0, #0
100075ae:	f7ff fbed 	bl	10006d8c <usbd_edpt_xfer>
100075b2:	78bb      	ldrb	r3, [r7, #2]
100075b4:	e788      	b.n	100074c8 <cdcd_xfer_cb+0x88>
100075b6:	2000      	movs	r0, #0
100075b8:	f7ff fbc2 	bl	10006d40 <usbd_edpt_release>
100075bc:	e797      	b.n	100074ee <cdcd_xfer_cb+0xae>
100075be:	46c0      	nop			; (mov r8, r8)
100075c0:	200008cc 	.word	0x200008cc
	...
100075cc:	200008dc 	.word	0x200008dc
100075d0:	00000000 	.word	0x00000000
100075d4:	200008f8 	.word	0x200008f8

100075d8 <tusb_init>:
100075d8:	b510      	push	{r4, lr}
100075da:	2000      	movs	r0, #0
100075dc:	f7fe fcf4 	bl	10005fc8 <tud_init>
100075e0:	bd10      	pop	{r4, pc}
100075e2:	46c0      	nop			; (mov r8, r8)

100075e4 <tusb_inited>:
100075e4:	b510      	push	{r4, lr}
100075e6:	f7fe fce9 	bl	10005fbc <tud_inited>
100075ea:	bd10      	pop	{r4, pc}

100075ec <tu_edpt_validate>:
100075ec:	2307      	movs	r3, #7
100075ee:	b510      	push	{r4, lr}
100075f0:	7944      	ldrb	r4, [r0, #5]
100075f2:	7902      	ldrb	r2, [r0, #4]
100075f4:	4023      	ands	r3, r4
100075f6:	021b      	lsls	r3, r3, #8
100075f8:	431a      	orrs	r2, r3
100075fa:	78c3      	ldrb	r3, [r0, #3]
100075fc:	079b      	lsls	r3, r3, #30
100075fe:	0f9b      	lsrs	r3, r3, #30
10007600:	2b02      	cmp	r3, #2
10007602:	d01b      	beq.n	1000763c <tu_edpt_validate+0x50>
10007604:	d80d      	bhi.n	10007622 <tu_edpt_validate+0x36>
10007606:	2000      	movs	r0, #0
10007608:	2b01      	cmp	r3, #1
1000760a:	d109      	bne.n	10007620 <tu_edpt_validate+0x34>
1000760c:	3902      	subs	r1, #2
1000760e:	424b      	negs	r3, r1
10007610:	4159      	adcs	r1, r3
10007612:	4b12      	ldr	r3, [pc, #72]	; (1000765c <tu_edpt_validate+0x70>)
10007614:	2000      	movs	r0, #0
10007616:	469c      	mov	ip, r3
10007618:	4461      	add	r1, ip
1000761a:	4291      	cmp	r1, r2
1000761c:	4140      	adcs	r0, r0
1000761e:	b2c0      	uxtb	r0, r0
10007620:	bd10      	pop	{r4, pc}
10007622:	3902      	subs	r1, #2
10007624:	424b      	negs	r3, r1
10007626:	4159      	adcs	r1, r3
10007628:	23f0      	movs	r3, #240	; 0xf0
1000762a:	2000      	movs	r0, #0
1000762c:	4249      	negs	r1, r1
1000762e:	009b      	lsls	r3, r3, #2
10007630:	4019      	ands	r1, r3
10007632:	3140      	adds	r1, #64	; 0x40
10007634:	4291      	cmp	r1, r2
10007636:	4140      	adcs	r0, r0
10007638:	b2c0      	uxtb	r0, r0
1000763a:	e7f1      	b.n	10007620 <tu_edpt_validate+0x34>
1000763c:	2902      	cmp	r1, #2
1000763e:	d005      	beq.n	1000764c <tu_edpt_validate+0x60>
10007640:	2000      	movs	r0, #0
10007642:	2340      	movs	r3, #64	; 0x40
10007644:	4293      	cmp	r3, r2
10007646:	4140      	adcs	r0, r0
10007648:	b2c0      	uxtb	r0, r0
1000764a:	e7e9      	b.n	10007620 <tu_edpt_validate+0x34>
1000764c:	4b04      	ldr	r3, [pc, #16]	; (10007660 <tu_edpt_validate+0x74>)
1000764e:	469c      	mov	ip, r3
10007650:	4462      	add	r2, ip
10007652:	4250      	negs	r0, r2
10007654:	4150      	adcs	r0, r2
10007656:	b2c0      	uxtb	r0, r0
10007658:	e7e2      	b.n	10007620 <tu_edpt_validate+0x34>
1000765a:	46c0      	nop			; (mov r8, r8)
1000765c:	000003ff 	.word	0x000003ff
10007660:	fffffe00 	.word	0xfffffe00

10007664 <tu_edpt_bind_driver>:
10007664:	b5f0      	push	{r4, r5, r6, r7, lr}
10007666:	2400      	movs	r4, #0
10007668:	277f      	movs	r7, #127	; 0x7f
1000766a:	2a00      	cmp	r2, #0
1000766c:	d00f      	beq.n	1000768e <tu_edpt_bind_driver+0x2a>
1000766e:	784d      	ldrb	r5, [r1, #1]
10007670:	2d05      	cmp	r5, #5
10007672:	d106      	bne.n	10007682 <tu_edpt_bind_driver+0x1e>
10007674:	003d      	movs	r5, r7
10007676:	788e      	ldrb	r6, [r1, #2]
10007678:	4035      	ands	r5, r6
1000767a:	006d      	lsls	r5, r5, #1
1000767c:	09f6      	lsrs	r6, r6, #7
1000767e:	1945      	adds	r5, r0, r5
10007680:	55ab      	strb	r3, [r5, r6]
10007682:	780d      	ldrb	r5, [r1, #0]
10007684:	1964      	adds	r4, r4, r5
10007686:	b2a4      	uxth	r4, r4
10007688:	1949      	adds	r1, r1, r5
1000768a:	42a2      	cmp	r2, r4
1000768c:	d8ef      	bhi.n	1000766e <tu_edpt_bind_driver+0xa>
1000768e:	bdf0      	pop	{r4, r5, r6, r7, pc}

10007690 <tu_fifo_config>:
10007690:	b5f8      	push	{r3, r4, r5, r6, r7, lr}
10007692:	4647      	mov	r7, r8
10007694:	46ce      	mov	lr, r9
10007696:	b580      	push	{r7, lr}
10007698:	4698      	mov	r8, r3
1000769a:	ab08      	add	r3, sp, #32
1000769c:	781f      	ldrb	r7, [r3, #0]
1000769e:	2380      	movs	r3, #128	; 0x80
100076a0:	0004      	movs	r4, r0
100076a2:	4689      	mov	r9, r1
100076a4:	0015      	movs	r5, r2
100076a6:	021b      	lsls	r3, r3, #8
100076a8:	2600      	movs	r6, #0
100076aa:	429a      	cmp	r2, r3
100076ac:	d827      	bhi.n	100076fe <tu_fifo_config+0x6e>
100076ae:	6940      	ldr	r0, [r0, #20]
100076b0:	2800      	cmp	r0, #0
100076b2:	d003      	beq.n	100076bc <tu_fifo_config+0x2c>
100076b4:	2101      	movs	r1, #1
100076b6:	4249      	negs	r1, r1
100076b8:	f000 fcca 	bl	10008050 <__mutex_enter_timeout_ms_veneer>
100076bc:	69a0      	ldr	r0, [r4, #24]
100076be:	2800      	cmp	r0, #0
100076c0:	d003      	beq.n	100076ca <tu_fifo_config+0x3a>
100076c2:	2101      	movs	r1, #1
100076c4:	4249      	negs	r1, r1
100076c6:	f000 fcc3 	bl	10008050 <__mutex_enter_timeout_ms_veneer>
100076ca:	464b      	mov	r3, r9
100076cc:	6023      	str	r3, [r4, #0]
100076ce:	4643      	mov	r3, r8
100076d0:	80a5      	strh	r5, [r4, #4]
100076d2:	006d      	lsls	r5, r5, #1
100076d4:	b2ad      	uxth	r5, r5
100076d6:	80e3      	strh	r3, [r4, #6]
100076d8:	1e6b      	subs	r3, r5, #1
100076da:	81a3      	strh	r3, [r4, #12]
100076dc:	2300      	movs	r3, #0
100076de:	6960      	ldr	r0, [r4, #20]
100076e0:	426d      	negs	r5, r5
100076e2:	81e3      	strh	r3, [r4, #14]
100076e4:	7227      	strb	r7, [r4, #8]
100076e6:	8165      	strh	r5, [r4, #10]
100076e8:	8223      	strh	r3, [r4, #16]
100076ea:	2800      	cmp	r0, #0
100076ec:	d001      	beq.n	100076f2 <tu_fifo_config+0x62>
100076ee:	f000 fc97 	bl	10008020 <__mutex_exit_veneer>
100076f2:	69a0      	ldr	r0, [r4, #24]
100076f4:	2601      	movs	r6, #1
100076f6:	2800      	cmp	r0, #0
100076f8:	d001      	beq.n	100076fe <tu_fifo_config+0x6e>
100076fa:	f000 fc91 	bl	10008020 <__mutex_exit_veneer>
100076fe:	0030      	movs	r0, r6
10007700:	bc0c      	pop	{r2, r3}
10007702:	4690      	mov	r8, r2
10007704:	4699      	mov	r9, r3
10007706:	bdf8      	pop	{r3, r4, r5, r6, r7, pc}

10007708 <tu_fifo_count>:
10007708:	89c1      	ldrh	r1, [r0, #14]
1000770a:	8a02      	ldrh	r2, [r0, #16]
1000770c:	b289      	uxth	r1, r1
1000770e:	b292      	uxth	r2, r2
10007710:	1a8b      	subs	r3, r1, r2
10007712:	b29b      	uxth	r3, r3
10007714:	4291      	cmp	r1, r2
10007716:	d202      	bcs.n	1000771e <tu_fifo_count+0x16>
10007718:	8942      	ldrh	r2, [r0, #10]
1000771a:	1a9b      	subs	r3, r3, r2
1000771c:	b29b      	uxth	r3, r3
1000771e:	8882      	ldrh	r2, [r0, #4]
10007720:	1c10      	adds	r0, r2, #0
10007722:	429a      	cmp	r2, r3
10007724:	d900      	bls.n	10007728 <tu_fifo_count+0x20>
10007726:	1c18      	adds	r0, r3, #0
10007728:	b280      	uxth	r0, r0
1000772a:	4770      	bx	lr

1000772c <tu_fifo_empty>:
1000772c:	89c3      	ldrh	r3, [r0, #14]
1000772e:	8a00      	ldrh	r0, [r0, #16]
10007730:	1a18      	subs	r0, r3, r0
10007732:	4243      	negs	r3, r0
10007734:	4158      	adcs	r0, r3
10007736:	b2c0      	uxtb	r0, r0
10007738:	4770      	bx	lr
1000773a:	46c0      	nop			; (mov r8, r8)

1000773c <tu_fifo_remaining>:
1000773c:	b510      	push	{r4, lr}
1000773e:	89c4      	ldrh	r4, [r0, #14]
10007740:	8a01      	ldrh	r1, [r0, #16]
10007742:	b2a4      	uxth	r4, r4
10007744:	b289      	uxth	r1, r1
10007746:	1a63      	subs	r3, r4, r1
10007748:	8882      	ldrh	r2, [r0, #4]
1000774a:	b29b      	uxth	r3, r3
1000774c:	428c      	cmp	r4, r1
1000774e:	d202      	bcs.n	10007756 <tu_fifo_remaining+0x1a>
10007750:	8940      	ldrh	r0, [r0, #10]
10007752:	1a1b      	subs	r3, r3, r0
10007754:	b29b      	uxth	r3, r3
10007756:	1ad0      	subs	r0, r2, r3
10007758:	b280      	uxth	r0, r0
1000775a:	bd10      	pop	{r4, pc}

1000775c <tu_fifo_read>:
1000775c:	b570      	push	{r4, r5, r6, lr}
1000775e:	0004      	movs	r4, r0
10007760:	6980      	ldr	r0, [r0, #24]
10007762:	000d      	movs	r5, r1
10007764:	2800      	cmp	r0, #0
10007766:	d003      	beq.n	10007770 <tu_fifo_read+0x14>
10007768:	2101      	movs	r1, #1
1000776a:	4249      	negs	r1, r1
1000776c:	f000 fc70 	bl	10008050 <__mutex_enter_timeout_ms_veneer>
10007770:	89e0      	ldrh	r0, [r4, #14]
10007772:	8a21      	ldrh	r1, [r4, #16]
10007774:	b280      	uxth	r0, r0
10007776:	b289      	uxth	r1, r1
10007778:	1a42      	subs	r2, r0, r1
1000777a:	b292      	uxth	r2, r2
1000777c:	4288      	cmp	r0, r1
1000777e:	d202      	bcs.n	10007786 <tu_fifo_read+0x2a>
10007780:	8963      	ldrh	r3, [r4, #10]
10007782:	1ad2      	subs	r2, r2, r3
10007784:	b292      	uxth	r2, r2
10007786:	88a3      	ldrh	r3, [r4, #4]
10007788:	4293      	cmp	r3, r2
1000778a:	d208      	bcs.n	1000779e <tu_fifo_read+0x42>
1000778c:	1ac2      	subs	r2, r0, r3
1000778e:	b292      	uxth	r2, r2
10007790:	4298      	cmp	r0, r3
10007792:	d22d      	bcs.n	100077f0 <tu_fifo_read+0x94>
10007794:	8960      	ldrh	r0, [r4, #10]
10007796:	1a12      	subs	r2, r2, r0
10007798:	b292      	uxth	r2, r2
1000779a:	8222      	strh	r2, [r4, #16]
1000779c:	001a      	movs	r2, r3
1000779e:	2a00      	cmp	r2, #0
100077a0:	d102      	bne.n	100077a8 <tu_fifo_read+0x4c>
100077a2:	e01e      	b.n	100077e2 <tu_fifo_read+0x86>
100077a4:	1ac9      	subs	r1, r1, r3
100077a6:	b289      	uxth	r1, r1
100077a8:	428b      	cmp	r3, r1
100077aa:	d9fb      	bls.n	100077a4 <tu_fifo_read+0x48>
100077ac:	6823      	ldr	r3, [r4, #0]
100077ae:	88e2      	ldrh	r2, [r4, #6]
100077b0:	469c      	mov	ip, r3
100077b2:	4351      	muls	r1, r2
100077b4:	0028      	movs	r0, r5
100077b6:	4461      	add	r1, ip
100077b8:	f7fd fb8e 	bl	10004ed8 <__wrap___aeabi_memcpy>
100077bc:	8a22      	ldrh	r2, [r4, #16]
100077be:	2501      	movs	r5, #1
100077c0:	b292      	uxth	r2, r2
100077c2:	1c53      	adds	r3, r2, #1
100077c4:	b29b      	uxth	r3, r3
100077c6:	429a      	cmp	r2, r3
100077c8:	d90e      	bls.n	100077e8 <tu_fifo_read+0x8c>
100077ca:	2300      	movs	r3, #0
100077cc:	8962      	ldrh	r2, [r4, #10]
100077ce:	189b      	adds	r3, r3, r2
100077d0:	b29b      	uxth	r3, r3
100077d2:	69a0      	ldr	r0, [r4, #24]
100077d4:	8223      	strh	r3, [r4, #16]
100077d6:	2800      	cmp	r0, #0
100077d8:	d001      	beq.n	100077de <tu_fifo_read+0x82>
100077da:	f000 fc21 	bl	10008020 <__mutex_exit_veneer>
100077de:	0028      	movs	r0, r5
100077e0:	bd70      	pop	{r4, r5, r6, pc}
100077e2:	2500      	movs	r5, #0
100077e4:	8a23      	ldrh	r3, [r4, #16]
100077e6:	b29b      	uxth	r3, r3
100077e8:	89a2      	ldrh	r2, [r4, #12]
100077ea:	429a      	cmp	r2, r3
100077ec:	d2f1      	bcs.n	100077d2 <tu_fifo_read+0x76>
100077ee:	e7ed      	b.n	100077cc <tu_fifo_read+0x70>
100077f0:	89a0      	ldrh	r0, [r4, #12]
100077f2:	4290      	cmp	r0, r2
100077f4:	d2d1      	bcs.n	1000779a <tu_fifo_read+0x3e>
100077f6:	e7cd      	b.n	10007794 <tu_fifo_read+0x38>

100077f8 <tu_fifo_read_n>:
100077f8:	b5f8      	push	{r3, r4, r5, r6, r7, lr}
100077fa:	4647      	mov	r7, r8
100077fc:	46ce      	mov	lr, r9
100077fe:	0004      	movs	r4, r0
10007800:	6980      	ldr	r0, [r0, #24]
10007802:	b580      	push	{r7, lr}
10007804:	000e      	movs	r6, r1
10007806:	0017      	movs	r7, r2
10007808:	2800      	cmp	r0, #0
1000780a:	d003      	beq.n	10007814 <tu_fifo_read_n+0x1c>
1000780c:	2101      	movs	r1, #1
1000780e:	4249      	negs	r1, r1
10007810:	f000 fc1e 	bl	10008050 <__mutex_enter_timeout_ms_veneer>
10007814:	89e2      	ldrh	r2, [r4, #14]
10007816:	8a21      	ldrh	r1, [r4, #16]
10007818:	b292      	uxth	r2, r2
1000781a:	b289      	uxth	r1, r1
1000781c:	1a55      	subs	r5, r2, r1
1000781e:	b2ad      	uxth	r5, r5
10007820:	428a      	cmp	r2, r1
10007822:	d202      	bcs.n	1000782a <tu_fifo_read_n+0x32>
10007824:	8963      	ldrh	r3, [r4, #10]
10007826:	1aed      	subs	r5, r5, r3
10007828:	b2ad      	uxth	r5, r5
1000782a:	88a3      	ldrh	r3, [r4, #4]
1000782c:	42ab      	cmp	r3, r5
1000782e:	d20a      	bcs.n	10007846 <tu_fifo_read_n+0x4e>
10007830:	1ad1      	subs	r1, r2, r3
10007832:	b289      	uxth	r1, r1
10007834:	429a      	cmp	r2, r3
10007836:	d24c      	bcs.n	100078d2 <tu_fifo_read_n+0xda>
10007838:	8962      	ldrh	r2, [r4, #10]
1000783a:	1a89      	subs	r1, r1, r2
1000783c:	b289      	uxth	r1, r1
1000783e:	001d      	movs	r5, r3
10007840:	8221      	strh	r1, [r4, #16]
10007842:	8a21      	ldrh	r1, [r4, #16]
10007844:	b289      	uxth	r1, r1
10007846:	2d00      	cmp	r5, #0
10007848:	d047      	beq.n	100078da <tu_fifo_read_n+0xe2>
1000784a:	1c3a      	adds	r2, r7, #0
1000784c:	42af      	cmp	r7, r5
1000784e:	d83b      	bhi.n	100078c8 <tu_fifo_read_n+0xd0>
10007850:	b295      	uxth	r5, r2
10007852:	428b      	cmp	r3, r1
10007854:	d803      	bhi.n	1000785e <tu_fifo_read_n+0x66>
10007856:	1ac9      	subs	r1, r1, r3
10007858:	b289      	uxth	r1, r1
1000785a:	428b      	cmp	r3, r1
1000785c:	d9fb      	bls.n	10007856 <tu_fifo_read_n+0x5e>
1000785e:	1a5b      	subs	r3, r3, r1
10007860:	b29f      	uxth	r7, r3
10007862:	88e3      	ldrh	r3, [r4, #6]
10007864:	4359      	muls	r1, r3
10007866:	4698      	mov	r8, r3
10007868:	6823      	ldr	r3, [r4, #0]
1000786a:	469c      	mov	ip, r3
1000786c:	4461      	add	r1, ip
1000786e:	42bd      	cmp	r5, r7
10007870:	d924      	bls.n	100078bc <tu_fifo_read_n+0xc4>
10007872:	4640      	mov	r0, r8
10007874:	4378      	muls	r0, r7
10007876:	b283      	uxth	r3, r0
10007878:	001a      	movs	r2, r3
1000787a:	0030      	movs	r0, r6
1000787c:	4699      	mov	r9, r3
1000787e:	f7fd fb2b 	bl	10004ed8 <__wrap___aeabi_memcpy>
10007882:	4643      	mov	r3, r8
10007884:	0030      	movs	r0, r6
10007886:	1bea      	subs	r2, r5, r7
10007888:	435a      	muls	r2, r3
1000788a:	4448      	add	r0, r9
1000788c:	b292      	uxth	r2, r2
1000788e:	6821      	ldr	r1, [r4, #0]
10007890:	f7fd fb22 	bl	10004ed8 <__wrap___aeabi_memcpy>
10007894:	8a22      	ldrh	r2, [r4, #16]
10007896:	b292      	uxth	r2, r2
10007898:	1953      	adds	r3, r2, r5
1000789a:	b29b      	uxth	r3, r3
1000789c:	429a      	cmp	r2, r3
1000789e:	d91e      	bls.n	100078de <tu_fifo_read_n+0xe6>
100078a0:	8962      	ldrh	r2, [r4, #10]
100078a2:	189b      	adds	r3, r3, r2
100078a4:	b29b      	uxth	r3, r3
100078a6:	69a0      	ldr	r0, [r4, #24]
100078a8:	8223      	strh	r3, [r4, #16]
100078aa:	2800      	cmp	r0, #0
100078ac:	d001      	beq.n	100078b2 <tu_fifo_read_n+0xba>
100078ae:	f000 fbb7 	bl	10008020 <__mutex_exit_veneer>
100078b2:	0028      	movs	r0, r5
100078b4:	bc0c      	pop	{r2, r3}
100078b6:	4690      	mov	r8, r2
100078b8:	4699      	mov	r9, r3
100078ba:	bdf8      	pop	{r3, r4, r5, r6, r7, pc}
100078bc:	4642      	mov	r2, r8
100078be:	0030      	movs	r0, r6
100078c0:	436a      	muls	r2, r5
100078c2:	f7fd fb09 	bl	10004ed8 <__wrap___aeabi_memcpy>
100078c6:	e7e5      	b.n	10007894 <tu_fifo_read_n+0x9c>
100078c8:	1c2a      	adds	r2, r5, #0
100078ca:	b295      	uxth	r5, r2
100078cc:	428b      	cmp	r3, r1
100078ce:	d9c2      	bls.n	10007856 <tu_fifo_read_n+0x5e>
100078d0:	e7c5      	b.n	1000785e <tu_fifo_read_n+0x66>
100078d2:	89a2      	ldrh	r2, [r4, #12]
100078d4:	428a      	cmp	r2, r1
100078d6:	d2b2      	bcs.n	1000783e <tu_fifo_read_n+0x46>
100078d8:	e7ae      	b.n	10007838 <tu_fifo_read_n+0x40>
100078da:	8a23      	ldrh	r3, [r4, #16]
100078dc:	b29b      	uxth	r3, r3
100078de:	89a2      	ldrh	r2, [r4, #12]
100078e0:	429a      	cmp	r2, r3
100078e2:	d2e0      	bcs.n	100078a6 <tu_fifo_read_n+0xae>
100078e4:	e7dc      	b.n	100078a0 <tu_fifo_read_n+0xa8>
100078e6:	46c0      	nop			; (mov r8, r8)

100078e8 <tu_fifo_write>:
100078e8:	b5f8      	push	{r3, r4, r5, r6, r7, lr}
100078ea:	0004      	movs	r4, r0
100078ec:	6940      	ldr	r0, [r0, #20]
100078ee:	000e      	movs	r6, r1
100078f0:	2800      	cmp	r0, #0
100078f2:	d003      	beq.n	100078fc <tu_fifo_write+0x14>
100078f4:	2101      	movs	r1, #1
100078f6:	4249      	negs	r1, r1
100078f8:	f000 fbaa 	bl	10008050 <__mutex_enter_timeout_ms_veneer>
100078fc:	89e5      	ldrh	r5, [r4, #14]
100078fe:	8a23      	ldrh	r3, [r4, #16]
10007900:	b2ad      	uxth	r5, r5
10007902:	b29b      	uxth	r3, r3
10007904:	1aea      	subs	r2, r5, r3
10007906:	b292      	uxth	r2, r2
10007908:	42ab      	cmp	r3, r5
1000790a:	d902      	bls.n	10007912 <tu_fifo_write+0x2a>
1000790c:	8963      	ldrh	r3, [r4, #10]
1000790e:	1ad2      	subs	r2, r2, r3
10007910:	b292      	uxth	r2, r2
10007912:	88a3      	ldrh	r3, [r4, #4]
10007914:	4293      	cmp	r3, r2
10007916:	d022      	beq.n	1000795e <tu_fifo_write+0x76>
10007918:	0028      	movs	r0, r5
1000791a:	429d      	cmp	r5, r3
1000791c:	d303      	bcc.n	10007926 <tu_fifo_write+0x3e>
1000791e:	1ac0      	subs	r0, r0, r3
10007920:	b280      	uxth	r0, r0
10007922:	4283      	cmp	r3, r0
10007924:	d9fb      	bls.n	1000791e <tu_fifo_write+0x36>
10007926:	6823      	ldr	r3, [r4, #0]
10007928:	88e2      	ldrh	r2, [r4, #6]
1000792a:	469c      	mov	ip, r3
1000792c:	4350      	muls	r0, r2
1000792e:	0031      	movs	r1, r6
10007930:	4460      	add	r0, ip
10007932:	f7fd fad1 	bl	10004ed8 <__wrap___aeabi_memcpy>
10007936:	1c6b      	adds	r3, r5, #1
10007938:	b29b      	uxth	r3, r3
1000793a:	429d      	cmp	r5, r3
1000793c:	d90b      	bls.n	10007956 <tu_fifo_write+0x6e>
1000793e:	8962      	ldrh	r2, [r4, #10]
10007940:	189b      	adds	r3, r3, r2
10007942:	b29b      	uxth	r3, r3
10007944:	6960      	ldr	r0, [r4, #20]
10007946:	81e3      	strh	r3, [r4, #14]
10007948:	2701      	movs	r7, #1
1000794a:	2800      	cmp	r0, #0
1000794c:	d001      	beq.n	10007952 <tu_fifo_write+0x6a>
1000794e:	f000 fb67 	bl	10008020 <__mutex_exit_veneer>
10007952:	0038      	movs	r0, r7
10007954:	bdf8      	pop	{r3, r4, r5, r6, r7, pc}
10007956:	89a2      	ldrh	r2, [r4, #12]
10007958:	429a      	cmp	r2, r3
1000795a:	d2f3      	bcs.n	10007944 <tu_fifo_write+0x5c>
1000795c:	e7ef      	b.n	1000793e <tu_fifo_write+0x56>
1000795e:	7a27      	ldrb	r7, [r4, #8]
10007960:	2f00      	cmp	r7, #0
10007962:	d1d9      	bne.n	10007918 <tu_fifo_write+0x30>
10007964:	e7f5      	b.n	10007952 <tu_fifo_write+0x6a>
10007966:	46c0      	nop			; (mov r8, r8)

10007968 <tu_fifo_write_n>:
10007968:	b5f0      	push	{r4, r5, r6, r7, lr}
1000796a:	464f      	mov	r7, r9
1000796c:	46d6      	mov	lr, sl
1000796e:	4646      	mov	r6, r8
10007970:	0005      	movs	r5, r0
10007972:	b5c0      	push	{r6, r7, lr}
10007974:	0014      	movs	r4, r2
10007976:	000f      	movs	r7, r1
10007978:	2a00      	cmp	r2, #0
1000797a:	d105      	bne.n	10007988 <tu_fifo_write_n+0x20>
1000797c:	0020      	movs	r0, r4
1000797e:	bc1c      	pop	{r2, r3, r4}
10007980:	4690      	mov	r8, r2
10007982:	4699      	mov	r9, r3
10007984:	46a2      	mov	sl, r4
10007986:	bdf0      	pop	{r4, r5, r6, r7, pc}
10007988:	6940      	ldr	r0, [r0, #20]
1000798a:	2800      	cmp	r0, #0
1000798c:	d003      	beq.n	10007996 <tu_fifo_write_n+0x2e>
1000798e:	2101      	movs	r1, #1
10007990:	4249      	negs	r1, r1
10007992:	f000 fb5d 	bl	10008050 <__mutex_enter_timeout_ms_veneer>
10007996:	88ea      	ldrh	r2, [r5, #6]
10007998:	89ee      	ldrh	r6, [r5, #14]
1000799a:	4690      	mov	r8, r2
1000799c:	8a29      	ldrh	r1, [r5, #16]
1000799e:	7a2a      	ldrb	r2, [r5, #8]
100079a0:	b2b6      	uxth	r6, r6
100079a2:	b289      	uxth	r1, r1
100079a4:	88ab      	ldrh	r3, [r5, #4]
100079a6:	2a00      	cmp	r2, #0
100079a8:	d10e      	bne.n	100079c8 <tu_fifo_write_n+0x60>
100079aa:	1a72      	subs	r2, r6, r1
100079ac:	b292      	uxth	r2, r2
100079ae:	428e      	cmp	r6, r1
100079b0:	d202      	bcs.n	100079b8 <tu_fifo_write_n+0x50>
100079b2:	8969      	ldrh	r1, [r5, #10]
100079b4:	1a52      	subs	r2, r2, r1
100079b6:	b292      	uxth	r2, r2
100079b8:	1a9a      	subs	r2, r3, r2
100079ba:	1c11      	adds	r1, r2, #0
100079bc:	b292      	uxth	r2, r2
100079be:	42a2      	cmp	r2, r4
100079c0:	d900      	bls.n	100079c4 <tu_fifo_write_n+0x5c>
100079c2:	1c21      	adds	r1, r4, #0
100079c4:	b28c      	uxth	r4, r1
100079c6:	e007      	b.n	100079d8 <tu_fifo_write_n+0x70>
100079c8:	429c      	cmp	r4, r3
100079ca:	d305      	bcc.n	100079d8 <tu_fifo_write_n+0x70>
100079cc:	4642      	mov	r2, r8
100079ce:	1ae4      	subs	r4, r4, r3
100079d0:	4354      	muls	r4, r2
100079d2:	000e      	movs	r6, r1
100079d4:	193f      	adds	r7, r7, r4
100079d6:	001c      	movs	r4, r3
100079d8:	0030      	movs	r0, r6
100079da:	429e      	cmp	r6, r3
100079dc:	d303      	bcc.n	100079e6 <tu_fifo_write_n+0x7e>
100079de:	1ac0      	subs	r0, r0, r3
100079e0:	b280      	uxth	r0, r0
100079e2:	4298      	cmp	r0, r3
100079e4:	d2fb      	bcs.n	100079de <tu_fifo_write_n+0x76>
100079e6:	1a1b      	subs	r3, r3, r0
100079e8:	b29b      	uxth	r3, r3
100079ea:	4699      	mov	r9, r3
100079ec:	4643      	mov	r3, r8
100079ee:	4358      	muls	r0, r3
100079f0:	682b      	ldr	r3, [r5, #0]
100079f2:	469c      	mov	ip, r3
100079f4:	4460      	add	r0, ip
100079f6:	454c      	cmp	r4, r9
100079f8:	d815      	bhi.n	10007a26 <tu_fifo_write_n+0xbe>
100079fa:	4642      	mov	r2, r8
100079fc:	0039      	movs	r1, r7
100079fe:	4362      	muls	r2, r4
10007a00:	f7fd fa6a 	bl	10004ed8 <__wrap___aeabi_memcpy>
10007a04:	19a3      	adds	r3, r4, r6
10007a06:	b29b      	uxth	r3, r3
10007a08:	429e      	cmp	r6, r3
10007a0a:	d802      	bhi.n	10007a12 <tu_fifo_write_n+0xaa>
10007a0c:	89aa      	ldrh	r2, [r5, #12]
10007a0e:	429a      	cmp	r2, r3
10007a10:	d202      	bcs.n	10007a18 <tu_fifo_write_n+0xb0>
10007a12:	896a      	ldrh	r2, [r5, #10]
10007a14:	189b      	adds	r3, r3, r2
10007a16:	b29b      	uxth	r3, r3
10007a18:	6968      	ldr	r0, [r5, #20]
10007a1a:	81eb      	strh	r3, [r5, #14]
10007a1c:	2800      	cmp	r0, #0
10007a1e:	d0ad      	beq.n	1000797c <tu_fifo_write_n+0x14>
10007a20:	f000 fafe 	bl	10008020 <__mutex_exit_veneer>
10007a24:	e7aa      	b.n	1000797c <tu_fifo_write_n+0x14>
10007a26:	464b      	mov	r3, r9
10007a28:	4641      	mov	r1, r8
10007a2a:	4359      	muls	r1, r3
10007a2c:	b28b      	uxth	r3, r1
10007a2e:	001a      	movs	r2, r3
10007a30:	0039      	movs	r1, r7
10007a32:	469a      	mov	sl, r3
10007a34:	f7fd fa50 	bl	10004ed8 <__wrap___aeabi_memcpy>
10007a38:	464b      	mov	r3, r9
10007a3a:	1ae2      	subs	r2, r4, r3
10007a3c:	4643      	mov	r3, r8
10007a3e:	0039      	movs	r1, r7
10007a40:	435a      	muls	r2, r3
10007a42:	4451      	add	r1, sl
10007a44:	b292      	uxth	r2, r2
10007a46:	6828      	ldr	r0, [r5, #0]
10007a48:	f7fd fa46 	bl	10004ed8 <__wrap___aeabi_memcpy>
10007a4c:	e7da      	b.n	10007a04 <tu_fifo_write_n+0x9c>
10007a4e:	46c0      	nop			; (mov r8, r8)

10007a50 <tu_fifo_clear>:
10007a50:	b510      	push	{r4, lr}
10007a52:	0004      	movs	r4, r0
10007a54:	6940      	ldr	r0, [r0, #20]
10007a56:	2800      	cmp	r0, #0
10007a58:	d003      	beq.n	10007a62 <tu_fifo_clear+0x12>
10007a5a:	2101      	movs	r1, #1
10007a5c:	4249      	negs	r1, r1
10007a5e:	f000 faf7 	bl	10008050 <__mutex_enter_timeout_ms_veneer>
10007a62:	69a0      	ldr	r0, [r4, #24]
10007a64:	2800      	cmp	r0, #0
10007a66:	d003      	beq.n	10007a70 <tu_fifo_clear+0x20>
10007a68:	2101      	movs	r1, #1
10007a6a:	4249      	negs	r1, r1
10007a6c:	f000 faf0 	bl	10008050 <__mutex_enter_timeout_ms_veneer>
10007a70:	2300      	movs	r3, #0
10007a72:	81e3      	strh	r3, [r4, #14]
10007a74:	8223      	strh	r3, [r4, #16]
10007a76:	88a3      	ldrh	r3, [r4, #4]
10007a78:	6960      	ldr	r0, [r4, #20]
10007a7a:	005b      	lsls	r3, r3, #1
10007a7c:	b29b      	uxth	r3, r3
10007a7e:	1e5a      	subs	r2, r3, #1
10007a80:	425b      	negs	r3, r3
10007a82:	81a2      	strh	r2, [r4, #12]
10007a84:	8163      	strh	r3, [r4, #10]
10007a86:	2800      	cmp	r0, #0
10007a88:	d001      	beq.n	10007a8e <tu_fifo_clear+0x3e>
10007a8a:	f000 fac9 	bl	10008020 <__mutex_exit_veneer>
10007a8e:	69a0      	ldr	r0, [r4, #24]
10007a90:	2800      	cmp	r0, #0
10007a92:	d001      	beq.n	10007a98 <tu_fifo_clear+0x48>
10007a94:	f000 fac4 	bl	10008020 <__mutex_exit_veneer>
10007a98:	2001      	movs	r0, #1
10007a9a:	bd10      	pop	{r4, pc}

10007a9c <tu_fifo_set_overwritable>:
10007a9c:	b570      	push	{r4, r5, r6, lr}
10007a9e:	0004      	movs	r4, r0
10007aa0:	6940      	ldr	r0, [r0, #20]
10007aa2:	000d      	movs	r5, r1
10007aa4:	2800      	cmp	r0, #0
10007aa6:	d003      	beq.n	10007ab0 <tu_fifo_set_overwritable+0x14>
10007aa8:	2101      	movs	r1, #1
10007aaa:	4249      	negs	r1, r1
10007aac:	f000 fad0 	bl	10008050 <__mutex_enter_timeout_ms_veneer>
10007ab0:	69a0      	ldr	r0, [r4, #24]
10007ab2:	2800      	cmp	r0, #0
10007ab4:	d003      	beq.n	10007abe <tu_fifo_set_overwritable+0x22>
10007ab6:	2101      	movs	r1, #1
10007ab8:	4249      	negs	r1, r1
10007aba:	f000 fac9 	bl	10008050 <__mutex_enter_timeout_ms_veneer>
10007abe:	6960      	ldr	r0, [r4, #20]
10007ac0:	7225      	strb	r5, [r4, #8]
10007ac2:	2800      	cmp	r0, #0
10007ac4:	d001      	beq.n	10007aca <tu_fifo_set_overwritable+0x2e>
10007ac6:	f000 faab 	bl	10008020 <__mutex_exit_veneer>
10007aca:	69a0      	ldr	r0, [r4, #24]
10007acc:	2800      	cmp	r0, #0
10007ace:	d001      	beq.n	10007ad4 <tu_fifo_set_overwritable+0x38>
10007ad0:	f000 faa6 	bl	10008020 <__mutex_exit_veneer>
10007ad4:	2001      	movs	r0, #1
10007ad6:	bd70      	pop	{r4, r5, r6, pc}

10007ad8 <_retrieve_unique_id_on_boot>:
10007ad8:	b510      	push	{r4, lr}
10007ada:	4802      	ldr	r0, [pc, #8]	; (10007ae4 <_retrieve_unique_id_on_boot+0xc>)
10007adc:	f000 f8ea 	bl	10007cb4 <flash_get_unique_id>
10007ae0:	bd10      	pop	{r4, pc}
10007ae2:	46c0      	nop			; (mov r8, r8)
10007ae4:	2000164c 	.word	0x2000164c

10007ae8 <pico_get_unique_board_id_string>:
10007ae8:	3901      	subs	r1, #1
10007aea:	b530      	push	{r4, r5, lr}
10007aec:	2900      	cmp	r1, #0
10007aee:	d100      	bne.n	10007af2 <pico_get_unique_board_id_string+0xa>
10007af0:	e0b4      	b.n	10007c5c <pico_get_unique_board_id_string+0x174>
10007af2:	4b6f      	ldr	r3, [pc, #444]	; (10007cb0 <pico_get_unique_board_id_string+0x1c8>)
10007af4:	781a      	ldrb	r2, [r3, #0]
10007af6:	1112      	asrs	r2, r2, #4
10007af8:	b2d5      	uxtb	r5, r2
10007afa:	002c      	movs	r4, r5
10007afc:	3430      	adds	r4, #48	; 0x30
10007afe:	2a09      	cmp	r2, #9
10007b00:	dd00      	ble.n	10007b04 <pico_get_unique_board_id_string+0x1c>
10007b02:	e0ae      	b.n	10007c62 <pico_get_unique_board_id_string+0x17a>
10007b04:	7004      	strb	r4, [r0, #0]
10007b06:	2901      	cmp	r1, #1
10007b08:	d100      	bne.n	10007b0c <pico_get_unique_board_id_string+0x24>
10007b0a:	e0a6      	b.n	10007c5a <pico_get_unique_board_id_string+0x172>
10007b0c:	220f      	movs	r2, #15
10007b0e:	781c      	ldrb	r4, [r3, #0]
10007b10:	4022      	ands	r2, r4
10007b12:	0014      	movs	r4, r2
10007b14:	3430      	adds	r4, #48	; 0x30
10007b16:	2a09      	cmp	r2, #9
10007b18:	d900      	bls.n	10007b1c <pico_get_unique_board_id_string+0x34>
10007b1a:	e0a4      	b.n	10007c66 <pico_get_unique_board_id_string+0x17e>
10007b1c:	7044      	strb	r4, [r0, #1]
10007b1e:	2902      	cmp	r1, #2
10007b20:	d100      	bne.n	10007b24 <pico_get_unique_board_id_string+0x3c>
10007b22:	e09a      	b.n	10007c5a <pico_get_unique_board_id_string+0x172>
10007b24:	785a      	ldrb	r2, [r3, #1]
10007b26:	1112      	asrs	r2, r2, #4
10007b28:	b2d5      	uxtb	r5, r2
10007b2a:	002c      	movs	r4, r5
10007b2c:	3430      	adds	r4, #48	; 0x30
10007b2e:	2a09      	cmp	r2, #9
10007b30:	dd00      	ble.n	10007b34 <pico_get_unique_board_id_string+0x4c>
10007b32:	e09b      	b.n	10007c6c <pico_get_unique_board_id_string+0x184>
10007b34:	7084      	strb	r4, [r0, #2]
10007b36:	2903      	cmp	r1, #3
10007b38:	d100      	bne.n	10007b3c <pico_get_unique_board_id_string+0x54>
10007b3a:	e08e      	b.n	10007c5a <pico_get_unique_board_id_string+0x172>
10007b3c:	220f      	movs	r2, #15
10007b3e:	785c      	ldrb	r4, [r3, #1]
10007b40:	4022      	ands	r2, r4
10007b42:	0014      	movs	r4, r2
10007b44:	3430      	adds	r4, #48	; 0x30
10007b46:	2a09      	cmp	r2, #9
10007b48:	d900      	bls.n	10007b4c <pico_get_unique_board_id_string+0x64>
10007b4a:	e091      	b.n	10007c70 <pico_get_unique_board_id_string+0x188>
10007b4c:	70c4      	strb	r4, [r0, #3]
10007b4e:	2904      	cmp	r1, #4
10007b50:	d100      	bne.n	10007b54 <pico_get_unique_board_id_string+0x6c>
10007b52:	e082      	b.n	10007c5a <pico_get_unique_board_id_string+0x172>
10007b54:	789a      	ldrb	r2, [r3, #2]
10007b56:	1112      	asrs	r2, r2, #4
10007b58:	b2d5      	uxtb	r5, r2
10007b5a:	002c      	movs	r4, r5
10007b5c:	3430      	adds	r4, #48	; 0x30
10007b5e:	2a09      	cmp	r2, #9
10007b60:	dd00      	ble.n	10007b64 <pico_get_unique_board_id_string+0x7c>
10007b62:	e088      	b.n	10007c76 <pico_get_unique_board_id_string+0x18e>
10007b64:	7104      	strb	r4, [r0, #4]
10007b66:	2905      	cmp	r1, #5
10007b68:	d077      	beq.n	10007c5a <pico_get_unique_board_id_string+0x172>
10007b6a:	220f      	movs	r2, #15
10007b6c:	789c      	ldrb	r4, [r3, #2]
10007b6e:	4022      	ands	r2, r4
10007b70:	0014      	movs	r4, r2
10007b72:	3430      	adds	r4, #48	; 0x30
10007b74:	2a09      	cmp	r2, #9
10007b76:	d900      	bls.n	10007b7a <pico_get_unique_board_id_string+0x92>
10007b78:	e07f      	b.n	10007c7a <pico_get_unique_board_id_string+0x192>
10007b7a:	7144      	strb	r4, [r0, #5]
10007b7c:	2906      	cmp	r1, #6
10007b7e:	d06c      	beq.n	10007c5a <pico_get_unique_board_id_string+0x172>
10007b80:	78da      	ldrb	r2, [r3, #3]
10007b82:	1112      	asrs	r2, r2, #4
10007b84:	b2d4      	uxtb	r4, r2
10007b86:	0025      	movs	r5, r4
10007b88:	3530      	adds	r5, #48	; 0x30
10007b8a:	2a09      	cmp	r2, #9
10007b8c:	dd00      	ble.n	10007b90 <pico_get_unique_board_id_string+0xa8>
10007b8e:	e077      	b.n	10007c80 <pico_get_unique_board_id_string+0x198>
10007b90:	7185      	strb	r5, [r0, #6]
10007b92:	2907      	cmp	r1, #7
10007b94:	d061      	beq.n	10007c5a <pico_get_unique_board_id_string+0x172>
10007b96:	220f      	movs	r2, #15
10007b98:	78dc      	ldrb	r4, [r3, #3]
10007b9a:	4022      	ands	r2, r4
10007b9c:	0014      	movs	r4, r2
10007b9e:	3430      	adds	r4, #48	; 0x30
10007ba0:	2a09      	cmp	r2, #9
10007ba2:	d900      	bls.n	10007ba6 <pico_get_unique_board_id_string+0xbe>
10007ba4:	e06f      	b.n	10007c86 <pico_get_unique_board_id_string+0x19e>
10007ba6:	71c4      	strb	r4, [r0, #7]
10007ba8:	2908      	cmp	r1, #8
10007baa:	d056      	beq.n	10007c5a <pico_get_unique_board_id_string+0x172>
10007bac:	791a      	ldrb	r2, [r3, #4]
10007bae:	1112      	asrs	r2, r2, #4
10007bb0:	b2d5      	uxtb	r5, r2
10007bb2:	002c      	movs	r4, r5
10007bb4:	3430      	adds	r4, #48	; 0x30
10007bb6:	2a09      	cmp	r2, #9
10007bb8:	dd00      	ble.n	10007bbc <pico_get_unique_board_id_string+0xd4>
10007bba:	3407      	adds	r4, #7
10007bbc:	7204      	strb	r4, [r0, #8]
10007bbe:	2909      	cmp	r1, #9
10007bc0:	d04b      	beq.n	10007c5a <pico_get_unique_board_id_string+0x172>
10007bc2:	220f      	movs	r2, #15
10007bc4:	791c      	ldrb	r4, [r3, #4]
10007bc6:	4022      	ands	r2, r4
10007bc8:	0014      	movs	r4, r2
10007bca:	3430      	adds	r4, #48	; 0x30
10007bcc:	2a09      	cmp	r2, #9
10007bce:	d901      	bls.n	10007bd4 <pico_get_unique_board_id_string+0xec>
10007bd0:	3237      	adds	r2, #55	; 0x37
10007bd2:	0014      	movs	r4, r2
10007bd4:	7244      	strb	r4, [r0, #9]
10007bd6:	290a      	cmp	r1, #10
10007bd8:	d03f      	beq.n	10007c5a <pico_get_unique_board_id_string+0x172>
10007bda:	795a      	ldrb	r2, [r3, #5]
10007bdc:	1112      	asrs	r2, r2, #4
10007bde:	b2d4      	uxtb	r4, r2
10007be0:	0025      	movs	r5, r4
10007be2:	3530      	adds	r5, #48	; 0x30
10007be4:	2a09      	cmp	r2, #9
10007be6:	dd01      	ble.n	10007bec <pico_get_unique_board_id_string+0x104>
10007be8:	3437      	adds	r4, #55	; 0x37
10007bea:	0025      	movs	r5, r4
10007bec:	7285      	strb	r5, [r0, #10]
10007bee:	290b      	cmp	r1, #11
10007bf0:	d033      	beq.n	10007c5a <pico_get_unique_board_id_string+0x172>
10007bf2:	220f      	movs	r2, #15
10007bf4:	795c      	ldrb	r4, [r3, #5]
10007bf6:	4022      	ands	r2, r4
10007bf8:	0014      	movs	r4, r2
10007bfa:	3430      	adds	r4, #48	; 0x30
10007bfc:	2a09      	cmp	r2, #9
10007bfe:	d849      	bhi.n	10007c94 <pico_get_unique_board_id_string+0x1ac>
10007c00:	72c4      	strb	r4, [r0, #11]
10007c02:	290c      	cmp	r1, #12
10007c04:	d029      	beq.n	10007c5a <pico_get_unique_board_id_string+0x172>
10007c06:	799a      	ldrb	r2, [r3, #6]
10007c08:	1112      	asrs	r2, r2, #4
10007c0a:	b2d5      	uxtb	r5, r2
10007c0c:	002c      	movs	r4, r5
10007c0e:	3430      	adds	r4, #48	; 0x30
10007c10:	2a09      	cmp	r2, #9
10007c12:	dc42      	bgt.n	10007c9a <pico_get_unique_board_id_string+0x1b2>
10007c14:	7304      	strb	r4, [r0, #12]
10007c16:	290d      	cmp	r1, #13
10007c18:	d01f      	beq.n	10007c5a <pico_get_unique_board_id_string+0x172>
10007c1a:	220f      	movs	r2, #15
10007c1c:	799c      	ldrb	r4, [r3, #6]
10007c1e:	4022      	ands	r2, r4
10007c20:	0014      	movs	r4, r2
10007c22:	3430      	adds	r4, #48	; 0x30
10007c24:	2a09      	cmp	r2, #9
10007c26:	d83a      	bhi.n	10007c9e <pico_get_unique_board_id_string+0x1b6>
10007c28:	7344      	strb	r4, [r0, #13]
10007c2a:	290e      	cmp	r1, #14
10007c2c:	d015      	beq.n	10007c5a <pico_get_unique_board_id_string+0x172>
10007c2e:	79da      	ldrb	r2, [r3, #7]
10007c30:	1112      	asrs	r2, r2, #4
10007c32:	b2d5      	uxtb	r5, r2
10007c34:	002c      	movs	r4, r5
10007c36:	3430      	adds	r4, #48	; 0x30
10007c38:	2a09      	cmp	r2, #9
10007c3a:	dc33      	bgt.n	10007ca4 <pico_get_unique_board_id_string+0x1bc>
10007c3c:	7384      	strb	r4, [r0, #14]
10007c3e:	290f      	cmp	r1, #15
10007c40:	d00b      	beq.n	10007c5a <pico_get_unique_board_id_string+0x172>
10007c42:	79da      	ldrb	r2, [r3, #7]
10007c44:	230f      	movs	r3, #15
10007c46:	4013      	ands	r3, r2
10007c48:	001a      	movs	r2, r3
10007c4a:	3237      	adds	r2, #55	; 0x37
10007c4c:	2b09      	cmp	r3, #9
10007c4e:	d92b      	bls.n	10007ca8 <pico_get_unique_board_id_string+0x1c0>
10007c50:	73c2      	strb	r2, [r0, #15]
10007c52:	2910      	cmp	r1, #16
10007c54:	d001      	beq.n	10007c5a <pico_get_unique_board_id_string+0x172>
10007c56:	3010      	adds	r0, #16
10007c58:	e000      	b.n	10007c5c <pico_get_unique_board_id_string+0x174>
10007c5a:	1840      	adds	r0, r0, r1
10007c5c:	2300      	movs	r3, #0
10007c5e:	7003      	strb	r3, [r0, #0]
10007c60:	bd30      	pop	{r4, r5, pc}
10007c62:	3407      	adds	r4, #7
10007c64:	e74e      	b.n	10007b04 <pico_get_unique_board_id_string+0x1c>
10007c66:	3237      	adds	r2, #55	; 0x37
10007c68:	0014      	movs	r4, r2
10007c6a:	e757      	b.n	10007b1c <pico_get_unique_board_id_string+0x34>
10007c6c:	3407      	adds	r4, #7
10007c6e:	e761      	b.n	10007b34 <pico_get_unique_board_id_string+0x4c>
10007c70:	3237      	adds	r2, #55	; 0x37
10007c72:	0014      	movs	r4, r2
10007c74:	e76a      	b.n	10007b4c <pico_get_unique_board_id_string+0x64>
10007c76:	3407      	adds	r4, #7
10007c78:	e774      	b.n	10007b64 <pico_get_unique_board_id_string+0x7c>
10007c7a:	3237      	adds	r2, #55	; 0x37
10007c7c:	0014      	movs	r4, r2
10007c7e:	e77c      	b.n	10007b7a <pico_get_unique_board_id_string+0x92>
10007c80:	3437      	adds	r4, #55	; 0x37
10007c82:	0025      	movs	r5, r4
10007c84:	e784      	b.n	10007b90 <pico_get_unique_board_id_string+0xa8>
10007c86:	3237      	adds	r2, #55	; 0x37
10007c88:	0014      	movs	r4, r2
10007c8a:	71c4      	strb	r4, [r0, #7]
10007c8c:	2908      	cmp	r1, #8
10007c8e:	d000      	beq.n	10007c92 <pico_get_unique_board_id_string+0x1aa>
10007c90:	e78c      	b.n	10007bac <pico_get_unique_board_id_string+0xc4>
10007c92:	e7e2      	b.n	10007c5a <pico_get_unique_board_id_string+0x172>
10007c94:	3237      	adds	r2, #55	; 0x37
10007c96:	0014      	movs	r4, r2
10007c98:	e7b2      	b.n	10007c00 <pico_get_unique_board_id_string+0x118>
10007c9a:	3407      	adds	r4, #7
10007c9c:	e7ba      	b.n	10007c14 <pico_get_unique_board_id_string+0x12c>
10007c9e:	3237      	adds	r2, #55	; 0x37
10007ca0:	0014      	movs	r4, r2
10007ca2:	e7c1      	b.n	10007c28 <pico_get_unique_board_id_string+0x140>
10007ca4:	3407      	adds	r4, #7
10007ca6:	e7c9      	b.n	10007c3c <pico_get_unique_board_id_string+0x154>
10007ca8:	3330      	adds	r3, #48	; 0x30
10007caa:	001a      	movs	r2, r3
10007cac:	e7d0      	b.n	10007c50 <pico_get_unique_board_id_string+0x168>
10007cae:	46c0      	nop			; (mov r8, r8)
10007cb0:	2000164c 	.word	0x2000164c

10007cb4 <flash_get_unique_id>:
10007cb4:	b510      	push	{r4, lr}
10007cb6:	b088      	sub	sp, #32
10007cb8:	0004      	movs	r4, r0
10007cba:	220d      	movs	r2, #13
10007cbc:	2100      	movs	r1, #0
10007cbe:	4668      	mov	r0, sp
10007cc0:	f7fd f904 	bl	10004ecc <__wrap_memset>
10007cc4:	220d      	movs	r2, #13
10007cc6:	2100      	movs	r1, #0
10007cc8:	a804      	add	r0, sp, #16
10007cca:	f7fd f8ff 	bl	10004ecc <__wrap_memset>
10007cce:	234b      	movs	r3, #75	; 0x4b
10007cd0:	466a      	mov	r2, sp
10007cd2:	a904      	add	r1, sp, #16
10007cd4:	7013      	strb	r3, [r2, #0]
10007cd6:	4668      	mov	r0, sp
10007cd8:	220d      	movs	r2, #13
10007cda:	f000 f999 	bl	10008010 <__flash_do_cmd_veneer>
10007cde:	2115      	movs	r1, #21
10007ce0:	2208      	movs	r2, #8
10007ce2:	4469      	add	r1, sp
10007ce4:	0020      	movs	r0, r4
10007ce6:	f7fd f8f7 	bl	10004ed8 <__wrap___aeabi_memcpy>
10007cea:	b008      	add	sp, #32
10007cec:	bd10      	pop	{r4, pc}
10007cee:	46c0      	nop			; (mov r8, r8)

10007cf0 <i2c_init>:
10007cf0:	4b3a      	ldr	r3, [pc, #232]	; (10007ddc <i2c_init+0xec>)
10007cf2:	b5f0      	push	{r4, r5, r6, r7, lr}
10007cf4:	1ac3      	subs	r3, r0, r3
10007cf6:	425a      	negs	r2, r3
10007cf8:	4153      	adcs	r3, r2
10007cfa:	2207      	movs	r2, #7
10007cfc:	46d6      	mov	lr, sl
10007cfe:	464f      	mov	r7, r9
10007d00:	4646      	mov	r6, r8
10007d02:	0004      	movs	r4, r0
10007d04:	425b      	negs	r3, r3
10007d06:	4393      	bics	r3, r2
10007d08:	4a35      	ldr	r2, [pc, #212]	; (10007de0 <i2c_init+0xf0>)
10007d0a:	3310      	adds	r3, #16
10007d0c:	b5c0      	push	{r6, r7, lr}
10007d0e:	6013      	str	r3, [r2, #0]
10007d10:	4a34      	ldr	r2, [pc, #208]	; (10007de4 <i2c_init+0xf4>)
10007d12:	000d      	movs	r5, r1
10007d14:	4934      	ldr	r1, [pc, #208]	; (10007de8 <i2c_init+0xf8>)
10007d16:	6013      	str	r3, [r2, #0]
10007d18:	0018      	movs	r0, r3
10007d1a:	688a      	ldr	r2, [r1, #8]
10007d1c:	4390      	bics	r0, r2
10007d1e:	1e02      	subs	r2, r0, #0
10007d20:	d1fa      	bne.n	10007d18 <i2c_init+0x28>
10007d22:	2166      	movs	r1, #102	; 0x66
10007d24:	6823      	ldr	r3, [r4, #0]
10007d26:	31ff      	adds	r1, #255	; 0xff
10007d28:	7120      	strb	r0, [r4, #4]
10007d2a:	66d8      	str	r0, [r3, #108]	; 0x6c
10007d2c:	6019      	str	r1, [r3, #0]
10007d2e:	3963      	subs	r1, #99	; 0x63
10007d30:	3288      	adds	r2, #136	; 0x88
10007d32:	39ff      	subs	r1, #255	; 0xff
10007d34:	63d8      	str	r0, [r3, #60]	; 0x3c
10007d36:	6398      	str	r0, [r3, #56]	; 0x38
10007d38:	5099      	str	r1, [r3, r2]
10007d3a:	2005      	movs	r0, #5
10007d3c:	f7fc feb0 	bl	10004aa0 <clock_get_hz>
10007d40:	0006      	movs	r6, r0
10007d42:	0868      	lsrs	r0, r5, #1
10007d44:	0029      	movs	r1, r5
10007d46:	1980      	adds	r0, r0, r6
10007d48:	f7fc ffe8 	bl	10004d1c <__wrap___aeabi_uidiv>
10007d4c:	0043      	lsls	r3, r0, #1
10007d4e:	4698      	mov	r8, r3
10007d50:	4480      	add	r8, r0
10007d52:	0007      	movs	r7, r0
10007d54:	2105      	movs	r1, #5
10007d56:	4640      	mov	r0, r8
10007d58:	f7fc ffe0 	bl	10004d1c <__wrap___aeabi_uidiv>
10007d5c:	1a3b      	subs	r3, r7, r0
10007d5e:	469a      	mov	sl, r3
10007d60:	4b22      	ldr	r3, [pc, #136]	; (10007dec <i2c_init+0xfc>)
10007d62:	4681      	mov	r9, r0
10007d64:	0070      	lsls	r0, r6, #1
10007d66:	1980      	adds	r0, r0, r6
10007d68:	429d      	cmp	r5, r3
10007d6a:	d831      	bhi.n	10007dd0 <i2c_init+0xe0>
10007d6c:	4920      	ldr	r1, [pc, #128]	; (10007df0 <i2c_init+0x100>)
10007d6e:	f7fc ffd5 	bl	10004d1c <__wrap___aeabi_uidiv>
10007d72:	1c45      	adds	r5, r0, #1
10007d74:	2300      	movs	r3, #0
10007d76:	6824      	ldr	r4, [r4, #0]
10007d78:	2001      	movs	r0, #1
10007d7a:	66e3      	str	r3, [r4, #108]	; 0x6c
10007d7c:	6822      	ldr	r2, [r4, #0]
10007d7e:	3304      	adds	r3, #4
10007d80:	4053      	eors	r3, r2
10007d82:	2206      	movs	r2, #6
10007d84:	401a      	ands	r2, r3
10007d86:	2380      	movs	r3, #128	; 0x80
10007d88:	015b      	lsls	r3, r3, #5
10007d8a:	4323      	orrs	r3, r4
10007d8c:	601a      	str	r2, [r3, #0]
10007d8e:	4653      	mov	r3, sl
10007d90:	61e3      	str	r3, [r4, #28]
10007d92:	464b      	mov	r3, r9
10007d94:	6223      	str	r3, [r4, #32]
10007d96:	2b0f      	cmp	r3, #15
10007d98:	d903      	bls.n	10007da2 <i2c_init+0xb2>
10007d9a:	2150      	movs	r1, #80	; 0x50
10007d9c:	4640      	mov	r0, r8
10007d9e:	f7fc ffbd 	bl	10004d1c <__wrap___aeabi_uidiv>
10007da2:	23a0      	movs	r3, #160	; 0xa0
10007da4:	0022      	movs	r2, r4
10007da6:	50e0      	str	r0, [r4, r3]
10007da8:	2380      	movs	r3, #128	; 0x80
10007daa:	6fe0      	ldr	r0, [r4, #124]	; 0x7c
10007dac:	327c      	adds	r2, #124	; 0x7c
10007dae:	4068      	eors	r0, r5
10007db0:	0400      	lsls	r0, r0, #16
10007db2:	015b      	lsls	r3, r3, #5
10007db4:	4313      	orrs	r3, r2
10007db6:	0c00      	lsrs	r0, r0, #16
10007db8:	6018      	str	r0, [r3, #0]
10007dba:	2301      	movs	r3, #1
10007dbc:	0039      	movs	r1, r7
10007dbe:	0030      	movs	r0, r6
10007dc0:	66e3      	str	r3, [r4, #108]	; 0x6c
10007dc2:	f7fc ffab 	bl	10004d1c <__wrap___aeabi_uidiv>
10007dc6:	bc1c      	pop	{r2, r3, r4}
10007dc8:	4690      	mov	r8, r2
10007dca:	4699      	mov	r9, r3
10007dcc:	46a2      	mov	sl, r4
10007dce:	bdf0      	pop	{r4, r5, r6, r7, pc}
10007dd0:	4908      	ldr	r1, [pc, #32]	; (10007df4 <i2c_init+0x104>)
10007dd2:	f7fc ffa3 	bl	10004d1c <__wrap___aeabi_uidiv>
10007dd6:	1c45      	adds	r5, r0, #1
10007dd8:	e7cc      	b.n	10007d74 <i2c_init+0x84>
10007dda:	46c0      	nop			; (mov r8, r8)
10007ddc:	20000624 	.word	0x20000624
10007de0:	4000e000 	.word	0x4000e000
10007de4:	4000f000 	.word	0x4000f000
10007de8:	4000c000 	.word	0x4000c000
10007dec:	000f423f 	.word	0x000f423f
10007df0:	00989680 	.word	0x00989680
10007df4:	017d7840 	.word	0x017d7840

10007df8 <i2c_write_blocking>:
10007df8:	b5f0      	push	{r4, r5, r6, r7, lr}
10007dfa:	46de      	mov	lr, fp
10007dfc:	464e      	mov	r6, r9
10007dfe:	4645      	mov	r5, r8
10007e00:	4657      	mov	r7, sl
10007e02:	b5e0      	push	{r5, r6, r7, lr}
10007e04:	b083      	sub	sp, #12
10007e06:	4691      	mov	r9, r2
10007e08:	001a      	movs	r2, r3
10007e0a:	ab0c      	add	r3, sp, #48	; 0x30
10007e0c:	781b      	ldrb	r3, [r3, #0]
10007e0e:	6804      	ldr	r4, [r0, #0]
10007e10:	469b      	mov	fp, r3
10007e12:	2300      	movs	r3, #0
10007e14:	66e3      	str	r3, [r4, #108]	; 0x6c
10007e16:	3301      	adds	r3, #1
10007e18:	6061      	str	r1, [r4, #4]
10007e1a:	4680      	mov	r8, r0
10007e1c:	66e3      	str	r3, [r4, #108]	; 0x6c
10007e1e:	2a00      	cmp	r2, #0
10007e20:	dd4e      	ble.n	10007ec0 <i2c_write_blocking+0xc8>
10007e22:	1e53      	subs	r3, r2, #1
10007e24:	469c      	mov	ip, r3
10007e26:	4659      	mov	r1, fp
10007e28:	2301      	movs	r3, #1
10007e2a:	404b      	eors	r3, r1
10007e2c:	025b      	lsls	r3, r3, #9
10007e2e:	9301      	str	r3, [sp, #4]
10007e30:	2380      	movs	r3, #128	; 0x80
10007e32:	2000      	movs	r0, #0
10007e34:	2710      	movs	r7, #16
10007e36:	469a      	mov	sl, r3
10007e38:	4666      	mov	r6, ip
10007e3a:	464d      	mov	r5, r9
10007e3c:	2100      	movs	r1, #0
10007e3e:	4689      	mov	r9, r1
10007e40:	2800      	cmp	r0, #0
10007e42:	d036      	beq.n	10007eb2 <i2c_write_blocking+0xba>
10007e44:	2100      	movs	r1, #0
10007e46:	468c      	mov	ip, r1
10007e48:	42b0      	cmp	r0, r6
10007e4a:	d03b      	beq.n	10007ec4 <i2c_write_blocking+0xcc>
10007e4c:	464b      	mov	r3, r9
10007e4e:	5c29      	ldrb	r1, [r5, r0]
10007e50:	4319      	orrs	r1, r3
10007e52:	4663      	mov	r3, ip
10007e54:	4319      	orrs	r1, r3
10007e56:	6121      	str	r1, [r4, #16]
10007e58:	6b61      	ldr	r1, [r4, #52]	; 0x34
10007e5a:	420f      	tst	r7, r1
10007e5c:	d0fc      	beq.n	10007e58 <i2c_write_blocking+0x60>
10007e5e:	4653      	mov	r3, sl
10007e60:	58e3      	ldr	r3, [r4, r3]
10007e62:	469c      	mov	ip, r3
10007e64:	2b00      	cmp	r3, #0
10007e66:	d10e      	bne.n	10007e86 <i2c_write_blocking+0x8e>
10007e68:	42b0      	cmp	r0, r6
10007e6a:	d02e      	beq.n	10007eca <i2c_write_blocking+0xd2>
10007e6c:	3001      	adds	r0, #1
10007e6e:	4282      	cmp	r2, r0
10007e70:	d1e4      	bne.n	10007e3c <i2c_write_blocking+0x44>
10007e72:	4643      	mov	r3, r8
10007e74:	465a      	mov	r2, fp
10007e76:	711a      	strb	r2, [r3, #4]
10007e78:	b003      	add	sp, #12
10007e7a:	bc3c      	pop	{r2, r3, r4, r5}
10007e7c:	4690      	mov	r8, r2
10007e7e:	4699      	mov	r9, r3
10007e80:	46a2      	mov	sl, r4
10007e82:	46ab      	mov	fp, r5
10007e84:	bdf0      	pop	{r4, r5, r6, r7, pc}
10007e86:	2301      	movs	r3, #1
10007e88:	4699      	mov	r9, r3
10007e8a:	6d61      	ldr	r1, [r4, #84]	; 0x54
10007e8c:	2380      	movs	r3, #128	; 0x80
10007e8e:	6b61      	ldr	r1, [r4, #52]	; 0x34
10007e90:	009b      	lsls	r3, r3, #2
10007e92:	4219      	tst	r1, r3
10007e94:	d0fa      	beq.n	10007e8c <i2c_write_blocking+0x94>
10007e96:	464b      	mov	r3, r9
10007e98:	6e21      	ldr	r1, [r4, #96]	; 0x60
10007e9a:	2b00      	cmp	r3, #0
10007e9c:	d0e6      	beq.n	10007e6c <i2c_write_blocking+0x74>
10007e9e:	4665      	mov	r5, ip
10007ea0:	2d00      	cmp	r5, #0
10007ea2:	d003      	beq.n	10007eac <i2c_write_blocking+0xb4>
10007ea4:	07eb      	lsls	r3, r5, #31
10007ea6:	d401      	bmi.n	10007eac <i2c_write_blocking+0xb4>
10007ea8:	072b      	lsls	r3, r5, #28
10007eaa:	d4e2      	bmi.n	10007e72 <i2c_write_blocking+0x7a>
10007eac:	2002      	movs	r0, #2
10007eae:	4240      	negs	r0, r0
10007eb0:	e7df      	b.n	10007e72 <i2c_write_blocking+0x7a>
10007eb2:	4643      	mov	r3, r8
10007eb4:	7919      	ldrb	r1, [r3, #4]
10007eb6:	1e4b      	subs	r3, r1, #1
10007eb8:	4199      	sbcs	r1, r3
10007eba:	028b      	lsls	r3, r1, #10
10007ebc:	4699      	mov	r9, r3
10007ebe:	e7c1      	b.n	10007e44 <i2c_write_blocking+0x4c>
10007ec0:	2000      	movs	r0, #0
10007ec2:	e7d6      	b.n	10007e72 <i2c_write_blocking+0x7a>
10007ec4:	9b01      	ldr	r3, [sp, #4]
10007ec6:	469c      	mov	ip, r3
10007ec8:	e7c0      	b.n	10007e4c <i2c_write_blocking+0x54>
10007eca:	465b      	mov	r3, fp
10007ecc:	2b00      	cmp	r3, #0
10007ece:	d1cd      	bne.n	10007e6c <i2c_write_blocking+0x74>
10007ed0:	46d9      	mov	r9, fp
10007ed2:	e7db      	b.n	10007e8c <i2c_write_blocking+0x94>

10007ed4 <i2c_read_blocking>:
10007ed4:	b5f0      	push	{r4, r5, r6, r7, lr}
10007ed6:	4646      	mov	r6, r8
10007ed8:	46d6      	mov	lr, sl
10007eda:	464f      	mov	r7, r9
10007edc:	b5c0      	push	{r6, r7, lr}
10007ede:	0006      	movs	r6, r0
10007ee0:	a808      	add	r0, sp, #32
10007ee2:	7800      	ldrb	r0, [r0, #0]
10007ee4:	6834      	ldr	r4, [r6, #0]
10007ee6:	4680      	mov	r8, r0
10007ee8:	2000      	movs	r0, #0
10007eea:	66e0      	str	r0, [r4, #108]	; 0x6c
10007eec:	6061      	str	r1, [r4, #4]
10007eee:	2101      	movs	r1, #1
10007ef0:	4692      	mov	sl, r2
10007ef2:	66e1      	str	r1, [r4, #108]	; 0x6c
10007ef4:	2b00      	cmp	r3, #0
10007ef6:	dd36      	ble.n	10007f66 <i2c_read_blocking+0x92>
10007ef8:	4640      	mov	r0, r8
10007efa:	4041      	eors	r1, r0
10007efc:	0249      	lsls	r1, r1, #9
10007efe:	468c      	mov	ip, r1
10007f00:	2000      	movs	r0, #0
10007f02:	2580      	movs	r5, #128	; 0x80
10007f04:	1e5f      	subs	r7, r3, #1
10007f06:	6f61      	ldr	r1, [r4, #116]	; 0x74
10007f08:	2910      	cmp	r1, #16
10007f0a:	d0fc      	beq.n	10007f06 <i2c_read_blocking+0x32>
10007f0c:	2180      	movs	r1, #128	; 0x80
10007f0e:	0049      	lsls	r1, r1, #1
10007f10:	2800      	cmp	r0, #0
10007f12:	d01e      	beq.n	10007f52 <i2c_read_blocking+0x7e>
10007f14:	4287      	cmp	r7, r0
10007f16:	d019      	beq.n	10007f4c <i2c_read_blocking+0x78>
10007f18:	6121      	str	r1, [r4, #16]
10007f1a:	e002      	b.n	10007f22 <i2c_read_blocking+0x4e>
10007f1c:	6fa1      	ldr	r1, [r4, #120]	; 0x78
10007f1e:	2900      	cmp	r1, #0
10007f20:	d10c      	bne.n	10007f3c <i2c_read_blocking+0x68>
10007f22:	5961      	ldr	r1, [r4, r5]
10007f24:	6d61      	ldr	r1, [r4, #84]	; 0x54
10007f26:	2900      	cmp	r1, #0
10007f28:	d0f8      	beq.n	10007f1c <i2c_read_blocking+0x48>
10007f2a:	2002      	movs	r0, #2
10007f2c:	4240      	negs	r0, r0
10007f2e:	4643      	mov	r3, r8
10007f30:	7133      	strb	r3, [r6, #4]
10007f32:	bc1c      	pop	{r2, r3, r4}
10007f34:	4690      	mov	r8, r2
10007f36:	4699      	mov	r9, r3
10007f38:	46a2      	mov	sl, r4
10007f3a:	bdf0      	pop	{r4, r5, r6, r7, pc}
10007f3c:	4652      	mov	r2, sl
10007f3e:	6921      	ldr	r1, [r4, #16]
10007f40:	5411      	strb	r1, [r2, r0]
10007f42:	3001      	adds	r0, #1
10007f44:	4283      	cmp	r3, r0
10007f46:	d0f2      	beq.n	10007f2e <i2c_read_blocking+0x5a>
10007f48:	6834      	ldr	r4, [r6, #0]
10007f4a:	e7dc      	b.n	10007f06 <i2c_read_blocking+0x32>
10007f4c:	4662      	mov	r2, ip
10007f4e:	4311      	orrs	r1, r2
10007f50:	e7e2      	b.n	10007f18 <i2c_read_blocking+0x44>
10007f52:	7931      	ldrb	r1, [r6, #4]
10007f54:	424a      	negs	r2, r1
10007f56:	414a      	adcs	r2, r1
10007f58:	4251      	negs	r1, r2
10007f5a:	22a0      	movs	r2, #160	; 0xa0
10007f5c:	00d2      	lsls	r2, r2, #3
10007f5e:	4691      	mov	r9, r2
10007f60:	0289      	lsls	r1, r1, #10
10007f62:	4449      	add	r1, r9
10007f64:	e7d6      	b.n	10007f14 <i2c_read_blocking+0x40>
10007f66:	2000      	movs	r0, #0
10007f68:	e7e1      	b.n	10007f2e <i2c_read_blocking+0x5a>
10007f6a:	46c0      	nop			; (mov r8, r8)

10007f6c <adc_init>:
10007f6c:	2301      	movs	r3, #1
10007f6e:	2101      	movs	r1, #1
10007f70:	4a08      	ldr	r2, [pc, #32]	; (10007f94 <adc_init+0x28>)
10007f72:	6013      	str	r3, [r2, #0]
10007f74:	4a08      	ldr	r2, [pc, #32]	; (10007f98 <adc_init+0x2c>)
10007f76:	6013      	str	r3, [r2, #0]
10007f78:	4a08      	ldr	r2, [pc, #32]	; (10007f9c <adc_init+0x30>)
10007f7a:	0008      	movs	r0, r1
10007f7c:	6893      	ldr	r3, [r2, #8]
10007f7e:	4398      	bics	r0, r3
10007f80:	d1fb      	bne.n	10007f7a <adc_init+0xe>
10007f82:	4a07      	ldr	r2, [pc, #28]	; (10007fa0 <adc_init+0x34>)
10007f84:	6011      	str	r1, [r2, #0]
10007f86:	2180      	movs	r1, #128	; 0x80
10007f88:	0049      	lsls	r1, r1, #1
10007f8a:	6813      	ldr	r3, [r2, #0]
10007f8c:	420b      	tst	r3, r1
10007f8e:	d0fc      	beq.n	10007f8a <adc_init+0x1e>
10007f90:	4770      	bx	lr
10007f92:	46c0      	nop			; (mov r8, r8)
10007f94:	4000e000 	.word	0x4000e000
10007f98:	4000f000 	.word	0x4000f000
10007f9c:	4000c000 	.word	0x4000c000
10007fa0:	4004c000 	.word	0x4004c000

10007fa4 <strlen>:
10007fa4:	b510      	push	{r4, lr}
10007fa6:	0004      	movs	r4, r0
10007fa8:	0783      	lsls	r3, r0, #30
10007faa:	d00a      	beq.n	10007fc2 <strlen+0x1e>
10007fac:	7803      	ldrb	r3, [r0, #0]
10007fae:	2b00      	cmp	r3, #0
10007fb0:	d023      	beq.n	10007ffa <strlen+0x56>
10007fb2:	2203      	movs	r2, #3
10007fb4:	e002      	b.n	10007fbc <strlen+0x18>
10007fb6:	7803      	ldrb	r3, [r0, #0]
10007fb8:	2b00      	cmp	r3, #0
10007fba:	d01c      	beq.n	10007ff6 <strlen+0x52>
10007fbc:	3001      	adds	r0, #1
10007fbe:	4210      	tst	r0, r2
10007fc0:	d1f9      	bne.n	10007fb6 <strlen+0x12>
10007fc2:	6802      	ldr	r2, [r0, #0]
10007fc4:	4b0e      	ldr	r3, [pc, #56]	; (10008000 <strlen+0x5c>)
10007fc6:	490f      	ldr	r1, [pc, #60]	; (10008004 <strlen+0x60>)
10007fc8:	18d3      	adds	r3, r2, r3
10007fca:	4393      	bics	r3, r2
10007fcc:	420b      	tst	r3, r1
10007fce:	d10f      	bne.n	10007ff0 <strlen+0x4c>
10007fd0:	3004      	adds	r0, #4
10007fd2:	6802      	ldr	r2, [r0, #0]
10007fd4:	4b0a      	ldr	r3, [pc, #40]	; (10008000 <strlen+0x5c>)
10007fd6:	18d3      	adds	r3, r2, r3
10007fd8:	4393      	bics	r3, r2
10007fda:	420b      	tst	r3, r1
10007fdc:	d108      	bne.n	10007ff0 <strlen+0x4c>
10007fde:	3004      	adds	r0, #4
10007fe0:	6802      	ldr	r2, [r0, #0]
10007fe2:	4b07      	ldr	r3, [pc, #28]	; (10008000 <strlen+0x5c>)
10007fe4:	18d3      	adds	r3, r2, r3
10007fe6:	4393      	bics	r3, r2
10007fe8:	420b      	tst	r3, r1
10007fea:	d0f1      	beq.n	10007fd0 <strlen+0x2c>
10007fec:	e000      	b.n	10007ff0 <strlen+0x4c>
10007fee:	3001      	adds	r0, #1
10007ff0:	7803      	ldrb	r3, [r0, #0]
10007ff2:	2b00      	cmp	r3, #0
10007ff4:	d1fb      	bne.n	10007fee <strlen+0x4a>
10007ff6:	1b00      	subs	r0, r0, r4
10007ff8:	bd10      	pop	{r4, pc}
10007ffa:	2000      	movs	r0, #0
10007ffc:	e7fc      	b.n	10007ff8 <strlen+0x54>
10007ffe:	46c0      	nop			; (mov r8, r8)
10008000:	fefefeff 	.word	0xfefefeff
10008004:	80808080 	.word	0x80808080

10008008 <_fini>:
10008008:	b5f8      	push	{r3, r4, r5, r6, r7, lr}
1000800a:	46c0      	nop			; (mov r8, r8)
1000800c:	0000      	movs	r0, r0
	...

10008010 <__flash_do_cmd_veneer>:
10008010:	b401      	push	{r0}
10008012:	4802      	ldr	r0, [pc, #8]	; (1000801c <__flash_do_cmd_veneer+0xc>)
10008014:	4684      	mov	ip, r0
10008016:	bc01      	pop	{r0}
10008018:	4760      	bx	ip
1000801a:	bf00      	nop
1000801c:	2000028d 	.word	0x2000028d

10008020 <__mutex_exit_veneer>:
10008020:	b401      	push	{r0}
10008022:	4802      	ldr	r0, [pc, #8]	; (1000802c <__mutex_exit_veneer+0xc>)
10008024:	4684      	mov	ip, r0
10008026:	bc01      	pop	{r0}
10008028:	4760      	bx	ip
1000802a:	bf00      	nop
1000802c:	200001e9 	.word	0x200001e9

10008030 <____aeabi_idiv0_veneer>:
10008030:	b401      	push	{r0}
10008032:	4802      	ldr	r0, [pc, #8]	; (1000803c <____aeabi_idiv0_veneer+0xc>)
10008034:	4684      	mov	ip, r0
10008036:	bc01      	pop	{r0}
10008038:	4760      	bx	ip
1000803a:	bf00      	nop
1000803c:	20000339 	.word	0x20000339

10008040 <__mutex_try_enter_veneer>:
10008040:	b401      	push	{r0}
10008042:	4802      	ldr	r0, [pc, #8]	; (1000804c <__mutex_try_enter_veneer+0xc>)
10008044:	4684      	mov	ip, r0
10008046:	bc01      	pop	{r0}
10008048:	4760      	bx	ip
1000804a:	bf00      	nop
1000804c:	20000109 	.word	0x20000109

10008050 <__mutex_enter_timeout_ms_veneer>:
10008050:	b401      	push	{r0}
10008052:	4802      	ldr	r0, [pc, #8]	; (1000805c <__mutex_enter_timeout_ms_veneer+0xc>)
10008054:	4684      	mov	ip, r0
10008056:	bc01      	pop	{r0}
10008058:	4760      	bx	ip
1000805a:	bf00      	nop
1000805c:	20000151 	.word	0x20000151

10008060 <__mutex_enter_blocking_veneer>:
10008060:	b401      	push	{r0}
10008062:	4802      	ldr	r0, [pc, #8]	; (1000806c <__mutex_enter_blocking_veneer+0xc>)
10008064:	4684      	mov	ip, r0
10008066:	bc01      	pop	{r0}
10008068:	4760      	bx	ip
1000806a:	bf00      	nop
1000806c:	200000c1 	.word	0x200000c1

Disassembly of section .data:

200000c0 <mutex_enter_blocking>:
200000c0:	23d0      	movs	r3, #208	; 0xd0
200000c2:	b530      	push	{r4, r5, lr}
200000c4:	2500      	movs	r5, #0
200000c6:	061b      	lsls	r3, r3, #24
200000c8:	575d      	ldrsb	r5, [r3, r5]
200000ca:	2400      	movs	r4, #0
200000cc:	e006      	b.n	200000dc <mutex_enter_blocking+0x1c>
200000ce:	6803      	ldr	r3, [r0, #0]
200000d0:	f3bf 8f5f 	dmb	sy
200000d4:	601c      	str	r4, [r3, #0]
200000d6:	f381 8810 	msr	PRIMASK, r1
200000da:	bf20      	wfe
200000dc:	6802      	ldr	r2, [r0, #0]
200000de:	f3ef 8110 	mrs	r1, PRIMASK
200000e2:	b672      	cpsid	i
200000e4:	6813      	ldr	r3, [r2, #0]
200000e6:	2b00      	cmp	r3, #0
200000e8:	d0fc      	beq.n	200000e4 <mutex_enter_blocking+0x24>
200000ea:	f3bf 8f5f 	dmb	sy
200000ee:	7903      	ldrb	r3, [r0, #4]
200000f0:	2b7f      	cmp	r3, #127	; 0x7f
200000f2:	d9ec      	bls.n	200000ce <mutex_enter_blocking+0xe>
200000f4:	7105      	strb	r5, [r0, #4]
200000f6:	6803      	ldr	r3, [r0, #0]
200000f8:	f3bf 8f5f 	dmb	sy
200000fc:	2200      	movs	r2, #0
200000fe:	601a      	str	r2, [r3, #0]
20000100:	f381 8810 	msr	PRIMASK, r1
20000104:	bd30      	pop	{r4, r5, pc}
20000106:	46c0      	nop			; (mov r8, r8)

20000108 <mutex_try_enter>:
20000108:	0003      	movs	r3, r0
2000010a:	b510      	push	{r4, lr}
2000010c:	6800      	ldr	r0, [r0, #0]
2000010e:	f3ef 8410 	mrs	r4, PRIMASK
20000112:	b672      	cpsid	i
20000114:	6802      	ldr	r2, [r0, #0]
20000116:	2a00      	cmp	r2, #0
20000118:	d0fc      	beq.n	20000114 <mutex_try_enter+0xc>
2000011a:	f3bf 8f5f 	dmb	sy
2000011e:	2204      	movs	r2, #4
20000120:	569a      	ldrsb	r2, [r3, r2]
20000122:	2a00      	cmp	r2, #0
20000124:	db0b      	blt.n	2000013e <mutex_try_enter+0x36>
20000126:	2900      	cmp	r1, #0
20000128:	d00f      	beq.n	2000014a <mutex_try_enter+0x42>
2000012a:	2000      	movs	r0, #0
2000012c:	600a      	str	r2, [r1, #0]
2000012e:	681b      	ldr	r3, [r3, #0]
20000130:	f3bf 8f5f 	dmb	sy
20000134:	2200      	movs	r2, #0
20000136:	601a      	str	r2, [r3, #0]
20000138:	f384 8810 	msr	PRIMASK, r4
2000013c:	bd10      	pop	{r4, pc}
2000013e:	22d0      	movs	r2, #208	; 0xd0
20000140:	0612      	lsls	r2, r2, #24
20000142:	6812      	ldr	r2, [r2, #0]
20000144:	2001      	movs	r0, #1
20000146:	711a      	strb	r2, [r3, #4]
20000148:	e7f1      	b.n	2000012e <mutex_try_enter+0x26>
2000014a:	2000      	movs	r0, #0
2000014c:	e7ef      	b.n	2000012e <mutex_try_enter+0x26>
2000014e:	46c0      	nop			; (mov r8, r8)

20000150 <mutex_enter_timeout_ms>:
20000150:	b5f0      	push	{r4, r5, r6, r7, lr}
20000152:	46c6      	mov	lr, r8
20000154:	b500      	push	{lr}
20000156:	000c      	movs	r4, r1
20000158:	0007      	movs	r7, r0
2000015a:	f000 f8f9 	bl	20000350 <__time_us_64_veneer>
2000015e:	22fa      	movs	r2, #250	; 0xfa
20000160:	0005      	movs	r5, r0
20000162:	000e      	movs	r6, r1
20000164:	0092      	lsls	r2, r2, #2
20000166:	0020      	movs	r0, r4
20000168:	2300      	movs	r3, #0
2000016a:	2100      	movs	r1, #0
2000016c:	f000 f8f8 	bl	20000360 <____wrap___aeabi_lmul_veneer>
20000170:	002c      	movs	r4, r5
20000172:	002a      	movs	r2, r5
20000174:	0035      	movs	r5, r6
20000176:	1824      	adds	r4, r4, r0
20000178:	414d      	adcs	r5, r1
2000017a:	42ae      	cmp	r6, r5
2000017c:	d92f      	bls.n	200001de <mutex_enter_timeout_ms+0x8e>
2000017e:	2401      	movs	r4, #1
20000180:	4264      	negs	r4, r4
20000182:	17e5      	asrs	r5, r4, #31
20000184:	23d0      	movs	r3, #208	; 0xd0
20000186:	061b      	lsls	r3, r3, #24
20000188:	681b      	ldr	r3, [r3, #0]
2000018a:	2600      	movs	r6, #0
2000018c:	4698      	mov	r8, r3
2000018e:	e00b      	b.n	200001a8 <mutex_enter_timeout_ms+0x58>
20000190:	683b      	ldr	r3, [r7, #0]
20000192:	f3bf 8f5f 	dmb	sy
20000196:	601e      	str	r6, [r3, #0]
20000198:	f381 8810 	msr	PRIMASK, r1
2000019c:	0020      	movs	r0, r4
2000019e:	0029      	movs	r1, r5
200001a0:	f000 f8ce 	bl	20000340 <__best_effort_wfe_or_timeout_veneer>
200001a4:	2800      	cmp	r0, #0
200001a6:	d118      	bne.n	200001da <mutex_enter_timeout_ms+0x8a>
200001a8:	683a      	ldr	r2, [r7, #0]
200001aa:	f3ef 8110 	mrs	r1, PRIMASK
200001ae:	b672      	cpsid	i
200001b0:	6813      	ldr	r3, [r2, #0]
200001b2:	2b00      	cmp	r3, #0
200001b4:	d0fc      	beq.n	200001b0 <mutex_enter_timeout_ms+0x60>
200001b6:	f3bf 8f5f 	dmb	sy
200001ba:	793b      	ldrb	r3, [r7, #4]
200001bc:	2b7f      	cmp	r3, #127	; 0x7f
200001be:	d9e7      	bls.n	20000190 <mutex_enter_timeout_ms+0x40>
200001c0:	4643      	mov	r3, r8
200001c2:	713b      	strb	r3, [r7, #4]
200001c4:	683b      	ldr	r3, [r7, #0]
200001c6:	f3bf 8f5f 	dmb	sy
200001ca:	2200      	movs	r2, #0
200001cc:	601a      	str	r2, [r3, #0]
200001ce:	f381 8810 	msr	PRIMASK, r1
200001d2:	2001      	movs	r0, #1
200001d4:	bc04      	pop	{r2}
200001d6:	4690      	mov	r8, r2
200001d8:	bdf0      	pop	{r4, r5, r6, r7, pc}
200001da:	2000      	movs	r0, #0
200001dc:	e7fa      	b.n	200001d4 <mutex_enter_timeout_ms+0x84>
200001de:	42ae      	cmp	r6, r5
200001e0:	d1d0      	bne.n	20000184 <mutex_enter_timeout_ms+0x34>
200001e2:	42a2      	cmp	r2, r4
200001e4:	d8cb      	bhi.n	2000017e <mutex_enter_timeout_ms+0x2e>
200001e6:	e7cd      	b.n	20000184 <mutex_enter_timeout_ms+0x34>

200001e8 <mutex_exit>:
200001e8:	6802      	ldr	r2, [r0, #0]
200001ea:	f3ef 8110 	mrs	r1, PRIMASK
200001ee:	b672      	cpsid	i
200001f0:	6813      	ldr	r3, [r2, #0]
200001f2:	2b00      	cmp	r3, #0
200001f4:	d0fc      	beq.n	200001f0 <mutex_exit+0x8>
200001f6:	f3bf 8f5f 	dmb	sy
200001fa:	23ff      	movs	r3, #255	; 0xff
200001fc:	7103      	strb	r3, [r0, #4]
200001fe:	6803      	ldr	r3, [r0, #0]
20000200:	f3bf 8f5f 	dmb	sy
20000204:	2200      	movs	r2, #0
20000206:	601a      	str	r2, [r3, #0]
20000208:	f381 8810 	msr	PRIMASK, r1
2000020c:	bf40      	sev
2000020e:	4770      	bx	lr

20000210 <flash_init_boot2_copyout>:
20000210:	b530      	push	{r4, r5, lr}
20000212:	4c09      	ldr	r4, [pc, #36]	; (20000238 <flash_init_boot2_copyout+0x28>)
20000214:	7823      	ldrb	r3, [r4, #0]
20000216:	2b00      	cmp	r3, #0
20000218:	d10d      	bne.n	20000236 <flash_init_boot2_copyout+0x26>
2000021a:	2380      	movs	r3, #128	; 0x80
2000021c:	4807      	ldr	r0, [pc, #28]	; (2000023c <flash_init_boot2_copyout+0x2c>)
2000021e:	4908      	ldr	r1, [pc, #32]	; (20000240 <flash_init_boot2_copyout+0x30>)
20000220:	055b      	lsls	r3, r3, #21
20000222:	22f0      	movs	r2, #240	; 0xf0
20000224:	681d      	ldr	r5, [r3, #0]
20000226:	0612      	lsls	r2, r2, #24
20000228:	189a      	adds	r2, r3, r2
2000022a:	3304      	adds	r3, #4
2000022c:	5085      	str	r5, [r0, r2]
2000022e:	428b      	cmp	r3, r1
20000230:	d1f7      	bne.n	20000222 <flash_init_boot2_copyout+0x12>
20000232:	2301      	movs	r3, #1
20000234:	7023      	strb	r3, [r4, #0]
20000236:	bd30      	pop	{r4, r5, pc}
20000238:	200016ab 	.word	0x200016ab
2000023c:	20000c6c 	.word	0x20000c6c
20000240:	10000100 	.word	0x10000100

20000244 <flash_enable_xip_via_boot2>:
20000244:	b510      	push	{r4, lr}
20000246:	4b02      	ldr	r3, [pc, #8]	; (20000250 <flash_enable_xip_via_boot2+0xc>)
20000248:	3301      	adds	r3, #1
2000024a:	4798      	blx	r3
2000024c:	bd10      	pop	{r4, pc}
2000024e:	46c0      	nop			; (mov r8, r8)
20000250:	20000c6c 	.word	0x20000c6c

20000254 <flash_cs_force.constprop.0>:
20000254:	4b05      	ldr	r3, [pc, #20]	; (2000026c <flash_cs_force.constprop.0+0x18>)
20000256:	681a      	ldr	r2, [r3, #0]
20000258:	2380      	movs	r3, #128	; 0x80
2000025a:	009b      	lsls	r3, r3, #2
2000025c:	4053      	eors	r3, r2
2000025e:	22c0      	movs	r2, #192	; 0xc0
20000260:	0092      	lsls	r2, r2, #2
20000262:	4013      	ands	r3, r2
20000264:	4a02      	ldr	r2, [pc, #8]	; (20000270 <flash_cs_force.constprop.0+0x1c>)
20000266:	6013      	str	r3, [r2, #0]
20000268:	4770      	bx	lr
2000026a:	46c0      	nop			; (mov r8, r8)
2000026c:	4001800c 	.word	0x4001800c
20000270:	4001900c 	.word	0x4001900c

20000274 <flash_cs_force.constprop.1>:
20000274:	4b03      	ldr	r3, [pc, #12]	; (20000284 <flash_cs_force.constprop.1+0x10>)
20000276:	681a      	ldr	r2, [r3, #0]
20000278:	23c0      	movs	r3, #192	; 0xc0
2000027a:	009b      	lsls	r3, r3, #2
2000027c:	4393      	bics	r3, r2
2000027e:	4a02      	ldr	r2, [pc, #8]	; (20000288 <flash_cs_force.constprop.1+0x14>)
20000280:	6013      	str	r3, [r2, #0]
20000282:	4770      	bx	lr
20000284:	4001800c 	.word	0x4001800c
20000288:	4001900c 	.word	0x4001900c

2000028c <flash_do_cmd>:
2000028c:	b5f0      	push	{r4, r5, r6, r7, lr}
2000028e:	46d6      	mov	lr, sl
20000290:	464f      	mov	r7, r9
20000292:	4646      	mov	r6, r8
20000294:	2314      	movs	r3, #20
20000296:	b5c0      	push	{r6, r7, lr}
20000298:	2718      	movs	r7, #24
2000029a:	4698      	mov	r8, r3
2000029c:	4681      	mov	r9, r0
2000029e:	000d      	movs	r5, r1
200002a0:	8818      	ldrh	r0, [r3, #0]
200002a2:	4922      	ldr	r1, [pc, #136]	; (2000032c <flash_do_cmd+0xa0>)
200002a4:	883b      	ldrh	r3, [r7, #0]
200002a6:	0014      	movs	r4, r2
200002a8:	4798      	blx	r3
200002aa:	4643      	mov	r3, r8
200002ac:	4682      	mov	sl, r0
200002ae:	4920      	ldr	r1, [pc, #128]	; (20000330 <flash_do_cmd+0xa4>)
200002b0:	8818      	ldrh	r0, [r3, #0]
200002b2:	883b      	ldrh	r3, [r7, #0]
200002b4:	4798      	blx	r3
200002b6:	4643      	mov	r3, r8
200002b8:	491e      	ldr	r1, [pc, #120]	; (20000334 <flash_do_cmd+0xa8>)
200002ba:	0006      	movs	r6, r0
200002bc:	8818      	ldrh	r0, [r3, #0]
200002be:	883b      	ldrh	r3, [r7, #0]
200002c0:	4798      	blx	r3
200002c2:	4680      	mov	r8, r0
200002c4:	f7ff ffa4 	bl	20000210 <flash_init_boot2_copyout>
200002c8:	47d0      	blx	sl
200002ca:	47b0      	blx	r6
200002cc:	f7ff ffc2 	bl	20000254 <flash_cs_force.constprop.0>
200002d0:	20c0      	movs	r0, #192	; 0xc0
200002d2:	0022      	movs	r2, r4
200002d4:	2608      	movs	r6, #8
200002d6:	0540      	lsls	r0, r0, #21
200002d8:	3f16      	subs	r7, #22
200002da:	0023      	movs	r3, r4
200002dc:	4313      	orrs	r3, r2
200002de:	d01b      	beq.n	20000318 <flash_do_cmd+0x8c>
200002e0:	0031      	movs	r1, r6
200002e2:	6a83      	ldr	r3, [r0, #40]	; 0x28
200002e4:	4019      	ands	r1, r3
200002e6:	421f      	tst	r7, r3
200002e8:	d00b      	beq.n	20000302 <flash_do_cmd+0x76>
200002ea:	2c00      	cmp	r4, #0
200002ec:	d009      	beq.n	20000302 <flash_do_cmd+0x76>
200002ee:	1b13      	subs	r3, r2, r4
200002f0:	2b0d      	cmp	r3, #13
200002f2:	d806      	bhi.n	20000302 <flash_do_cmd+0x76>
200002f4:	464b      	mov	r3, r9
200002f6:	781b      	ldrb	r3, [r3, #0]
200002f8:	3c01      	subs	r4, #1
200002fa:	6603      	str	r3, [r0, #96]	; 0x60
200002fc:	2301      	movs	r3, #1
200002fe:	469c      	mov	ip, r3
20000300:	44e1      	add	r9, ip
20000302:	2900      	cmp	r1, #0
20000304:	d0e9      	beq.n	200002da <flash_do_cmd+0x4e>
20000306:	2a00      	cmp	r2, #0
20000308:	d0e7      	beq.n	200002da <flash_do_cmd+0x4e>
2000030a:	6e03      	ldr	r3, [r0, #96]	; 0x60
2000030c:	3a01      	subs	r2, #1
2000030e:	702b      	strb	r3, [r5, #0]
20000310:	0023      	movs	r3, r4
20000312:	3501      	adds	r5, #1
20000314:	4313      	orrs	r3, r2
20000316:	d1e3      	bne.n	200002e0 <flash_do_cmd+0x54>
20000318:	f7ff ffac 	bl	20000274 <flash_cs_force.constprop.1>
2000031c:	47c0      	blx	r8
2000031e:	f7ff ff91 	bl	20000244 <flash_enable_xip_via_boot2>
20000322:	bc1c      	pop	{r2, r3, r4}
20000324:	4690      	mov	r8, r2
20000326:	4699      	mov	r9, r3
20000328:	46a2      	mov	sl, r4
2000032a:	bdf0      	pop	{r4, r5, r6, r7, pc}
2000032c:	00004649 	.word	0x00004649
20000330:	00005845 	.word	0x00005845
20000334:	00004346 	.word	0x00004346

20000338 <__aeabi_idiv0>:
20000338:	4770      	bx	lr
2000033a:	46c0      	nop			; (mov r8, r8)
2000033c:	0000      	movs	r0, r0
	...

20000340 <__best_effort_wfe_or_timeout_veneer>:
20000340:	b401      	push	{r0}
20000342:	4802      	ldr	r0, [pc, #8]	; (2000034c <__best_effort_wfe_or_timeout_veneer+0xc>)
20000344:	4684      	mov	ip, r0
20000346:	bc01      	pop	{r0}
20000348:	4760      	bx	ip
2000034a:	bf00      	nop
2000034c:	10003b6d 	.word	0x10003b6d

20000350 <__time_us_64_veneer>:
20000350:	b401      	push	{r0}
20000352:	4802      	ldr	r0, [pc, #8]	; (2000035c <__time_us_64_veneer+0xc>)
20000354:	4684      	mov	ip, r0
20000356:	bc01      	pop	{r0}
20000358:	4760      	bx	ip
2000035a:	bf00      	nop
2000035c:	10003de9 	.word	0x10003de9

20000360 <____wrap___aeabi_lmul_veneer>:
20000360:	b401      	push	{r0}
20000362:	4802      	ldr	r0, [pc, #8]	; (2000036c <____wrap___aeabi_lmul_veneer+0xc>)
20000364:	4684      	mov	ip, r0
20000366:	bc01      	pop	{r0}
20000368:	4760      	bx	ip
2000036a:	bf00      	nop
2000036c:	10004df5 	.word	0x10004df5

20000370 <_ZL12g_tKeyDevice>:
20000370:	10008070 1000040d 10000411 00000000     p...............

20000380 <_ZL18g_tRGBMatrixDevice>:
20000380:	100080c0 200003a0 00000040 00000020     ....... @... ...
20000390:	00000003 10000d99 10000d91 10000d65     ............e...

200003a0 <_ZL22g_RGBMatrixFramebuffer>:
200003a0:	000000ff 00000000 00000000 00000000     ................
	...

200004a0 <month_date>:
200004a0:	1e1f1d1f 1f1f1e1f 1f1e1f1e 1e1f1c1f     ................
200004b0:	1f1f1e1f 1f1e1f1e                       ........

200004b8 <months>:
200004b8:	10008470 10008478 10008480 10008488     p...x...........
200004c8:	10008490 10008498 100084a0 100084a8     ................
200004d8:	100084b0 100084b8 100084c0 100084c8     ................

200004e8 <weeks>:
200004e8:	100084d0 100084d4 100084d8 100084dc     ................
200004f8:	100084e0 100084e4 100084e8 100084ec     ................
20000508:	100084f0 100084f4 100084f8 100084fc     ................
20000518:	10008500 10008504                       ........

20000520 <LightThreshold>:
20000520:	                                         ..

20000522 <MaxLightDim>:
20000522:	                                         ..

20000524 <autoLightFlag>:
20000524:	                                         .

20000525 <enterTimeSettingFlag>:
20000525:	                                         ...

20000528 <gt_RTC_tm>:
20000528:	010a2c00 07e60111                       .,......

20000530 <selectSettingOptions>:
20000530:	                                         .

20000531 <systemStartupFlag>:
20000531:	                                         .

20000532 <striped_spin_lock_num>:
20000532:	                                         ..

20000534 <irq_handler_chain_slots>:
20000534:	00000000 	.word	0x00000000
20000538:	00010000 	.word	0x00010000
	...
20000544:	00020000 	.word	0x00020000
	...
20000550:	00030000 	.word	0x00030000
	...
2000055c:	00ff0000 	.word	0x00ff0000
20000560:	00000000 	.word	0x00000000

20000564 <irq_handler_chain_first_slot>:
20000564:	b500      	push	{lr}
20000566:	6848      	ldr	r0, [r1, #4]
20000568:	3101      	adds	r1, #1
2000056a:	468e      	mov	lr, r1
2000056c:	4700      	bx	r0

2000056e <irq_handler_chain_remove_tail>:
2000056e:	4670      	mov	r0, lr
20000570:	3809      	subs	r0, #9
20000572:	4901      	ldr	r1, [pc, #4]	; (20000578 <irq_handler_chain_remove_tail+0xa>)
20000574:	4788      	blx	r1
20000576:	bd00      	pop	{pc}
20000578:	1000306d 	.word	0x1000306d

2000057c <default_alarm_pool>:
2000057c:	20000594 00000000 20000660 20000d98     ... ....`.. ... 
	...

20000594 <default_alarm_pool_heap>:
20000594:	20000da8 00000000 00000000 00000010     ... ............
	...

200005b0 <aeabi_bits_funcs>:
200005b0:	00003350 	.word	0x00003350
200005b4:	0000334c 	.word	0x0000334c
200005b8:	00003354 	.word	0x00003354
200005bc:	00003352 	.word	0x00003352

200005c0 <aeabi_bits_funcs_end>:
200005c0:	0000534d 	.word	0x0000534d
200005c4:	0000434d 	.word	0x0000434d
200005c8:	00003453 	.word	0x00003453
200005cc:	00003443 	.word	0x00003443

200005d0 <stdio_uart>:
200005d0:	10005145 00000000 10005191 00000000     EQ.......Q......
200005e0:	00000100                                ....

200005e4 <stdio_usb>:
200005e4:	100053a5 00000000 100052f5 00000000     .S.......R......
200005f4:	00000100                                ....

200005f8 <ep_dir_string>:
200005f8:	10008c50 10008c30                       P...0...

20000600 <_usbd_qdef>:
20000600:	200018c0 000c0010 ffe00000 0000001f     ... ............
	...

20000624 <i2c0_inst>:
20000624:	40044000 00000000                       .@.@....

2000062c <i2c1_inst>:
2000062c:	40048000 00000000                       ...@....

20000634 <print_mutex>:
	...

2000063c <__mutex_array_end>:
2000063c:	10004ebd 	.word	0x10004ebd
20000640:	10004c61 	.word	0x10004c61
20000644:	10004d69 	.word	0x10004d69
20000648:	10004e29 	.word	0x10004e29

2000064c <__frame_dummy_init_array_entry>:
2000064c:	10000339 1000042d 100029f9 10007ad9     9...-....)...z..
